(dp0
S'text_addr'
p1
S'0x400d60'
p2
sS'functions'
p3
(dp4
S'flush_standard_stream'
p5
(dp6
S'ret_type'
p7
S''
p8
sS'args_type'
p9
(lp10
sS'inst_bytes'
p11
(lp12
sS'boundaries'
p13
(tsS'num_args'
p14
I1
sS'inst_strings'
p15
(lp16
ssS'strtol_octal_or_err'
p17
(dp18
g7
g8
sg9
(lp19
sg11
(lp20
(lp21
I65
aI87
aa(lp22
I65
aI86
aa(lp23
I83
aa(lp24
I72
aI131
aI236
aI16
aa(lp25
I73
aI137
aI246
aa(lp26
I73
aI137
aI255
aa(lp27
I72
aI199
aI68
aI36
aI8
aI0
aI0
aa(lp28
I0
aI0
aa(lp29
I77
aI133
aI255
aa(lp30
I116
aI70
aa(lp31
I65
aI128
aI63
aI0
aa(lp32
I116
aI64
aa(lp33
I232
aI8
aI246
aI255
aI255
aa(lp34
I72
aI137
aI195
aa(lp35
I199
aI3
aI0
aI0
aI0
aI0
aa(lp36
I72
aI141
aI116
aI36
aI8
aa(lp37
I49
aI210
aa(lp38
I76
aI137
aI255
aa(lp39
I232
aI0
aI247
aI255
aI255
aa(lp40
I131
aI59
aI0
aa(lp41
I117
aI30
aa(lp42
I72
aI139
aI76
aI36
aI8
aa(lp43
I76
aI57
aI249
aa(lp44
I116
aI20
aa(lp45
I72
aI133
aI201
aa(lp46
I116
aI5
aa(lp47
I128
aI57
aI0
aa(lp48
I117
aI10
aa(lp49
I72
aI131
aI196
aI16
aa(lp50
I91
aa(lp51
I65
aI94
aa(lp52
I65
aI95
aa(lp53
I195
aasg13
(I4199808
I4199963
tp54
sg14
I2
sg15
g16
ssS'stat'
p55
(dp56
g7
g8
sg9
(lp57
sg11
(lp58
sg13
(tsg14
I2
sg15
g16
ssS'bind'
p59
(dp60
g7
g8
sg9
(lp61
sg11
(lp62
sg13
(tsg14
I3
sg15
g16
ssS'open_raw_ctl'
p63
(dp64
g7
g8
sg9
(lp65
sg11
(lp66
(lp67
I80
aa(lp68
I191
aI175
aI26
aI64
aI0
aa(lp69
I190
aI2
aI0
aI0
aI0
aa(lp70
I49
aI210
aa(lp71
I49
aI192
aa(lp72
I232
aI172
aI249
aI255
aI255
aa(lp73
I137
aI5
aI174
aI29
aI32
aI0
aa(lp74
I133
aI192
aa(lp75
I121
aI29
aa(lp76
I191
aI191
aI26
aI64
aI0
aa(lp77
I190
aI2
aI0
aI0
aI0
aa(lp78
I49
aI210
aa(lp79
I49
aI192
aa(lp80
I232
aI143
aI249
aI255
aI255
aa(lp81
I137
aI5
aI145
aI29
aI32
aI0
aa(lp82
I133
aI192
aa(lp83
I120
aI2
aa(lp84
I88
aa(lp85
I195
aasg13
(tsg14
I0
sg15
g16
ssS'close_stdout'
p86
(dp87
g7
g8
sg9
(lp88
sg11
(lp89
(lp90
I65
aI86
aa(lp91
I83
aa(lp92
I80
aa(lp93
I72
aI139
aI29
aI221
aI26
aI32
aI0
aa(lp94
I232
aI128
aI245
aI255
aI255
aa(lp95
I73
aI137
aI198
aa(lp96
I65
aI199
aI6
aI0
aI0
aI0
aI0
aa(lp97
I72
aI137
aI223
aa(lp98
I232
aI158
aI245
aI255
aI255
aa(lp99
I133
aI192
aa(lp100
I15
aI133
aI163
aI0
aI0
aI0
aa(lp101
I72
aI137
aI223
aa(lp102
I232
aI174
aI246
aI255
aI255
aa(lp103
I133
aI192
aa(lp104
I116
aI69
aa(lp105
I65
aI139
aI30
aa(lp106
I131
aI251
aI9
aa(lp107
I116
aI9
aa(lp108
I131
aI251
aI32
aa(lp109
I15
aI133
aI156
aI0
aI0
aI0
aa(lp110
I72
aI139
aI29
aI178
aI26
aI32
aI0
aa(lp111
I65
aI199
aI6
aI0
aI0
aI0
aI0
aa(lp112
I72
aI137
aI223
aa(lp113
I232
aI99
aI245
aI255
aI255
aa(lp114
I133
aI192
aa(lp115
I117
aI98
aa(lp116
I72
aI137
aI223
aa(lp117
I232
aI119
aI246
aI255
aI255
aa(lp118
I133
aI192
aa(lp119
I116
aI50
aa(lp120
I65
aI131
aI62
aI9
aa(lp121
I117
aI80
aa(lp122
I72
aI131
aI196
aI8
aa(lp123
I91
aa(lp124
I65
aI94
aa(lp125
I195
aasg13
(I4199968
I4200253
tp126
sg14
I0
sg15
g16
ssS'gnu_dev_major'
p127
(dp128
g7
g8
sg9
(lp129
sg11
(lp130
sg13
(tsg14
I1
sg15
g16
ssS'close_stdout_atexit'
p131
(dp132
g7
g8
sg9
(lp133
sg11
(lp134
sg13
(tsg14
I0
sg15
g16
ssS'usage'
p135
(dp136
g7
g8
sg9
(lp137
sg11
(lp138
sg13
(tsg14
I0
sg15
g16
ssS'query'
p139
(dp140
g7
g8
sg9
(lp141
sg11
(lp142
(lp143
I85
aa(lp144
I65
aI86
aa(lp145
I83
aa(lp146
I72
aI129
aI236
aI144
aI0
aI0
aI0
aa(lp147
I137
aI213
aa(lp148
I73
aI137
aI246
aa(lp149
I137
aI251
aa(lp150
I77
aI133
aI246
aa(lp151
I116
aI103
aa(lp152
I72
aI137
aI226
aa(lp153
I191
aI1
aI0
aI0
aI0
aa(lp154
I76
aI137
aI246
aa(lp155
I232
aI217
aI248
aI255
aI255
aa(lp156
I133
aI192
aa(lp157
I15
aI133
aI21
aI1
aI0
aI0
aa(lp158
I184
aI0
aI240
aI0
aI0
aa(lp159
I35
aI68
aI36
aI24
aa(lp160
I61
aI0
aI32
aI0
aI0
aa(lp161
I15
aI133
aI39
aI1
aI0
aI0
aa(lp162
I72
aI139
aI92
aI36
aI40
aa(lp163
I137
aI216
aa(lp164
I193
aI232
aI8
aa(lp165
I37
aI255
aI15
aI0
aI0
aa(lp166
I72
aI137
aI217
aa(lp167
I72
aI193
aI233
aI32
aa(lp168
I129
aI225
aI0
aI240
aI255
aI255
aa(lp169
I72
aI9
aI193
aa(lp170
I72
aI129
aI249
aI162
aI0
aI0
aI0
aa(lp171
I15
aI133
aI4
aI1
aI0
aI0
aa(lp172
I15
aI182
aI195
aa(lp173
I72
aI193
aI235
aI12
aa(lp174
I129
aI227
aI0
aI255
aI255
aI255
aa(lp175
I9
aI195
aa(lp176
I137
aI28
aI36
aa(lp177
I139
aI61
aI209
aI28
aI32
aI0
aa(lp178
I72
aI137
aI226
aa(lp179
I190
aI1
aI172
aI0
aI0
aa(lp180
I49
aI192
aa(lp181
I232
aI10
aI248
aI255
aI255
aa(lp182
I133
aI192
aa(lp183
I120
aI79
aa(lp184
I198
aI5
aI187
aI28
aI32
aI0
aI1
aa(lp185
I133
aI237
aa(lp186
I116
aI18
aa(lp187
I72
aI139
aI68
aI36
aI8
aa(lp188
I72
aI133
aI192
aa(lp189
I117
aI8
aa(lp190
I72
aI131
aI124
aI36
aI16
aI0
aa(lp191
I116
aI125
aa(lp192
I49
aI237
aa(lp193
I49
aI255
aa(lp194
I190
aI226
aI28
aI64
aI0
aa(lp195
I186
aI5
aI0
aI0
aI0
aa(lp196
I232
aI102
aI247
aI255
aI255
aa(lp197
I72
aI137
aI194
aa(lp198
I139
aI76
aI36
aI8
aa(lp199
I68
aI139
aI68
aI36
aI16
aa(lp200
I190
aI97
aI27
aI64
aI0
aa(lp201
I49
aI192
aa(lp202
I72
aI137
aI215
aa(lp203
I137
aI218
aa(lp204
I232
aI121
aI247
aI255
aI255
aa(lp205
I235
aI77
aa(lp206
I133
aI237
aa(lp207
I116
aI15
aa(lp208
I232
aI222
aI246
aI255
aI255
aa(lp209
I189
aI3
aI0
aI0
aI0
aa(lp210
I131
aI56
aI19
aa(lp211
I116
aI58
aa(lp212
I128
aI61
aI89
aI28
aI32
aI0
aI1
aa(lp213
I117
aI12
aa(lp214
I232
aI198
aI246
aI255
aI255
aa(lp215
I49
aI237
aa(lp216
I131
aI56
aI22
aa(lp217
I116
aI37
aa(lp218
I49
aI255
aa(lp219
I190
aI200
aI28
aI64
aI0
aa(lp220
I186
aI5
aI0
aI0
aI0
aa(lp221
I232
aI14
aI247
aI255
aI255
aa(lp222
I72
aI137
aI193
aa(lp223
I191
aI4
aI0
aI0
aI0
aa(lp224
I49
aI192
aa(lp225
I72
aI137
aI206
aa(lp226
I232
aI220
aI247
aI255
aI255
aa(lp227
I49
aI237
aa(lp228
I137
aI232
aa(lp229
I72
aI129
aI196
aI144
aI0
aI0
aI0
aa(lp230
I91
aa(lp231
I65
aI94
aa(lp232
I93
aa(lp233
I195
aasg13
(I4199392
I4199801
tp234
sg14
I3
sg15
g16
ssS'main'
p235
(dp236
g7
g8
sg9
(lp237
sg11
(lp238
(lp239
I85
aa(lp240
I65
aI86
aa(lp241
I83
aa(lp242
I72
aI129
aI236
aI176
aI0
aI0
aI0
aa(lp243
I72
aI137
aI243
aa(lp244
I137
aI253
aa(lp245
I191
aI6
aI0
aI0
aI0
aa(lp246
I190
aI154
aI27
aI64
aI0
aa(lp247
I232
aI177
aI254
aI255
aI255
aa(lp248
I191
aI122
aI25
aI64
aI0
aa(lp249
I190
aI133
aI25
aI64
aI0
aa(lp250
I232
aI130
aI253
aI255
aI255
aa(lp251
I191
aI122
aI25
aI64
aI0
aa(lp252
I232
aI104
aI253
aI255
aI255
aa(lp253
I191
aI32
aI22
aI64
aI0
aa(lp254
I232
aI46
aI9
aI0
aI0
aa(lp255
I235
aI18
aa(lp256
I102
aI102
aI102
aI46
aI15
aI31
aI132
aa(lp257
I0
aI0
aI0
aI0
aI0
aa(lp258
I199
aI0
aI1
aI0
aI0
aI0
aa(lp259
I186
aI151
aI25
aI64
aI0
aa(lp260
I185
aI208
aI24
aI64
aI0
aa(lp261
I69
aI49
aI192
aa(lp262
I137
aI239
aa(lp263
I72
aI137
aI222
aa(lp264
I232
aI99
aI253
aI255
aI255
aa(lp265
I141
aI72
aI170
aa(lp266
I131
aI249
aI27
aa(lp267
I119
aI19
aa(lp268
I184
aI48
aI49
aI96
aI0
aa(lp269
I255
aI36
aI205
aI240
aI23
aI64
aI0
aa(lp270
I184
aI44
aI49
aI96
aI0
aa(lp271
I235
aI200
aa(lp272
I131
aI248
aI255
aa(lp273
I15
aI133
aI50
aI2
aI0
aI0
aa(lp274
I191
aI175
aI26
aI64
aI0
aa(lp275
I190
aI2
aI0
aI0
aI0
aa(lp276
I49
aI210
aa(lp277
I49
aI192
aa(lp278
I232
aI60
aI254
aI255
aI255
aa(lp279
I137
aI5
aI62
aI34
aI32
aI0
aa(lp280
I133
aI192
aa(lp281
I121
aI33
aa(lp282
I191
aI191
aI26
aI64
aI0
aa(lp283
I190
aI2
aI0
aI0
aI0
aa(lp284
I49
aI210
aa(lp285
I49
aI192
aa(lp286
I232
aI31
aI254
aI255
aI255
aa(lp287
I137
aI5
aI33
aI34
aI32
aI0
aa(lp288
I133
aI192
aa(lp289
I15
aI136
aI150
aI3
aI0
aI0
aa(lp290
I131
aI61
aI10
aI34
aI32
aI0
aI0
aa(lp291
I72
aI99
aI5
aI227
aI33
aI32
aI0
aa(lp292
I116
aI48
aa(lp293
I57
aI232
aa(lp294
I15
aI140
aI190
aI1
aI0
aI0
aa(lp295
I187
aI1
aI0
aI0
aI0
aa(lp296
I15
aI31
aI64
aI0
aa(lp297
I49
aI246
aa(lp298
I186
aI1
aI0
aI0
aI0
aa(lp299
I137
aI223
aa(lp300
I232
aI146
aI4
aI0
aI0
aa(lp301
I255
aI195
aa(lp302
I129
aI251
aI0
aI32
aI0
aI0
aa(lp303
I117
aI232
aa(lp304
I49
aI255
aa(lp305
I232
aI241
aI253
aI255
aI255
aa(lp306
I57
aI232
aa(lp307
I15
aI141
aI142
aI1
aI0
aI0
aa(lp308
I141
aI72
aI1
aa(lp309
I137
aI13
aI160
aI33
aI32
aI0
aa(lp310
I76
aI139
aI52
aI195
aa(lp311
I190
aI243
aI25
aI64
aI0
aa(lp312
I186
aI52
aI49
aI96
aI0
aa(lp313
I49
aI192
aa(lp314
I76
aI137
aI247
aa(lp315
I232
aI136
aI253
aI255
aI255
aa(lp316
I131
aI248
aI1
aa(lp317
I15
aI133
aI100
aI1
aI0
aI0
aa(lp318
I139
aI61
aI157
aI33
aI32
aI0
aa(lp319
I133
aI255
aa(lp320
I15
aI132
aI62
aI3
aI0
aI0
aa(lp321
I131
aI61
aI134
aI33
aI32
aI0
aI0
aa(lp322
I116
aI17
aa(lp323
I49
aI210
aa(lp324
I76
aI137
aI246
aa(lp325
I232
aI46
aI4
aI0
aI0
aa(lp326
I137
aI195
aa(lp327
I233
aI46
aI1
aI0
aI0
aa(lp328
I72
aI99
aI5
aI80
aI33
aI32
aI0
aa(lp329
I41
aI197
aa(lp330
I131
aI253
aI2
aa(lp331
I116
aI108
aa(lp332
I131
aI253
aI1
aa(lp333
I15
aI133
aI37
aI1
aI0
aI0
aa(lp334
I72
aI139
aI28
aI195
aa(lp335
I72
aI141
aI84
aI36
aI32
aa(lp336
I191
aI1
aI0
aI0
aI0
aa(lp337
I72
aI137
aI222
aa(lp338
I232
aI250
aI252
aI255
aI255
aa(lp339
I133
aI192
aa(lp340
I15
aI133
aI54
aI3
aI0
aI0
aa(lp341
I184
aI0
aI240
aI0
aI0
aa(lp342
I35
aI68
aI36
aI56
aa(lp343
I61
aI0
aI96
aI0
aI0
aa(lp344
I15
aI133
aI72
aI3
aI0
aI0
aa(lp345
I72
aI139
aI68
aI36
aI72
aa(lp346
I137
aI193
aa(lp347
I193
aI233
aI8
aa(lp348
I129
aI225
aI255
aI15
aI0
aI0
aa(lp349
I72
aI137
aI197
aa(lp350
I72
aI193
aI237
aI32
aa(lp351
I129
aI229
aI0
aI240
aI255
aI255
aa(lp352
I72
aI9
aI205
aa(lp353
I15
aI182
aI200
aa(lp354
I72
aI193
aI232
aI12
aa(lp355
I37
aI0
aI255
aI255
aI255
aa(lp356
I72
aI9
aI200
aa(lp357
I235
aI75
aa(lp358
I72
aI139
aI44
aI195
aa(lp359
I49
aI255
aa(lp360
I190
aI150
aI26
aI64
aI0
aa(lp361
I186
aI5
aI0
aI0
aI0
aa(lp362
I232
aI200
aI251
aI255
aI255
aa(lp363
I72
aI137
aI239
aa(lp364
I72
aI137
aI198
aa(lp365
I232
aI45
aI5
aI0
aI0
aa(lp366
I72
aI137
aI197
aa(lp367
I72
aI99
aI5
aI179
aI32
aI32
aI0
aa(lp368
I72
aI139
aI92
aI195
aI8
aa(lp369
I49
aI255
aa(lp370
I190
aI150
aI26
aI64
aI0
aa(lp371
I186
aI5
aI0
aI0
aI0
aa(lp372
I232
aI157
aI251
aI255
aI255
aa(lp373
I72
aI137
aI223
aa(lp374
I72
aI137
aI198
aa(lp375
I232
aI2
aI5
aI0
aI0
aa(lp376
I139
aI13
aI176
aI32
aI32
aI0
aa(lp377
I137
aI76
aI36
aI8
aa(lp378
I72
aI99
aI205
aa(lp379
I72
aI137
aI76
aI36
aI16
aa(lp380
I72
aI152
aa(lp381
I72
aI137
aI68
aI36
aI24
aa(lp382
I139
aI61
aI155
aI32
aI32
aI0
aa(lp383
I49
aI219
aa(lp384
I72
aI141
aI84
aI36
aI8
aa(lp385
I190
aI0
aI172
aI0
aI0
aa(lp386
I49
aI192
aa(lp387
I232
aI208
aI251
aI255
aI255
aa(lp388
I49
aI255
aa(lp389
I133
aI192
aa(lp390
I15
aI136
aI73
aI2
aI0
aI0
aa(lp391
I190
aI226
aI28
aI64
aI0
aa(lp392
I186
aI5
aI0
aI0
aI0
aa(lp393
I232
aI71
aI251
aI255
aI255
aa(lp394
I72
aI137
aI199
aa(lp395
I139
aI21
aI98
aI32
aI32
aI0
aa(lp396
I139
aI76
aI36
aI16
aa(lp397
I68
aI139
aI68
aI36
aI24
aa(lp398
I190
aI97
aI27
aI64
aI0
aa(lp399
I49
aI192
aa(lp400
I232
aI89
aI251
aI255
aI255
aa(lp401
I137
aI216
aa(lp402
I72
aI129
aI196
aI176
aI0
aI0
aI0
aa(lp403
I91
aa(lp404
I65
aI94
aa(lp405
I93
aa(lp406
I195
aasg13
(I4197968
I4199280
tp407
sg14
I2
sg15
g16
ssS'gnu_dev_minor'
p408
(dp409
g7
g8
sg9
(lp410
sg11
(lp411
sg13
(tsg14
I1
sg15
g16
sssS'function_calls'
p412
(dp413
sS'binary_filename'
p414
S'raw'
p415
sS'structures'
p416
(dp417
sS'extern_functions'
p418
(dp419
sS'arch'
p420
S'amd64'
p421
sS'bin_raw_bytes'
p422
g8
s.