(dp0
S'text_addr'
p1
S'0x400db0'
p2
sS'functions'
p3
(dp4
S'flush_standard_stream'
p5
(dp6
S'ret_type'
p7
S''
p8
sS'args_type'
p9
(lp10
sS'inst_bytes'
p11
(lp12
sS'boundaries'
p13
(tsS'num_args'
p14
I1
sS'inst_strings'
p15
(lp16
ssS'close_stdout'
p17
(dp18
g7
g8
sg9
(lp19
sg11
(lp20
(lp21
I65
aI86
aa(lp22
I83
aa(lp23
I80
aa(lp24
I72
aI139
aI29
aI237
aI24
aI32
aI0
aa(lp25
I232
aI192
aI242
aI255
aI255
aa(lp26
I73
aI137
aI198
aa(lp27
I65
aI199
aI6
aI0
aI0
aI0
aI0
aa(lp28
I72
aI137
aI223
aa(lp29
I232
aI238
aI242
aI255
aI255
aa(lp30
I133
aI192
aa(lp31
I15
aI133
aI163
aI0
aI0
aI0
aa(lp32
I72
aI137
aI223
aa(lp33
I232
aI238
aI243
aI255
aI255
aa(lp34
I133
aI192
aa(lp35
I116
aI69
aa(lp36
I65
aI139
aI30
aa(lp37
I131
aI251
aI9
aa(lp38
I116
aI9
aa(lp39
I131
aI251
aI32
aa(lp40
I15
aI133
aI156
aI0
aI0
aI0
aa(lp41
I72
aI139
aI29
aI194
aI24
aI32
aI0
aa(lp42
I65
aI199
aI6
aI0
aI0
aI0
aI0
aa(lp43
I72
aI137
aI223
aa(lp44
I232
aI179
aI242
aI255
aI255
aa(lp45
I133
aI192
aa(lp46
I117
aI98
aa(lp47
I72
aI137
aI223
aa(lp48
I232
aI183
aI243
aI255
aI255
aa(lp49
I133
aI192
aa(lp50
I116
aI50
aa(lp51
I65
aI131
aI62
aI9
aa(lp52
I117
aI80
aa(lp53
I72
aI131
aI196
aI8
aa(lp54
I91
aa(lp55
I65
aI94
aa(lp56
I195
aasg13
(I4200752
I4201037
tp57
sg14
I0
sg15
g16
ssS'get_arch_domain'
p58
(dp59
g7
g8
sg9
(lp60
sg11
(lp61
sg13
(tsg14
I2
sg15
g16
ssS'init_arch_domains'
p62
(dp63
g7
g8
sg9
(lp64
sg11
(lp65
sg13
(tsg14
I0
sg15
g16
ssS'list_arch_domains'
p66
(dp67
g7
g8
sg9
(lp68
sg11
(lp69
sg13
(tsg14
I1
sg15
g16
ssS'close_stdout_atexit'
p70
(dp71
g7
g8
sg9
(lp72
sg11
(lp73
sg13
(tsg14
I0
sg15
g16
ssS'usage'
p74
(dp75
g7
g8
sg9
(lp76
sg11
(lp77
sg13
(tsg14
I1
sg15
g16
ssS'main'
p78
(dp79
g7
g8
sg9
(lp80
sg11
(lp81
(lp82
I85
aa(lp83
I65
aI87
aa(lp84
I65
aI86
aa(lp85
I65
aI85
aa(lp86
I65
aI84
aa(lp87
I83
aa(lp88
I72
aI129
aI236
aI168
aI1
aI0
aI0
aa(lp89
I73
aI137
aI245
aa(lp90
I137
aI253
aa(lp91
I191
aI6
aI0
aI0
aI0
aa(lp92
I190
aI174
aI39
aI64
aI0
aa(lp93
I232
aI155
aI254
aI255
aI255
aa(lp94
I191
aI228
aI33
aI64
aI0
aa(lp95
I190
aI239
aI33
aI64
aI0
aa(lp96
I232
aI140
aI253
aI255
aI255
aa(lp97
I191
aI228
aI33
aI64
aI0
aa(lp98
I232
aI114
aI253
aI255
aI255
aa(lp99
I191
aI48
aI25
aI64
aI0
aa(lp100
I232
aI232
aI11
aI0
aI0
aa(lp101
I133
aI237
aa(lp102
I15
aI142
aI247
aI6
aI0
aI0
aa(lp103
I72
aI139
aI29
aI41
aI35
aI32
aI0
aa(lp104
I190
aI61
aI34
aI64
aI0
aa(lp105
I72
aI137
aI223
aa(lp106
I232
aI12
aI254
aI255
aI255
aa(lp107
I65
aI137
aI198
aa(lp108
I69
aI133
aI246
aa(lp109
I116
aI43
aa(lp110
I190
aI69
aI34
aI64
aI0
aa(lp111
I72
aI137
aI223
aa(lp112
I232
aI247
aI253
aI255
aI255
aa(lp113
I133
aI192
aa(lp114
I117
aI67
aa(lp115
I184
aI174
aI39
aI64
aI0
aa(lp116
I72
aI137
aI68
aI36
aI8
aa(lp117
I184
aI81
aI34
aI64
aI0
aa(lp118
I69
aI49
aI255
aa(lp119
I69
aI49
aI228
aa(lp120
I233
aI204
aI2
aI0
aI0
aa(lp121
I131
aI253
aI2
aa(lp122
I124
aI13
aa(lp123
I73
aI139
aI93
aI8
aa(lp124
I128
aI59
aI45
aa(lp125
I117
aI13
aa(lp126
I49
aI219
aa(lp127
I235
aI23
aa(lp128
I189
aI1
aI0
aI0
aI0
aa(lp129
I49
aI219
aa(lp130
I235
aI14
aa(lp131
I73
aI139
aI69
aI0
aa(lp132
I73
aI137
aI69
aI8
aa(lp133
I77
aI141
aI109
aI8
aa(lp134
I255
aI205
aa(lp135
I69
aI49
aI255
aa(lp136
I49
aI201
aa(lp137
I235
aI22
aa(lp138
I102
aI15
aI31
aI132
aI0
aI0
aI0
aa(lp139
I0
aI0
aa(lp140
I49
aI192
aa(lp141
I72
aI137
aI207
aa(lp142
I232
aI38
aI253
aI255
aI255
aa(lp143
I68
aI137
aI225
aa(lp144
I65
aI137
aI204
aa(lp145
I186
aI91
aI34
aI64
aI0
aa(lp146
I185
aI32
aI31
aI64
aI0
aa(lp147
I69
aI49
aI192
aa(lp148
I137
aI239
aa(lp149
I76
aI137
aI238
aa(lp150
I232
aI233
aI252
aI255
aI255
aa(lp151
I255
aI192
aa(lp152
I61
aI131
aI0
aI0
aI0
aa(lp153
I15
aI135
aI82
aI9
aI0
aI0
aa(lp154
I68
aI137
aI225
aa(lp155
I255
aI36
aI197
aI0
aI27
aI64
aI0
aa(lp156
I73
aI129
aI207
aI0
aI0
aI0
aI8
aa(lp157
I69
aI133
aI228
aa(lp158
I185
aI0
aI0
aI0
aI0
aa(lp159
I116
aI190
aa(lp160
I49
aI255
aa(lp161
I190
aI106
aI34
aI64
aI0
aa(lp162
I186
aI5
aI0
aI0
aI0
aa(lp163
I232
aI160
aI252
aI255
aI255
aa(lp164
I72
aI137
aI193
aa(lp165
I190
aI12
aI35
aI64
aI0
aa(lp166
I235
aI150
aa(lp167
I73
aI129
aI207
aI0
aI0
aI128
aI0
aa(lp168
I69
aI133
aI228
aa(lp169
I185
aI0
aI0
aI0
aI0
aa(lp170
I116
aI146
aa(lp171
I49
aI255
aa(lp172
I190
aI106
aI34
aI64
aI0
aa(lp173
I186
aI5
aI0
aI0
aI0
aa(lp174
I232
aI116
aI252
aI255
aI255
aa(lp175
I72
aI137
aI193
aa(lp176
I190
aI209
aI34
aI64
aI0
aa(lp177
I233
aI103
aI255
aI255
aI255
aa(lp178
I73
aI129
aI207
aI0
aI0
aI8
aI0
aa(lp179
I69
aI133
aI228
aa(lp180
I185
aI0
aI0
aI0
aI0
aa(lp181
I15
aI132
aI95
aI255
aI255
aI255
aa(lp182
I49
aI255
aa(lp183
I190
aI106
aI34
aI64
aI0
aa(lp184
I186
aI5
aI0
aI0
aI0
aa(lp185
I232
aI65
aI252
aI255
aI255
aa(lp186
I72
aI137
aI193
aa(lp187
I190
aI142
aI34
aI64
aI0
aa(lp188
I233
aI52
aI255
aI255
aI255
aa(lp189
I73
aI129
aI207
aI0
aI0
aI0
aI1
aa(lp190
I69
aI133
aI228
aa(lp191
I185
aI0
aI0
aI0
aI0
aa(lp192
I15
aI132
aI44
aI255
aI255
aI255
aa(lp193
I49
aI255
aa(lp194
I190
aI106
aI34
aI64
aI0
aa(lp195
I186
aI5
aI0
aI0
aI0
aa(lp196
I232
aI14
aI252
aI255
aI255
aa(lp197
I72
aI137
aI193
aa(lp198
I190
aI226
aI34
aI64
aI0
aa(lp199
I233
aI1
aI255
aI255
aI255
aa(lp200
I73
aI129
aI207
aI0
aI0
aI32
aI0
aa(lp201
I69
aI133
aI228
aa(lp202
I185
aI0
aI0
aI0
aI0
aa(lp203
I15
aI132
aI249
aI254
aI255
aI255
aa(lp204
I49
aI255
aa(lp205
I190
aI106
aI34
aI64
aI0
aa(lp206
I186
aI5
aI0
aI0
aI0
aa(lp207
I232
aI219
aI251
aI255
aI255
aa(lp208
I72
aI137
aI193
aa(lp209
I190
aI172
aI34
aI64
aI0
aa(lp210
I233
aI206
aI254
aI255
aI255
aa(lp211
I73
aI129
aI207
aI0
aI0
aI4
aI0
aa(lp212
I69
aI133
aI228
aa(lp213
I185
aI0
aI0
aI0
aI0
aa(lp214
I15
aI132
aI198
aI254
aI255
aI255
aa(lp215
I49
aI255
aa(lp216
I190
aI106
aI34
aI64
aI0
aa(lp217
I186
aI5
aI0
aI0
aI0
aa(lp218
I232
aI168
aI251
aI255
aI255
aa(lp219
I72
aI137
aI193
aa(lp220
I190
aI124
aI34
aI64
aI0
aa(lp221
I233
aI155
aI254
aI255
aI255
aa(lp222
I73
aI129
aI207
aI0
aI0
aI0
aI2
aa(lp223
I69
aI133
aI228
aa(lp224
I185
aI0
aI0
aI0
aI0
aa(lp225
I15
aI132
aI147
aI254
aI255
aI255
aa(lp226
I49
aI255
aa(lp227
I190
aI106
aI34
aI64
aI0
aa(lp228
I186
aI5
aI0
aI0
aI0
aa(lp229
I232
aI117
aI251
aI255
aI255
aa(lp230
I72
aI137
aI193
aa(lp231
I190
aI238
aI34
aI64
aI0
aa(lp232
I233
aI104
aI254
aI255
aI255
aa(lp233
I73
aI129
aI207
aI0
aI0
aI0
aI4
aa(lp234
I69
aI133
aI228
aa(lp235
I185
aI0
aI0
aI0
aI0
aa(lp236
I15
aI132
aI96
aI254
aI255
aI255
aa(lp237
I49
aI255
aa(lp238
I190
aI106
aI34
aI64
aI0
aa(lp239
I186
aI5
aI0
aI0
aI0
aa(lp240
I232
aI66
aI251
aI255
aI255
aa(lp241
I72
aI137
aI193
aa(lp242
I190
aI252
aI34
aI64
aI0
aa(lp243
I233
aI53
aI254
aI255
aI255
aa(lp244
I73
aI129
aI207
aI0
aI0
aI64
aI0
aa(lp245
I69
aI133
aI228
aa(lp246
I185
aI0
aI0
aI0
aI0
aa(lp247
I15
aI132
aI45
aI254
aI255
aI255
aa(lp248
I49
aI255
aa(lp249
I190
aI106
aI34
aI64
aI0
aa(lp250
I186
aI5
aI0
aI0
aI0
aa(lp251
I232
aI15
aI251
aI255
aI255
aa(lp252
I72
aI137
aI193
aa(lp253
I190
aI191
aI34
aI64
aI0
aa(lp254
I233
aI2
aI254
aI255
aI255
aa(lp255
I73
aI129
aI207
aI0
aI0
aI16
aI0
aa(lp256
I69
aI133
aI228
aa(lp257
I185
aI0
aI0
aI0
aI0
aa(lp258
I15
aI132
aI250
aI253
aI255
aI255
aa(lp259
I49
aI255
aa(lp260
I190
aI106
aI34
aI64
aI0
aa(lp261
I186
aI5
aI0
aI0
aI0
aa(lp262
I232
aI220
aI250
aI255
aI255
aa(lp263
I72
aI137
aI193
aa(lp264
I190
aI157
aI34
aI64
aI0
aa(lp265
I233
aI207
aI253
aI255
aI255
aa(lp266
I185
aI1
aI0
aI0
aI0
aa(lp267
I233
aI210
aI253
aI255
aI255
aa(lp268
I73
aI129
aI207
aI0
aI0
aI2
aI0
aa(lp269
I69
aI133
aI228
aa(lp270
I185
aI0
aI0
aI0
aI0
aa(lp271
I15
aI132
aI189
aI253
aI255
aI255
aa(lp272
I49
aI255
aa(lp273
I190
aI106
aI34
aI64
aI0
aa(lp274
I186
aI5
aI0
aI0
aI0
aa(lp275
I232
aI159
aI250
aI255
aI255
aa(lp276
I72
aI137
aI193
aa(lp277
I190
aI27
aI35
aI64
aI0
aa(lp278
I233
aI146
aI253
aI255
aI255
aa(lp279
I77
aI133
aI255
aa(lp280
I117
aI9
aa(lp281
I72
aI133
aI219
aa(lp282
I15
aI132
aI201
aI6
aI0
aI0
aa(lp283
I72
aI99
aI5
aI61
aI32
aI32
aI0
aa(lp284
I41
aI197
aa(lp285
I77
aI141
aI108
aI197
aI0
aa(lp286
I49
aI192
aa(lp287
I49
aI201
aa(lp288
I72
aI137
aI76
aI36
aI8
aa(lp289
I72
aI133
aI219
aa(lp290
I76
aI137
aI108
aI36
aI24
aa(lp291
I137
aI108
aI36
aI4
aa(lp292
I72
aI137
aI68
aI36
aI16
aa(lp293
I15
aI132
aI145
aI6
aI0
aI0
aa(lp294
I191
aI73
aI50
aI96
aI0
aa(lp295
I232
aI156
aI250
aI255
aI255
aa(lp296
I139
aI45
aI230
aI30
aI32
aI0
aa(lp297
I65
aI190
aI16
aI49
aI96
aI0
aa(lp298
I69
aI49
aI237
aa(lp299
I133
aI237
aa(lp300
I120
aI41
aa(lp301
I102
aI15
aI31
aI132
aI0
aI0
aI0
aa(lp302
I0
aI0
aa(lp303
I73
aI139
aI118
aI8
aa(lp304
I191
aI77
aI51
aI96
aI0
aa(lp305
I232
aI194
aI250
aI255
aI255
aa(lp306
I133
aI192
aa(lp307
I116
aI56
aa(lp308
I73
aI255
aI197
aa(lp309
I65
aI131
aI126
aI24
aI0
aa(lp310
I77
aI141
aI118
aI24
aa(lp311
I121
aI224
aa(lp312
I65
aI199
aI6
aI0
aI0
aI0
aI0
aa(lp313
I75
aI141
aI68
aI109
aI0
aa(lp314
I185
aI77
aI51
aI96
aI0
aa(lp315
I102
aI72
aI15
aI110
aI193
aa(lp316
I102
aI15
aI112
aI192
aI68
aa(lp317
I243
aI15
aI127
aI4
aI197
aI24
aI49
aa(lp318
I96
aI0
aa(lp319
I139
aI45
aI134
aI30
aI32
aI0
aa(lp320
I65
aI189
aI16
aI49
aI96
aI0
aa(lp321
I133
aI237
aa(lp322
I121
aI24
aa(lp323
I235
aI38
aa(lp324
I102
aI46
aI15
aI31
aI132
aI0
aI0
aa(lp325
I0
aI0
aI0
aa(lp326
I65
aI139
aI109
aI24
aa(lp327
I73
aI131
aI197
aI24
aa(lp328
I133
aI237
aa(lp329
I120
aI16
aa(lp330
I73
aI139
aI117
aI8
aa(lp331
I72
aI137
aI223
aa(lp332
I232
aI88
aI250
aI255
aI255
aa(lp333
I133
aI192
aa(lp334
I117
aI228
aa(lp335
I69
aI49
aI246
aa(lp336
I133
aI237
aa(lp337
I77
aI15
aI73
aI245
aa(lp338
I77
aI133
aI246
aa(lp339
I117
aI126
aa(lp340
I49
aI255
aa(lp341
I190
aI158
aI35
aI64
aI0
aa(lp342
I186
aI5
aI0
aI0
aI0
aa(lp343
I232
aI149
aI249
aI255
aI255
aa(lp344
I72
aI137
aI193
aa(lp345
I191
aI1
aI0
aI0
aI0
aa(lp346
I49
aI192
aa(lp347
I72
aI137
aI206
aa(lp348
I72
aI137
aI218
aa(lp349
I232
aI160
aI249
aI255
aI255
aa(lp350
I69
aI133
aI246
aa(lp351
I15
aI133
aI223
aI5
aI0
aI0
aa(lp352
I191
aI73
aI50
aI96
aI0
aa(lp353
I232
aI189
aI249
aI255
aI255
aa(lp354
I131
aI61
aI6
aI30
aI32
aI0
aI0
aa(lp355
I15
aI136
aI91
aI1
aI0
aI0
aa(lp356
I187
aI16
aI49
aI96
aI0
aa(lp357
I49
aI237
aa(lp358
I102
aI15
aI31
aI132
aI0
aI0
aI0
aa(lp359
I0
aI0
aa(lp360
I72
aI139
aI115
aI8
aa(lp361
I191
aI77
aI51
aI96
aI0
aa(lp362
I232
aI226
aI249
aI255
aI255
aa(lp363
I133
aI192
aa(lp364
I15
aI132
aI95
aI1
aI0
aI0
aa(lp365
I72
aI255
aI197
aa(lp366
I131
aI123
aI24
aI0
aa(lp367
I72
aI141
aI91
aI24
aa(lp368
I121
aI221
aa(lp369
I233
aI42
aI1
aI0
aI0
aa(lp370
I73
aI99
aI46
aa(lp371
I76
aI9
aI253
aa(lp372
I72
aI137
aI239
aa(lp373
I232
aI154
aI248
aI255
aI255
aa(lp374
I133
aI192
aa(lp375
I68
aI139
aI124
aI36
aI4
aa(lp376
I121
aI50
aa(lp377
I72
aI137
aI239
aa(lp378
I232
aI137
aI248
aI255
aI255
aa(lp379
I133
aI192
aa(lp380
I121
aI38
aa(lp381
I49
aI255
aa(lp382
I190
aI188
aI35
aI64
aI0
aa(lp383
I186
aI5
aI0
aI0
aI0
aa(lp384
I232
aI244
aI248
aI255
aI255
aa(lp385
I72
aI137
aI193
aa(lp386
I191
aI1
aI0
aI0
aI0
aa(lp387
I49
aI192
aa(lp388
I72
aI137
aI206
aa(lp389
I72
aI137
aI218
aa(lp390
I232
aI175
aI249
aI255
aI255
aa(lp391
I72
aI133
aI219
aa(lp392
I116
aI53
aa(lp393
I77
aI133
aI246
aa(lp394
I116
aI48
aa(lp395
I73
aI131
aI126
aI16
aI0
aa(lp396
I116
aI41
aa(lp397
I72
aI141
aI124
aI36
aI32
aa(lp398
I232
aI20
aI249
aI255
aI255
aa(lp399
I76
aI141
aI172
aI36
aI36
aI1
aI0
aI0
aa(lp400
I73
aI139
aI110
aI16
aa(lp401
I76
aI137
aI239
aa(lp402
I72
aI137
aI238
aa(lp403
I232
aI77
aI249
aI255
aI255
aa(lp404
I133
aI192
aa(lp405
I15
aI133
aI76
aI1
aI0
aI0
aa(lp406
I69
aI133
aI255
aa(lp407
I184
aI220
aI35
aI64
aI0
aa(lp408
I72
aI139
aI108
aI36
aI16
aa(lp409
I72
aI15
aI68
aI232
aa(lp410
I184
aI228
aI35
aI64
aI0
aa(lp411
I72
aI139
aI92
aI36
aI8
aa(lp412
I72
aI15
aI68
aI216
aa(lp413
I69
aI133
aI228
aa(lp414
I76
aI139
aI116
aI36
aI24
aa(lp415
I116
aI48
aa(lp416
I49
aI255
aa(lp417
I190
aI232
aI35
aI64
aI0
aa(lp418
I186
aI5
aI0
aI0
aI0
aa(lp419
I232
aI107
aI248
aI255
aI255
aa(lp420
I72
aI137
aI193
aa(lp421
I72
aI133
aI237
aa(lp422
I72
aI137
aI238
aa(lp423
I117
aI3
aa(lp424
I73
aI139
aI54
aa(lp425
I49
aI192
aa(lp426
I72
aI137
aI207
aa(lp427
I232
aI131
aI248
aI255
aI255
aa(lp428
I49
aI255
aa(lp429
I232
aI44
aI249
aI255
aI255
aa(lp430
I72
aI133
aI237
aa(lp431
I15
aI133
aI168
aI0
aI0
aI0
aa(lp432
I73
aI139
aI62
aa(lp433
I76
aI137
aI246
aa(lp434
I232
aI56
aI249
aI255
aI255
aa(lp435
I232
aI195
aI247
aI255
aI255
aa(lp436
I49
aI219
aa(lp437
I131
aI56
aI2
aa(lp438
I15
aI148
aI195
aa(lp439
I131
aI203
aI126
aa(lp440
I49
aI255
aa(lp441
I190
aI255
aI35
aI64
aI0
aa(lp442
I186
aI5
aI0
aI0
aI0
aa(lp443
I232
aI23
aI248
aI255
aI255
aa(lp444
I72
aI137
aI193
aa(lp445
I73
aI139
aI22
aa(lp446
I49
aI192
aa(lp447
I137
aI223
aa(lp448
I72
aI137
aI206
aa(lp449
I232
aI213
aI248
aI255
aI255
aa(lp450
I187
aI16
aI49
aI96
aI0
aa(lp451
I49
aI237
aa(lp452
I199
aI3
aI0
aI0
aI0
aI0
aa(lp453
I72
aI141
aI68
aI109
aI0
aa(lp454
I185
aI77
aI51
aI96
aI0
aa(lp455
I102
aI72
aI15
aI110
aI193
aa(lp456
I102
aI15
aI112
aI192
aI68
aa(lp457
I243
aI15
aI127
aI4
aI197
aI24
aI49
aa(lp458
I96
aI0
aa(lp459
I72
aI139
aI61
aI124
aI28
aI32
aI0
aa(lp460
I72
aI133
aI255
aa(lp461
I116
aI32
aa(lp462
I187
aI48
aI49
aI96
aI0
aa(lp463
I102
aI46
aI15
aI31
aI132
aI0
aI0
aa(lp464
I0
aI0
aI0
aa(lp465
I232
aI123
aI247
aI255
aI255
aa(lp466
I72
aI139
aI59
aa(lp467
I72
aI131
aI195
aI24
aa(lp468
I72
aI133
aI255
aa(lp469
I117
aI239
aa(lp470
I49
aI192
aa(lp471
I72
aI129
aI196
aI168
aI1
aI0
aI0
aa(lp472
I91
aa(lp473
I65
aI92
aa(lp474
I65
aI93
aa(lp475
I65
aI94
aa(lp476
I65
aI95
aa(lp477
I93
aa(lp478
I195
aasg13
(I4198048
I4200751
tp479
sg14
I2
sg15
g16
ssS'verify_arch_domain'
p480
(dp481
g7
g8
sg9
(lp482
sg11
(lp483
sg13
(tsg14
I2
sg15
g16
sssS'function_calls'
p484
(dp485
sS'binary_filename'
p486
S'setarch'
p487
sS'structures'
p488
(dp489
sS'extern_functions'
p490
(dp491
sS'arch'
p492
S'amd64'
p493
sS'bin_raw_bytes'
p494
g8
s.