(dp0
S'text_addr'
p1
S'0x400db0'
p2
sS'functions'
p3
(dp4
S'usage'
p5
(dp6
S'ret_type'
p7
S''
p8
sS'args_type'
p9
(lp10
sS'inst_bytes'
p11
(lp12
sS'boundaries'
p13
(tsS'num_args'
p14
I0
sS'inst_strings'
p15
(lp16
ssS'flush_standard_stream'
p17
(dp18
g7
g8
sg9
(lp19
sg11
(lp20
sg13
(tsg14
I1
sg15
g16
ssS'close_stdout'
p21
(dp22
g7
g8
sg9
(lp23
sg11
(lp24
(lp25
I65
aI86
aa(lp26
I83
aa(lp27
I80
aa(lp28
I72
aI139
aI29
aI141
aI14
aI32
aI0
aa(lp29
I232
aI80
aI249
aI255
aI255
aa(lp30
I73
aI137
aI198
aa(lp31
I65
aI199
aI6
aI0
aI0
aI0
aI0
aa(lp32
I72
aI137
aI223
aa(lp33
I232
aI110
aI249
aI255
aI255
aa(lp34
I133
aI192
aa(lp35
I15
aI133
aI163
aI0
aI0
aI0
aa(lp36
I72
aI137
aI223
aa(lp37
I232
aI110
aI250
aI255
aI255
aa(lp38
I133
aI192
aa(lp39
I116
aI69
aa(lp40
I65
aI139
aI30
aa(lp41
I131
aI251
aI9
aa(lp42
I116
aI9
aa(lp43
I131
aI251
aI32
aa(lp44
I15
aI133
aI156
aI0
aI0
aI0
aa(lp45
I72
aI139
aI29
aI98
aI14
aI32
aI0
aa(lp46
I65
aI199
aI6
aI0
aI0
aI0
aI0
aa(lp47
I72
aI137
aI223
aa(lp48
I232
aI51
aI249
aI255
aI255
aa(lp49
I133
aI192
aa(lp50
I117
aI98
aa(lp51
I72
aI137
aI223
aa(lp52
I232
aI55
aI250
aI255
aI255
aa(lp53
I133
aI192
aa(lp54
I116
aI50
aa(lp55
I65
aI131
aI62
aI9
aa(lp56
I117
aI80
aa(lp57
I72
aI131
aI196
aI8
aa(lp58
I91
aa(lp59
I65
aI94
aa(lp60
I195
aasg13
(I4199056
I4199341
tp61
sg14
I0
sg15
g16
ssS'main'
p62
(dp63
g7
g8
sg9
(lp64
sg11
(lp65
(lp66
I85
aa(lp67
I65
aI87
aa(lp68
I65
aI86
aa(lp69
I65
aI84
aa(lp70
I83
aa(lp71
I72
aI131
aI236
aI16
aa(lp72
I73
aI137
aI247
aa(lp73
I137
aI253
aa(lp74
I199
aI68
aI36
aI12
aI0
aI0
aI0
aI0
aa(lp75
I191
aI6
aI0
aI0
aI0
aa(lp76
I190
aI140
aI23
aI64
aI0
aa(lp77
I232
aI120
aI254
aI255
aI255
aa(lp78
I191
aI63
aI22
aI64
aI0
aa(lp79
I190
aI74
aI22
aI64
aI0
aa(lp80
I232
aI121
aI253
aI255
aI255
aa(lp81
I191
aI63
aI22
aI64
aI0
aa(lp82
I232
aI95
aI253
aI255
aI255
aa(lp83
I191
aI144
aI18
aI64
aI0
aa(lp84
I232
aI69
aI5
aI0
aI0
aa(lp85
I49
aI219
aa(lp86
I69
aI49
aI228
aa(lp87
I69
aI49
aI246
aa(lp88
I235
aI32
aa(lp89
I102
aI102
aI46
aI15
aI31
aI132
aI0
aa(lp90
I0
aI0
aI0
aI0
aa(lp91
I65
aI190
aI1
aI0
aI0
aI0
aa(lp92
I235
aI13
aa(lp93
I15
aI31
aI132
aI0
aI0
aI0
aI0
aI0
aa(lp94
I187
aI1
aI0
aI0
aI0
aa(lp95
I186
aI92
aI22
aI64
aI0
aa(lp96
I185
aI112
aI21
aI64
aI0
aa(lp97
I69
aI49
aI192
aa(lp98
I137
aI239
aa(lp99
I76
aI137
aI254
aa(lp100
I232
aI68
aI253
aI255
aI255
aa(lp101
I141
aI72
aI170
aa(lp102
I131
aI249
aI33
aa(lp103
I119
aI23
aa(lp104
I255
aI36
aI205
aI96
aI20
aI64
aI0
aa(lp105
I199
aI68
aI36
aI12
aI1
aI0
aI0
aI0
aa(lp106
I65
aI188
aI1
aI0
aI0
aI0
aa(lp107
I235
aI202
aa(lp108
I131
aI248
aI255
aa(lp109
I15
aI133
aI21
aI2
aI0
aI0
aa(lp110
I57
aI45
aI214
aI17
aI32
aI0
aa(lp111
I15
aI141
aI235
aI1
aI0
aI0
aa(lp112
I133
aI219
aa(lp113
I117
aI20
aa(lp114
I232
aI231
aI253
aI255
aI255
aa(lp115
I137
aI197
aa(lp116
I232
aI192
aI252
aI255
aI255
aa(lp117
I57
aI197
aa(lp118
I15
aI133
aI42
aI2
aI0
aI0
aa(lp119
I232
aI35
aI254
aI255
aI255
aa(lp120
I137
aI197
aa(lp121
I133
aI237
aa(lp122
I15
aI132
aI27
aI2
aI0
aI0
aa(lp123
I131
aI253
aI255
aa(lp124
I15
aI132
aI87
aI2
aI0
aI0
aa(lp125
I69
aI133
aI228
aa(lp126
I116
aI36
aa(lp127
I72
aI141
aI124
aI36
aI12
aa(lp128
I232
aI241
aI253
aI255
aI255
aa(lp129
I57
aI232
aa(lp130
I15
aI133
aI13
aI2
aI0
aI0
aa(lp131
I139
aI92
aI36
aI12
aa(lp132
I246
aI195
aI127
aa(lp133
I15
aI133
aI17
aI2
aI0
aI0
aa(lp134
I15
aI182
aI199
aa(lp135
I235
aI2
aa(lp136
I49
aI192
aa(lp137
I72
aI131
aI196
aI16
aa(lp138
I91
aa(lp139
I65
aI92
aa(lp140
I65
aI94
aa(lp141
I65
aI95
aa(lp142
I93
aa(lp143
I195
aasg13
(I4198048
I4199042
tp144
sg14
I2
sg15
g16
ssS'close_stdout_atexit'
p145
(dp146
g7
g8
sg9
(lp147
sg11
(lp148
sg13
(tsg14
I0
sg15
g16
sssS'function_calls'
p149
(dp150
sS'binary_filename'
p151
S'setsid'
p152
sS'structures'
p153
(dp154
sS'extern_functions'
p155
(dp156
sS'arch'
p157
S'amd64'
p158
sS'bin_raw_bytes'
p159
g8
s.