(dp0
S'text_addr'
p1
S'0x401050'
p2
sS'functions'
p3
(dp4
S'flush_standard_stream'
p5
(dp6
S'ret_type'
p7
S''
p8
sS'args_type'
p9
(lp10
sS'inst_bytes'
p11
(lp12
sS'boundaries'
p13
(tsS'num_args'
p14
I1
sS'inst_strings'
p15
(lp16
ssS'rubchars'
p17
(dp18
g7
g8
sg9
(lp19
sg11
(lp20
sg13
(tsg14
I3
sg15
g16
ssS'trim_trailing_spaces'
p21
(dp22
g7
g8
sg9
(lp23
sg11
(lp24
sg13
(tsg14
I1
sg15
g16
ssS'close_stdout'
p25
(dp26
g7
g8
sg9
(lp27
sg11
(lp28
(lp29
I65
aI86
aa(lp30
I83
aa(lp31
I80
aa(lp32
I72
aI139
aI29
aI45
aI25
aI32
aI0
aa(lp33
I232
aI0
aI246
aI255
aI255
aa(lp34
I73
aI137
aI198
aa(lp35
I65
aI199
aI6
aI0
aI0
aI0
aI0
aa(lp36
I72
aI137
aI223
aa(lp37
I232
aI30
aI246
aI255
aI255
aa(lp38
I133
aI192
aa(lp39
I15
aI133
aI163
aI0
aI0
aI0
aa(lp40
I72
aI137
aI223
aa(lp41
I232
aI110
aI247
aI255
aI255
aa(lp42
I133
aI192
aa(lp43
I116
aI69
aa(lp44
I65
aI139
aI30
aa(lp45
I131
aI251
aI9
aa(lp46
I116
aI9
aa(lp47
I131
aI251
aI32
aa(lp48
I15
aI133
aI156
aI0
aI0
aI0
aa(lp49
I72
aI139
aI29
aI2
aI25
aI32
aI0
aa(lp50
I65
aI199
aI6
aI0
aI0
aI0
aI0
aa(lp51
I72
aI137
aI223
aa(lp52
I232
aI227
aI245
aI255
aI255
aa(lp53
I133
aI192
aa(lp54
I117
aI98
aa(lp55
I72
aI137
aI223
aa(lp56
I232
aI55
aI247
aI255
aI255
aa(lp57
I133
aI192
aa(lp58
I116
aI50
aa(lp59
I65
aI131
aI62
aI9
aa(lp60
I117
aI80
aa(lp61
I72
aI131
aI196
aI8
aa(lp62
I91
aa(lp63
I65
aI94
aa(lp64
I195
aasg13
(I4200464
I4200749
tp65
sg14
I0
sg15
g16
ssS'output_lines'
p66
(dp67
g7
g8
sg9
(lp68
sg11
(lp69
(lp70
I85
aa(lp71
I65
aI87
aa(lp72
I65
aI86
aa(lp73
I83
aa(lp74
I80
aa(lp75
I65
aI137
aI246
aa(lp76
I73
aI137
aI255
aa(lp77
I73
aI141
aI111
aI8
aa(lp78
I72
aI137
aI239
aa(lp79
I232
aI135
aI245
aI255
aI255
aa(lp80
I72
aI133
aI192
aa(lp81
I116
aI48
aa(lp82
I73
aI141
aI76
aI135
aI4
aa(lp83
I102
aI102
aI102
aI102
aI46
aI15
aI31
aa(lp84
I132
aI0
aI0
aI0
aI0
aI0
aa(lp85
I72
aI137
aI203
aa(lp86
I72
aI57
aI235
aa(lp87
I114
aI15
aa(lp88
I139
aI59
aa(lp89
I232
aI129
aI246
aI255
aI255
aa(lp90
I72
aI141
aI75
aI252
aa(lp91
I133
aI192
aa(lp92
I117
aI233
aa(lp93
I199
aI67
aI4
aI0
aI0
aI0
aI0
aa(lp94
I72
aI139
aI53
aI195
aI23
aI32
aI0
aa(lp95
I72
aI137
aI239
aa(lp96
I232
aI3
aI246
aI255
aI255
aa(lp97
I65
aI138
aI135
aI48
aI4
aI0
aI0
aa(lp98
I137
aI193
aa(lp99
I128
aI241
aI254
aa(lp100
I132
aI193
aa(lp101
I116
aI24
aa(lp102
I72
aI139
aI53
aI164
aI23
aI32
aI0
aa(lp103
I191
aI10
aI0
aI0
aI0
aa(lp104
I232
aI66
aI245
aI255
aI255
aa(lp105
I65
aI138
aI135
aI48
aI4
aI0
aI0
aa(lp106
I137
aI193
aa(lp107
I128
aI241
aI243
aa(lp108
I132
aI193
aa(lp109
I117
aI14
aa(lp110
I137
aI193
aa(lp111
I128
aI241
aI1
aa(lp112
I32
aI193
aa(lp113
I65
aI136
aI143
aI48
aI4
aI0
aI0
aa(lp114
I49
aI246
aa(lp115
I186
aI132
aI0
aI0
aI0
aa(lp116
I72
aI137
aI239
aa(lp117
I232
aI85
aI245
aI255
aI255
aa(lp118
I65
aI138
aI135
aI48
aI4
aI0
aI0
aa(lp119
I137
aI193
aa(lp120
I128
aI241
aI253
aa(lp121
I132
aI193
aa(lp122
I15
aI132
aI155
aI0
aI0
aI0
aa(lp123
I137
aI193
aa(lp124
I128
aI241
aI2
aa(lp125
I32
aI193
aa(lp126
I65
aI136
aI143
aI48
aI4
aI0
aI0
aa(lp127
I73
aI99
aI198
aa(lp128
I73
aI141
aI175
aI28
aI2
aI0
aI0
aa(lp129
I65
aI199
aI132
aI135
aI28
aI2
aI0
aa(lp130
I0
aI0
aI0
aI0
aI0
aa(lp131
I72
aI137
aI239
aa(lp132
I232
aI181
aI244
aI255
aI255
aa(lp133
I72
aI133
aI192
aa(lp134
I116
aI46
aa(lp135
I73
aI141
aI140
aI135
aI24
aI2
aI0
aI0
aa(lp136
I15
aI31
aI132
aI0
aI0
aI0
aI0
aI0
aa(lp137
I72
aI137
aI203
aa(lp138
I72
aI57
aI235
aa(lp139
I114
aI15
aa(lp140
I139
aI59
aa(lp141
I232
aI177
aI245
aI255
aI255
aa(lp142
I72
aI141
aI75
aI252
aa(lp143
I133
aI192
aa(lp144
I117
aI233
aa(lp145
I199
aI67
aI4
aI0
aI0
aI0
aI0
aa(lp146
I72
aI139
aI53
aI243
aI22
aI32
aI0
aa(lp147
I72
aI137
aI239
aa(lp148
I232
aI51
aI245
aI255
aI255
aa(lp149
I72
aI139
aI53
aI228
aI22
aI32
aI0
aa(lp150
I191
aI10
aI0
aI0
aI0
aa(lp151
I232
aI130
aI244
aI255
aI255
aa(lp152
I190
aI32
aI0
aI0
aI0
aa(lp153
I186
aI132
aI0
aI0
aI0
aa(lp154
I72
aI137
aI239
aa(lp155
I72
aI131
aI196
aI8
aa(lp156
I91
aa(lp157
I65
aI94
aa(lp158
I65
aI95
aa(lp159
I93
aa(lp160
I233
aI166
aI244
aI255
aI255
aa(lp161
I137
aI193
aa(lp162
I128
aI241
aI247
aa(lp163
I132
aI193
aa(lp164
I15
aI149
aI192
aa(lp165
I69
aI133
aI246
aa(lp166
I15
aI159
aI193
aa(lp167
I48
aI193
aa(lp168
I117
aI32
aa(lp169
I69
aI133
aI246
aa(lp170
I126
aI27
aa(lp171
I72
aI139
aI53
aI158
aI22
aI32
aI0
aa(lp172
I191
aI10
aI0
aI0
aI0
aa(lp173
I72
aI131
aI196
aI8
aa(lp174
I91
aa(lp175
I65
aI94
aa(lp176
I65
aI95
aa(lp177
I93
aa(lp178
I233
aI50
aI244
aI255
aI255
aa(lp179
I72
aI131
aI196
aI8
aa(lp180
I91
aa(lp181
I65
aI94
aa(lp182
I65
aI95
aa(lp183
I93
aa(lp184
I195
aasg13
(I4200752
I4201161
tp185
sg14
I2
sg15
g16
ssS'close_stdout_atexit'
p186
(dp187
g7
g8
sg9
(lp188
sg11
(lp189
sg13
(tsg14
I0
sg15
g16
ssS'usage'
p190
(dp191
g7
g8
sg9
(lp192
sg11
(lp193
sg13
(tsg14
I0
sg15
g16
ssS'colcrt'
p194
(dp195
g7
g8
sg9
(lp196
sg11
(lp197
sg13
(tsg14
I1
sg15
g16
ssS'main'
p198
(dp199
g7
g8
sg9
(lp200
sg11
(lp201
(lp202
I85
aa(lp203
I65
aI87
aa(lp204
I65
aI86
aa(lp205
I65
aI85
aa(lp206
I65
aI84
aa(lp207
I83
aa(lp208
I72
aI129
aI236
aI56
aI4
aI0
aI0
aa(lp209
I73
aI137
aI246
aa(lp210
I65
aI137
aI253
aa(lp211
I72
aI137
aI231
aa(lp212
I49
aI219
aa(lp213
I49
aI246
aa(lp214
I186
aI56
aI4
aI0
aI0
aa(lp215
I232
aI168
aI253
aI255
aI255
aa(lp216
I191
aI6
aI0
aI0
aI0
aa(lp217
I190
aI255
aI29
aI64
aI0
aa(lp218
I232
aI105
aI254
aI255
aI255
aa(lp219
I191
aI42
aI29
aI64
aI0
aa(lp220
I190
aI53
aI29
aI64
aI0
aa(lp221
I232
aI250
aI252
aI255
aI255
aa(lp222
I191
aI42
aI29
aI64
aI0
aa(lp223
I232
aI208
aI252
aI255
aI255
aa(lp224
I191
aI16
aI24
aI64
aI0
aa(lp225
I232
aI182
aI9
aI0
aI0
aa(lp226
I69
aI49
aI255
aa(lp227
I69
aI133
aI237
aa(lp228
I15
aI142
aI160
aI0
aI0
aI0
aa(lp229
I102
aI46
aI15
aI31
aI132
aI0
aI0
aa(lp230
I0
aI0
aI0
aa(lp231
I72
aI99
aI235
aa(lp232
I73
aI139
aI4
aI238
aa(lp233
I128
aI56
aI45
aa(lp234
I117
aI68
aa(lp235
I128
aI120
aI1
aI0
aa(lp236
I117
aI62
aa(lp237
I73
aI141
aI60
aI238
aa(lp238
I68
aI137
aI248
aa(lp239
I36
aI4
aa(lp240
I65
aI128
aI247
aI4
aa(lp241
I65
aI8
aI199
aa(lp242
I68
aI136
aI188
aI36
aI48
aI4
aI0
aI0
aa(lp243
I65
aI255
aI205
aa(lp244
I68
aI137
aI232
aa(lp245
I41
aI232
aa(lp246
I72
aI99
aI208
aa(lp247
I72
aI193
aI226
aI3
aa(lp248
I72
aI141
aI119
aI8
aa(lp249
I232
aI14
aI254
aI255
aI255
aa(lp250
I255
aI205
aa(lp251
I137
aI235
aa(lp252
I102
aI46
aI15
aI31
aI132
aI0
aI0
aa(lp253
I0
aI0
aI0
aa(lp254
I255
aI195
aa(lp255
I68
aI57
aI235
aa(lp256
I124
aI169
aa(lp257
I235
aI61
aa(lp258
I15
aI31
aI128
aI0
aI0
aI0
aI0
aa(lp259
I65
aI246
aI215
aa(lp260
I246
aI208
aa(lp261
I68
aI8
aI248
aa(lp262
I137
aI194
aa(lp263
I246
aI210
aa(lp264
I137
aI217
aa(lp265
I246
aI209
aa(lp266
I137
aI198
aa(lp267
I64
aI128
aI230
aI85
aa(lp268
I128
aI226
aI170
aa(lp269
I8
aI200
aa(lp270
I128
aI225
aI85
aa(lp271
I128
aI227
aI170
aa(lp272
I64
aI8
aI242
aa(lp273
I8
aI203
aa(lp274
I48
aI211
aa(lp275
I246
aI208
aa(lp276
I8
aI216
aa(lp277
I136
aI132
aI36
aI48
aI4
aI0
aI0
aa(lp278
I65
aI136
aI199
aa(lp279
I186
aI71
aI29
aI64
aI0
aa(lp280
I185
aI112
aI28
aI64
aI0
aa(lp281
I69
aI49
aI192
aa(lp282
I68
aI137
aI239
aa(lp283
I76
aI137
aI246
aa(lp284
I232
aI66
aI252
aI255
aI255
aa(lp285
I131
aI248
aI85
aa(lp286
I127
aI29
aa(lp287
I131
aI248
aI255
aa(lp288
I116
aI44
aa(lp289
I131
aI248
aI50
aa(lp290
I15
aI133
aI90
aI5
aI0
aI0
aa(lp291
I179
aI8
aa(lp292
I176
aI247
aa(lp293
I235
aI153
aa(lp294
I102
aI15
aI31
aI132
aI0
aI0
aI0
aa(lp295
I0
aI0
aa(lp296
I61
aI128
aI0
aI0
aI0
aa(lp297
I15
aI133
aI186
aI3
aI0
aI0
aa(lp298
I179
aI4
aa(lp299
I176
aI251
aa(lp300
I233
aI124
aI255
aI255
aI255
aa(lp301
I72
aI99
aI5
aI189
aI30
aI32
aI0
aa(lp302
I65
aI41
aI197
aa(lp303
I77
aI141
aI52
aI198
aa(lp304
I73
aI191
aI188
aI183
aI234
aI242
aI55
aa(lp305
I130
aI174
aI7
aa(lp306
I15
aI31
aI64
aI0
aa(lp307
I49
aI246
aa(lp308
I186
aI132
aI0
aI0
aI0
aa(lp309
I72
aI141
aI124
aI36
aI8
aa(lp310
I232
aI111
aI252
aI255
aI255
aa(lp311
I190
aI32
aI0
aI0
aI0
aa(lp312
I186
aI132
aI0
aI0
aI0
aa(lp313
I72
aI141
aI188
aI36
aI28
aI2
aI0
aI0
aa(lp314
I232
aI88
aI252
aI255
aI255
aa(lp315
I69
aI133
aI237
aa(lp316
I126
aI35
aa(lp317
I73
aI139
aI62
aa(lp318
I190
aI177
aI29
aI64
aI0
aa(lp319
I232
aI38
aI253
aI255
aI255
aa(lp320
I72
aI137
aI4
aI36
aa(lp321
I72
aI133
aI192
aa(lp322
I15
aI132
aI40
aI3
aI0
aI0
aa(lp323
I65
aI255
aI205
aa(lp324
I73
aI131
aI198
aI8
aa(lp325
I235
aI11
aa(lp326
I72
aI139
aI5
aI73
aI30
aI32
aI0
aa(lp327
I72
aI137
aI4
aI36
aa(lp328
I77
aI137
aI244
aa(lp329
I138
aI132
aI36
aI48
aI4
aI0
aI0
aa(lp330
I137
aI193
aa(lp331
I128
aI225
aI1
aa(lp332
I137
aI194
aa(lp333
I128
aI242
aI1
aa(lp334
I8
aI202
aa(lp335
I136
aI148
aI36
aI48
aI4
aI0
aI0
aa(lp336
I137
aI193
aa(lp337
I128
aI241
aI247
aa(lp338
I132
aI193
aa(lp339
I116
aI17
aa(lp340
I72
aI139
aI53
aI16
aI30
aI32
aI0
aa(lp341
I191
aI10
aI0
aI0
aI0
aa(lp342
I232
aI174
aI251
aI255
aI255
aa(lp343
I69
aI49
aI246
aa(lp344
I65
aI129
aI254
aI132
aI0
aI0
aI0
aa(lp345
I15
aI141
aI174
aI1
aI0
aI0
aa(lp346
I233
aI73
aI2
aI0
aI0
aa(lp347
I68
aI137
aI240
aa(lp348
I247
aI208
aa(lp349
I131
aI200
aI248
aa(lp350
I131
aI248
aI255
aa(lp351
I116
aI83
aa(lp352
I184
aI254
aI255
aI255
aI255
aa(lp353
I68
aI41
aI240
aa(lp354
I77
aI99
aI246
aa(lp355
I73
aI141
aI78
aI1
aa(lp356
I102
aI102
aI102
aI102
aI46
aI15
aI31
aa(lp357
I132
aI0
aI0
aI0
aI0
aI0
aa(lp358
I199
aI68
aI140
aI4
aI32
aI0
aI0
aI0
aa(lp359
I79
aI141
aI116
aI62
aI1
aa(lp360
I77
aI41
aI254
aa(lp361
I137
aI194
aa(lp362
I131
aI202
aI248
aa(lp363
I72
aI129
aI249
aI131
aI0
aI0
aI0
aa(lp364
I15
aI159
aI195
aa(lp365
I131
aI250
aI255
aa(lp366
I15
aI148
aI194
aa(lp367
I8
aI218
aa(lp368
I128
aI250
aI1
aa(lp369
I116
aI11
aa(lp370
I255
aI200
aa(lp371
I72
aI255
aI193
aa(lp372
I178
aI1
aa(lp373
I132
aI210
aa(lp374
I117
aI201
aa(lp375
I65
aI255
aI206
aa(lp376
I233
aI49
aI1
aI0
aI0
aa(lp377
I144
aa(lp378
I131
aI253
aI95
aa(lp379
I117
aI75
aa(lp380
I73
aI99
aI198
aa(lp381
I199
aI68
aI132
aI8
aI32
aI0
aI0
aI0
aa(lp382
I138
aI140
aI36
aI48
aI4
aI0
aI0
aa(lp383
I137
aI202
aa(lp384
I246
aI210
aa(lp385
I128
aI202
aI251
aa(lp386
I128
aI250
aI255
aa(lp387
I15
aI133
aI9
aI1
aI0
aI0
aa(lp388
I137
aI202
aa(lp389
I128
aI226
aI2
aa(lp390
I128
aI241
aI2
aa(lp391
I8
aI209
aa(lp392
I136
aI140
aI36
aI48
aI4
aI0
aI0
aa(lp393
I199
aI132
aI132
aI28
aI2
aI0
aI0
aa(lp394
I45
aI0
aI0
aI0
aa(lp395
I233
aI232
aI0
aI0
aI0
aa(lp396
I15
aI31
aI132
aI0
aI0
aI0
aI0
aI0
aa(lp397
I137
aI239
aa(lp398
I232
aI41
aI252
aI255
aI255
aa(lp399
I133
aI192
aa(lp400
I116
aI105
aa(lp401
I138
aI132
aI36
aI48
aI4
aI0
aI0
aa(lp402
I137
aI193
aa(lp403
I128
aI225
aI1
aa(lp404
I52
aI1
aa(lp405
I8
aI200
aa(lp406
I136
aI132
aI36
aI48
aI4
aI0
aI0
aa(lp407
I73
aI99
aI198
aa(lp408
I137
aI108
aI132
aI8
aa(lp409
I233
aI178
aI0
aI0
aI0
aa(lp410
I72
aI137
aI231
aa(lp411
I68
aI137
aI246
aa(lp412
I232
aI231
aI4
aI0
aI0
aa(lp413
I233
aI66
aI1
aI0
aI0
aa(lp414
I72
aI139
aI60
aI36
aa(lp415
I232
aI121
aI251
aI255
aI255
aa(lp416
I131
aI248
aI55
aa(lp417
I116
aI48
aa(lp418
I131
aI248
aI56
aa(lp419
I15
aI133
aI139
aI0
aI0
aI0
aa(lp420
I69
aI133
aI246
aa(lp421
I15
aI142
aI130
aI0
aI0
aI0
aa(lp422
I73
aI99
aI198
aa(lp423
I199
aI68
aI132
aI8
aI0
aI0
aI0
aI0
aa(lp424
I199
aI132
aI132
aI28
aI2
aI0
aI0
aa(lp425
I32
aI0
aI0
aI0
aa(lp426
I65
aI247
aI222
aa(lp427
I65
aI247
aI214
aa(lp428
I235
aI100
aa(lp429
I69
aI133
aI246
aa(lp430
I126
aI95
aa(lp431
I73
aI99
aI198
aa(lp432
I199
aI68
aI132
aI8
aI0
aI0
aI0
aI0
aa(lp433
I199
aI132
aI132
aI28
aI2
aI0
aI0
aa(lp434
I32
aI0
aI0
aI0
aa(lp435
I72
aI137
aI193
aa(lp436
I72
aI186
aI120
aI199
aI121
aI161
aI143
aa(lp437
I159
aI135
aI240
aa(lp438
I72
aI41
aI209
aa(lp439
I72
aI141
aI76
aI17
aI255
aa(lp440
I65
aI131
aI254
aI1
aa(lp441
I126
aI32
aa(lp442
I199
aI68
aI140
aI8
aI0
aI0
aI0
aI0
aa(lp443
I199
aI132
aI140
aI28
aI2
aI0
aI0
aa(lp444
I32
aI0
aI0
aI0
aa(lp445
I72
aI247
aI216
aa(lp446
I72
aI199
aI193
aI254
aI255
aI255
aI255
aa(lp447
I72
aI41
aI193
aa(lp448
I65
aI137
aI206
aa(lp449
I102
aI102
aI46
aI15
aI31
aI132
aI0
aa(lp450
I0
aI0
aI0
aI0
aa(lp451
I65
aI255
aI198
aa(lp452
I65
aI129
aI254
aI132
aI0
aI0
aI0
aa(lp453
I15
aI140
aI160
aI0
aI0
aI0
aa(lp454
I72
aI137
aI231
aa(lp455
I68
aI137
aI246
aa(lp456
I232
aI37
aI4
aI0
aI0
aa(lp457
I232
aI16
aI249
aI255
aI255
aa(lp458
I199
aI0
aI0
aI0
aI0
aI0
aa(lp459
I72
aI139
aI60
aI36
aa(lp460
I232
aI65
aI250
aI255
aI255
aa(lp461
I72
aI137
aI195
aa(lp462
I77
aI137
aI230
aa(lp463
I235
aI9
aa(lp464
I72
aI137
aI195
aa(lp465
I102
aI15
aI31
aI68
aI0
aI0
aa(lp466
I72
aI139
aI60
aI36
aa(lp467
I232
aI151
aI250
aI255
aI255
aa(lp468
I131
aI248
aI10
aa(lp469
I116
aI82
aa(lp470
I72
aI139
aI44
aI36
aa(lp471
I72
aI137
aI239
aa(lp472
I232
aI6
aI249
aI255
aI255
aa(lp473
I133
aI192
aa(lp474
I15
aI133
aI158
aI0
aI0
aI0
aa(lp475
I72
aI137
aI239
aa(lp476
I232
aI22
aI250
aI255
aI255
aa(lp477
I133
aI192
aa(lp478
I15
aI133
aI142
aI0
aI0
aI0
aa(lp479
I72
aI139
aI60
aI36
aa(lp480
I232
aI245
aI249
aI255
aI255
aa(lp481
I72
aI57
aI195
aa(lp482
I117
aI183
aa(lp483
I72
aI139
aI60
aI36
aa(lp484
I190
aI1
aI0
aI0
aI0
aa(lp485
I186
aI1
aI0
aI0
aI0
aa(lp486
I232
aI61
aI250
aI255
aI255
aa(lp487
I133
aI192
aa(lp488
I127
aI169
aa(lp489
I235
aI103
aa(lp490
I15
aI31
aI128
aI0
aI0
aI0
aI0
aa(lp491
I65
aI190
aI255
aI255
aI255
aI255
aa(lp492
I233
aI85
aI255
aI255
aI255
aa(lp493
I15
aI31
aI68
aI0
aI0
aa(lp494
I72
aI139
aI60
aI36
aa(lp495
I232
aI39
aI250
aI255
aI255
aa(lp496
I137
aI197
aa(lp497
I141
aI69
aI1
aa(lp498
I131
aI248
aI28
aa(lp499
I15
aI135
aI9
aI254
aI255
aI255
aa(lp500
I255
aI36
aI197
aI128
aI27
aI64
aI0
aa(lp501
I138
aI132
aI36
aI48
aI4
aI0
aI0
aa(lp502
I137
aI193
aa(lp503
I128
aI241
aI1
aa(lp504
I32
aI193
aa(lp505
I136
aI140
aI36
aI48
aI4
aI0
aI0
aa(lp506
I72
aI137
aI231
aa(lp507
I68
aI137
aI246
aa(lp508
I232
aI82
aI3
aI0
aI0
aa(lp509
I77
aI137
aI230
aa(lp510
I102
aI102
aI102
aI102
aI102
aI102
aI46
aa(lp511
I15
aI31
aI132
aI0
aI0
aI0
aI0
aI0
aa(lp512
I72
aI139
aI60
aI36
aa(lp513
I72
aI59
aI61
aI85
aI27
aI32
aI0
aa(lp514
I116
aI5
aa(lp515
I232
aI110
aI248
aI255
aI255
aa(lp516
I69
aI133
aI237
aa(lp517
I15
aI143
aI165
aI252
aI255
aI255
aa(lp518
I49
aI192
aa(lp519
I72
aI129
aI196
aI56
aI4
aI0
aI0
aa(lp520
I91
aa(lp521
I65
aI92
aa(lp522
I65
aI93
aa(lp523
I65
aI94
aa(lp524
I65
aI95
aa(lp525
I93
aa(lp526
I195
aasg13
(I4198720
I4200452
tp527
sg14
I2
sg15
g16
sssS'function_calls'
p528
(dp529
sS'binary_filename'
p530
S'colcrt'
p531
sS'structures'
p532
(dp533
sS'extern_functions'
p534
(dp535
sS'arch'
p536
S'amd64'
p537
sS'bin_raw_bytes'
p538
g8
s.