(dp0
S'text_addr'
p1
S'0x401900'
p2
sS'functions'
p3
(dp4
S'gsm0710_set_conf'
p5
(dp6
S'ret_type'
p7
S''
p8
sS'args_type'
p9
(lp10
sS'inst_bytes'
p11
(lp12
sS'boundaries'
p13
(tsS'num_args'
p14
I1
sS'inst_strings'
p15
(lp16
ssS'write_all'
p17
(dp18
g7
g8
sg9
(lp19
sg11
(lp20
sg13
(tsg14
I3
sg15
g16
ssS'strtou32_or_err'
p21
(dp22
g7
g8
sg9
(lp23
sg11
(lp24
(lp25
I65
aI86
aa(lp26
I83
aa(lp27
I80
aa(lp28
I73
aI137
aI246
aa(lp29
I72
aI137
aI251
aa(lp30
I186
aI10
aI0
aI0
aI0
aa(lp31
I232
aI156
aI0
aI0
aI0
aa(lp32
I72
aI137
aI193
aa(lp33
I72
aI193
aI233
aI32
aa(lp34
I117
aI8
aa(lp35
I72
aI131
aI196
aI8
aa(lp36
I91
aa(lp37
I65
aI94
aa(lp38
I195
aasg13
(I4207984
I4208058
tp39
sg14
I2
sg15
g16
ssS'isxdigit_strend'
p40
(dp41
g7
g8
sg9
(lp42
sg11
(lp43
(lp44
I65
aI87
aa(lp45
I65
aI86
aa(lp46
I65
aI84
aa(lp47
I83
aa(lp48
I80
aa(lp49
I73
aI137
aI246
aa(lp50
I73
aI137
aI255
aa(lp51
I77
aI133
aI255
aa(lp52
I116
aI68
aa(lp53
I65
aI138
aI31
aa(lp54
I65
aI180
aI1
aa(lp55
I132
aI219
aa(lp56
I116
aI70
aa(lp57
I232
aI174
aI231
aI255
aI255
aa(lp58
I72
aI139
aI8
aa(lp59
I76
aI137
aI248
aa(lp60
I15
aI31
aI132
aI0
aI0
aI0
aI0
aI0
aa(lp61
I15
aI182
aI211
aa(lp62
I15
aI183
aI20
aI81
aa(lp63
I247
aI210
aa(lp64
I129
aI202
aI255
aI239
aI0
aI0
aa(lp65
I15
aI183
aI210
aa(lp66
I129
aI250
aI255
aI255
aI0
aI0
aa(lp67
I116
aI28
aa(lp68
I15
aI182
aI88
aI1
aa(lp69
I72
aI255
aI192
aa(lp70
I132
aI219
aa(lp71
I117
aI219
aa(lp72
I235
aI15
aa(lp73
I49
aI192
aa(lp74
I69
aI49
aI228
aa(lp75
I77
aI133
aI246
aa(lp76
I117
aI10
aa(lp77
I235
aI11
aa(lp78
I76
aI137
aI248
aa(lp79
I77
aI133
aI246
aa(lp80
I116
aI3
aa(lp81
I73
aI137
aI6
aa(lp82
I65
aI128
aI244
aI1
aa(lp83
I76
aI57
aI248
aa(lp84
I15
aI150
aI194
aa(lp85
I68
aI8
aI226
aa(lp86
I49
aI201
aa(lp87
I128
aI250
aI1
aa(lp88
I116
aI12
aa(lp89
I178
aI1
aa(lp90
I132
aI210
aa(lp91
I116
aI6
aa(lp92
I128
aI56
aI0
aa(lp93
I15
aI148
aI193
aa(lp94
I15
aI182
aI193
aa(lp95
I72
aI131
aI196
aI8
aa(lp96
I91
aa(lp97
I65
aI92
aa(lp98
I65
aI94
aa(lp99
I65
aI95
aa(lp100
I195
aasg13
(I4206880
I4207037
tp101
sg14
I2
sg15
g16
ssS'dbg'
p102
(dp103
g7
g8
sg9
(lp104
sg11
(lp105
(lp106
I83
aa(lp107
I72
aI129
aI236
aI208
aI0
aI0
aI0
aa(lp108
I72
aI137
aI251
aa(lp109
I132
aI192
aa(lp110
I116
aI55
aa(lp111
I15
aI41
aI68
aI36
aI80
aa(lp112
I15
aI41
aI76
aI36
aI96
aa(lp113
I15
aI41
aI84
aI36
aI112
aa(lp114
I15
aI41
aI156
aI36
aI128
aI0
aI0
aI0
aa(lp115
I15
aI41
aI164
aI36
aI144
aI0
aI0
aI0
aa(lp116
I15
aI41
aI172
aI36
aI160
aI0
aI0
aI0
aa(lp117
I15
aI41
aI180
aI36
aI176
aI0
aI0
aI0
aa(lp118
I15
aI41
aI188
aI36
aI192
aI0
aI0
aI0
aa(lp119
I76
aI137
aI76
aI36
aI72
aa(lp120
I76
aI137
aI68
aI36
aI64
aa(lp121
I72
aI137
aI76
aI36
aI56
aa(lp122
I72
aI137
aI84
aI36
aI48
aa(lp123
I72
aI137
aI116
aI36
aI40
aa(lp124
I128
aI61
aI102
aI72
aI32
aI0
aI1
aa(lp125
I117
aI63
aa(lp126
I49
aI255
aa(lp127
I232
aI49
aI238
aI255
aI255
aa(lp128
I72
aI141
aI68
aI36
aI32
aa(lp129
I72
aI137
aI68
aI36
aI16
aa(lp130
I72
aI141
aI132
aI36
aI224
aI0
aI0
aI0
aa(lp131
I72
aI137
aI68
aI36
aI8
aa(lp132
I199
aI68
aI36
aI4
aI48
aI0
aI0
aI0
aa(lp133
I199
aI4
aI36
aI8
aI0
aI0
aI0
aa(lp134
I72
aI137
aI230
aa(lp135
I72
aI137
aI223
aa(lp136
I232
aI16
aI236
aI255
aI255
aa(lp137
I49
aI255
aa(lp138
I232
aI249
aI237
aI255
aI255
aa(lp139
I72
aI129
aI196
aI208
aI0
aI0
aI0
aa(lp140
I91
aa(lp141
I195
aasg13
(I4204928
I4205104
tp142
sg14
I1
sg15
g16
ssS'strtox32_or_err'
p143
(dp144
g7
g8
sg9
(lp145
sg11
(lp146
(lp147
I65
aI86
aa(lp148
I83
aa(lp149
I80
aa(lp150
I73
aI137
aI246
aa(lp151
I72
aI137
aI251
aa(lp152
I186
aI16
aI0
aI0
aI0
aa(lp153
I232
aI76
aI0
aI0
aI0
aa(lp154
I72
aI137
aI193
aa(lp155
I72
aI193
aI233
aI32
aa(lp156
I117
aI8
aa(lp157
I72
aI131
aI196
aI8
aa(lp158
I91
aa(lp159
I65
aI94
aa(lp160
I195
aasg13
(I4208064
I4208138
tp161
sg14
I2
sg15
g16
ssS'strfappend'
p162
(dp163
g7
g8
sg9
(lp164
sg11
(lp165
(lp166
I83
aa(lp167
I72
aI129
aI236
aI224
aI0
aI0
aI0
aa(lp168
I72
aI137
aI251
aa(lp169
I132
aI192
aa(lp170
I116
aI58
aa(lp171
I15
aI41
aI68
aI36
aI96
aa(lp172
I15
aI41
aI76
aI36
aI112
aa(lp173
I15
aI41
aI148
aI36
aI128
aI0
aI0
aI0
aa(lp174
I15
aI41
aI156
aI36
aI144
aI0
aI0
aI0
aa(lp175
I15
aI41
aI164
aI36
aI160
aI0
aI0
aI0
aa(lp176
I15
aI41
aI172
aI36
aI176
aI0
aI0
aI0
aa(lp177
I15
aI41
aI180
aI36
aI192
aI0
aI0
aI0
aa(lp178
I15
aI41
aI188
aI36
aI208
aI0
aI0
aI0
aa(lp179
I76
aI137
aI76
aI36
aI88
aa(lp180
I76
aI137
aI68
aI36
aI80
aa(lp181
I72
aI137
aI76
aI36
aI72
aa(lp182
I72
aI137
aI84
aI36
aI64
aa(lp183
I72
aI141
aI68
aI36
aI48
aa(lp184
I72
aI137
aI68
aI36
aI32
aa(lp185
I72
aI141
aI132
aI36
aI240
aI0
aI0
aI0
aa(lp186
I72
aI137
aI68
aI36
aI24
aa(lp187
I199
aI68
aI36
aI20
aI48
aI0
aI0
aI0
aa(lp188
I199
aI68
aI36
aI16
aI16
aI0
aI0
aI0
aa(lp189
I72
aI141
aI124
aI36
aI8
aa(lp190
I72
aI141
aI84
aI36
aI16
aa(lp191
I232
aI45
aI207
aI255
aI255
aa(lp192
I133
aI192
aa(lp193
I120
aI31
aa(lp194
I72
aI139
aI116
aI36
aI8
aa(lp195
I72
aI99
aI208
aa(lp196
I72
aI137
aI223
aa(lp197
I232
aI9
aI254
aI255
aI255
aa(lp198
I72
aI137
aI195
aa(lp199
I72
aI139
aI124
aI36
aI8
aa(lp200
I232
aI60
aI206
aI255
aI255
aa(lp201
I235
aI2
aa(lp202
I49
aI219
aa(lp203
I72
aI137
aI216
aa(lp204
I72
aI129
aI196
aI224
aI0
aI0
aI0
aa(lp205
I91
aa(lp206
I195
aasg13
(I4212288
I4212484
tp207
sg14
I2
sg15
g16
ssS'string_add_to_idarray'
p208
(dp209
g7
g8
sg9
(lp210
sg11
(lp211
(lp212
I85
aa(lp213
I65
aI87
aa(lp214
I65
aI86
aa(lp215
I65
aI85
aa(lp216
I65
aI84
aa(lp217
I83
aa(lp218
I80
aa(lp219
I73
aI137
aI213
aa(lp220
I72
aI137
aI251
aa(lp221
I72
aI133
aI219
aa(lp222
I15
aI132
aI97
aI1
aI0
aI0
aa(lp223
I64
aI138
aI59
aa(lp224
I64
aI132
aI255
aa(lp225
I15
aI149
aI192
aa(lp226
I72
aI133
aI201
aa(lp227
I15
aI149
aI194
aa(lp228
I48
aI194
aa(lp229
I15
aI133
aI74
aI1
aI0
aI0
aa(lp230
I72
aI133
aI201
aa(lp231
I15
aI132
aI65
aI1
aI0
aI0
aa(lp232
I72
aI139
aI1
aa(lp233
I76
aI57
aI232
aa(lp234
I15
aI135
aI53
aI1
aI0
aI0
aa(lp235
I64
aI128
aI255
aI43
aa(lp236
I117
aI5
aa(lp237
I72
aI255
aI195
aa(lp238
I235
aI9
aa(lp239
I72
aI199
aI1
aI0
aI0
aI0
aI0
aa(lp240
I49
aI192
aa(lp241
I72
aI141
aI20
aI133
aI0
aI0
aI0
aI0
aa(lp242
I72
aI1
aI214
aa(lp243
I68
aI138
aI11
aa(lp244
I15
aI148
aI194
aa(lp245
I69
aI132
aI201
aa(lp246
I64
aI15
aI148
aI199
aa(lp247
I73
aI41
aI197
aa(lp248
I15
aI148
aI192
aa(lp249
I8
aI208
aa(lp250
I77
aI133
aI192
aa(lp251
I15
aI148
aI194
aa(lp252
I8
aI194
aa(lp253
I64
aI8
aI250
aa(lp254
I128
aI250
aI1
aa(lp255
I15
aI132
aI237
aI0
aI0
aI0
aa(lp256
I176
aI1
aa(lp257
I132
aI192
aa(lp258
I15
aI132
aI227
aI0
aI0
aI0
aa(lp259
I72
aI137
aI12
aI36
aa(lp260
I72
aI255
aI195
aa(lp261
I49
aI201
aa(lp262
I49
aI255
aa(lp263
I49
aI237
aa(lp264
I102
aI102
aI46
aI15
aI31
aI132
aI0
aa(lp265
I0
aI0
aI0
aI0
aa(lp266
I76
aI57
aI237
aa(lp267
I15
aI131
aI214
aI0
aI0
aI0
aa(lp268
I76
aI141
aI115
aI255
aa(lp269
I72
aI133
aI255
aa(lp270
I73
aI15
aI68
aI254
aa(lp271
I65
aI128
aI249
aI44
aa(lp272
I76
aI15
aI69
aI241
aa(lp273
I68
aI15
aI182
aI11
aa(lp274
I69
aI132
aI201
aa(lp275
I76
aI15
aI68
aI243
aa(lp276
I72
aI133
aI255
aa(lp277
I15
aI149
aI192
aa(lp278
I77
aI133
aI246
aa(lp279
I15
aI149
aI194
aa(lp280
I48
aI194
aa(lp281
I117
aI105
aa(lp282
I72
aI133
aI255
aa(lp283
I116
aI100
aa(lp284
I73
aI57
aI254
aa(lp285
I15
aI134
aI134
aI0
aI0
aI0
aa(lp286
I73
aI137
aI247
aa(lp287
I76
aI137
aI246
aa(lp288
I72
aI184
aI87
aI37
aI147
aI9
aI47
aa(lp289
I137
aI73
aI90
aa(lp290
I72
aI41
aI198
aa(lp291
I72
aI41
aI254
aa(lp292
I72
aI1
aI198
aa(lp293
I77
aI137
aI196
aa(lp294
I65
aI255
aI208
aa(lp295
I137
aI193
aa(lp296
I131
aI249
aI255
aa(lp297
I116
aI96
aa(lp298
I72
aI137
aI232
aa(lp299
I72
aI186
aI248
aI182
aI154
aI27
aI42
aa(lp300
I238
aI42
aI81
aa(lp301
I72
aI41
aI208
aa(lp302
I72
aI141
aI68
aI16
aI1
aa(lp303
I76
aI137
aI254
aa(lp304
I137
aI12
aI174
aa(lp305
I65
aI128
aI62
aI0
aa(lp306
I116
aI38
aa(lp307
I68
aI15
aI182
aI11
aa(lp308
I49
aI255
aa(lp309
I77
aI137
aI224
aa(lp310
I49
aI201
aa(lp311
I235
aI10
aa(lp312
I15
aI31
aI128
aI0
aI0
aI0
aI0
aa(lp313
I72
aI137
aI232
aa(lp314
I72
aI255
aI195
aa(lp315
I69
aI132
aI201
aa(lp316
I72
aI137
aI197
aa(lp317
I15
aI133
aI78
aI255
aI255
aI255
aa(lp318
I133
aI192
aa(lp319
I126
aI26
aa(lp320
I72
aI99
aI200
aa(lp321
I72
aI247
aI217
aa(lp322
I72
aI139
aI20
aI36
aa(lp323
I72
aI43
aI10
aa(lp324
I72
aI247
aI217
aa(lp325
I72
aI137
aI10
aa(lp326
I235
aI5
aa(lp327
I184
aI255
aI255
aI255
aI255
aa(lp328
I72
aI131
aI196
aI8
aa(lp329
I91
aa(lp330
I65
aI92
aa(lp331
I65
aI93
aa(lp332
I65
aI94
aa(lp333
I65
aI95
aa(lp334
I93
aa(lp335
I195
aasg13
(I4210224
I4210630
tp336
sg14
I5
sg15
g16
ssS'close_stdout_atexit'
p337
(dp338
g7
g8
sg9
(lp339
sg11
(lp340
sg13
(tsg14
I0
sg15
g16
ssS'strtod_or_err'
p341
(dp342
g7
g8
sg9
(lp343
sg11
(lp344
(lp345
I65
aI87
aa(lp346
I65
aI86
aa(lp347
I83
aa(lp348
I72
aI131
aI236
aI16
aa(lp349
I73
aI137
aI246
aa(lp350
I73
aI137
aI255
aa(lp351
I72
aI199
aI68
aI36
aI8
aI0
aI0
aa(lp352
I0
aI0
aa(lp353
I232
aI115
aI222
aI255
aI255
aa(lp354
I72
aI137
aI195
aa(lp355
I199
aI3
aI0
aI0
aI0
aI0
aa(lp356
I77
aI133
aI255
aa(lp357
I116
aI55
aa(lp358
I65
aI128
aI63
aI0
aa(lp359
I116
aI49
aa(lp360
I72
aI141
aI116
aI36
aI8
aa(lp361
I76
aI137
aI255
aa(lp362
I232
aI178
aI222
aI255
aI255
aa(lp363
I139
aI3
aa(lp364
I133
aI192
aa(lp365
I117
aI56
aa(lp366
I72
aI139
aI68
aI36
aI8
aa(lp367
I76
aI57
aI248
aa(lp368
I116
aI20
aa(lp369
I72
aI133
aI192
aa(lp370
I116
aI5
aa(lp371
I128
aI56
aI0
aa(lp372
I117
aI10
aa(lp373
I72
aI131
aI196
aI16
aa(lp374
I91
aa(lp375
I65
aI94
aa(lp376
I65
aI95
aa(lp377
I195
aasg13
(I4208336
I4208491
tp378
sg14
I2
sg15
g16
ssS'parse_switch'
p379
(dp380
g7
g8
sg9
(lp381
sg11
(lp382
(lp383
I85
aa(lp384
I65
aI87
aa(lp385
I65
aI86
aa(lp386
I83
aa(lp387
I72
aI129
aI236
aI216
aI0
aI0
aI0
aa(lp388
I73
aI137
aI246
aa(lp389
I73
aI137
aI255
aa(lp390
I132
aI192
aa(lp391
I116
aI55
aa(lp392
I15
aI41
aI68
aI36
aI80
aa(lp393
I15
aI41
aI76
aI36
aI96
aa(lp394
I15
aI41
aI84
aI36
aI112
aa(lp395
I15
aI41
aI156
aI36
aI128
aI0
aI0
aI0
aa(lp396
I15
aI41
aI164
aI36
aI144
aI0
aI0
aI0
aa(lp397
I15
aI41
aI172
aI36
aI160
aI0
aI0
aI0
aa(lp398
I15
aI41
aI180
aI36
aI176
aI0
aI0
aI0
aa(lp399
I15
aI41
aI188
aI36
aI192
aI0
aI0
aI0
aa(lp400
I76
aI137
aI76
aI36
aI72
aa(lp401
I76
aI137
aI68
aI36
aI64
aa(lp402
I72
aI137
aI76
aI36
aI56
aa(lp403
I72
aI137
aI84
aI36
aI48
aa(lp404
I72
aI141
aI68
aI36
aI32
aa(lp405
I72
aI137
aI68
aI36
aI16
aa(lp406
I72
aI141
aI132
aI36
aI0
aI1
aI0
aI0
aa(lp407
I72
aI137
aI68
aI36
aI8
aa(lp408
I199
aI68
aI36
aI4
aI48
aI0
aI0
aI0
aa(lp409
I199
aI4
aI36
aI16
aI0
aI0
aI0
aa(lp410
I139
aI44
aI36
aa(lp411
I15
aI31
aI68
aI0
aI0
aa(lp412
I131
aI253
aI40
aa(lp413
I119
aI27
aa(lp414
I72
aI99
aI197
aa(lp415
I72
aI3
aI68
aI36
aI16
aa(lp416
I247
aI221
aa(lp417
I185
aI8
aI0
aI0
aI0
aa(lp418
I41
aI233
aa(lp419
I137
aI12
aI36
aa(lp420
I137
aI205
aa(lp421
I235
aI17
aa(lp422
I15
aI31
aI0
aa(lp423
I72
aI139
aI68
aI36
aI8
aa(lp424
I72
aI141
aI72
aI8
aa(lp425
I72
aI137
aI76
aI36
aI8
aa(lp426
I72
aI139
aI48
aa(lp427
I72
aI133
aI246
aa(lp428
I116
aI102
aa(lp429
I131
aI253
aI40
aa(lp430
I119
aI21
aa(lp431
I72
aI99
aI197
aa(lp432
I72
aI3
aI68
aI36
aI16
aa(lp433
I131
aI197
aI8
aa(lp434
I137
aI44
aI36
aa(lp435
I235
aI19
aa(lp436
I15
aI31
aI68
aI0
aI0
aa(lp437
I72
aI139
aI68
aI36
aI8
aa(lp438
I72
aI141
aI72
aI8
aa(lp439
I72
aI137
aI76
aI36
aI8
aa(lp440
I72
aI139
aI24
aa(lp441
I72
aI133
aI219
aa(lp442
I116
aI54
aa(lp443
I76
aI137
aI255
aa(lp444
I232
aI210
aI228
aI255
aI255
aa(lp445
I133
aI192
aa(lp446
I116
aI23
aa(lp447
I76
aI137
aI255
aa(lp448
I72
aI137
aI222
aa(lp449
I232
aI195
aI228
aI255
aI255
aa(lp450
I133
aI192
aa(lp451
I15
aI133
aI123
aI255
aI255
aI255
aa(lp452
I49
aI192
aa(lp453
I235
aI5
aa(lp454
I184
aI1
aI0
aI0
aI0
aa(lp455
I72
aI129
aI196
aI216
aI0
aI0
aI0
aa(lp456
I91
aa(lp457
I65
aI94
aa(lp458
I65
aI95
aa(lp459
I93
aa(lp460
I195
aasg13
(I4207040
I4207366
tp461
sg14
I2
sg15
g16
ssS'strtotimeval_or_err'
p462
(dp463
g7
g8
sg9
(lp464
sg11
(lp465
(lp466
I83
aa(lp467
I72
aI137
aI243
aa(lp468
I72
aI137
aI214
aa(lp469
I232
aI180
aI253
aI255
aI255
aa(lp470
I242
aI72
aI15
aI44
aI192
aa(lp471
I72
aI137
aI3
aa(lp472
I242
aI72
aI15
aI42
aI200
aa(lp473
I242
aI15
aI92
aI193
aa(lp474
I242
aI15
aI89
aI5
aI179
aI30
aI0
aI0
aa(lp475
I242
aI72
aI15
aI44
aI192
aa(lp476
I72
aI137
aI67
aI8
aa(lp477
I91
aa(lp478
I195
aasg13
(I4208912
I4208960
tp479
sg14
I3
sg15
g16
ssS'parse_range'
p480
(dp481
g7
g8
sg9
(lp482
sg11
(lp483
(lp484
I85
aa(lp485
I65
aI87
aa(lp486
I65
aI86
aa(lp487
I65
aI85
aa(lp488
I65
aI84
aa(lp489
I83
aa(lp490
I80
aa(lp491
I65
aI137
aI205
aa(lp492
I73
aI137
aI214
aa(lp493
I72
aI137
aI245
aa(lp494
I72
aI137
aI251
aa(lp495
I72
aI199
aI4
aI36
aI0
aI0
aI0
aI0
aa(lp496
I69
aI49
aI228
aa(lp497
I72
aI133
aI219
aa(lp498
I15
aI132
aI26
aI1
aI0
aI0
aa(lp499
I68
aI137
aI109
aI0
aa(lp500
I69
aI137
aI46
aa(lp501
I232
aI25
aI211
aI255
aI255
aa(lp502
I73
aI137
aI199
aa(lp503
I65
aI199
aI7
aI0
aI0
aI0
aI0
aa(lp504
I128
aI59
aI58
aa(lp505
I117
aI78
aa(lp506
I72
aI255
aI195
aa(lp507
I72
aI137
aI230
aa(lp508
I186
aI10
aI0
aI0
aI0
aa(lp509
I72
aI137
aI223
aa(lp510
I232
aI87
aI213
aI255
aI255
aa(lp511
I65
aI137
aI6
aa(lp512
I65
aI139
aI15
aa(lp513
I133
aI201
aa(lp514
I64
aI15
aI148
aI198
aa(lp515
I72
aI139
aI4
aI36
aa(lp516
I72
aI133
aI192
aa(lp517
I15
aI149
aI194
aa(lp518
I65
aI188
aI255
aI255
aI255
aI255
aa(lp519
I64
aI48
aI242
aa(lp520
I15
aI133
aI199
aI0
aI0
aI0
aa(lp521
I133
aI201
aa(lp522
I15
aI133
aI191
aI0
aI0
aI0
aa(lp523
I128
aI56
aI0
aa(lp524
I15
aI149
aI193
aa(lp525
I72
aI57
aI216
aa(lp526
I233
aI163
aI0
aI0
aI0
aa(lp527
I72
aI137
aI230
aa(lp528
I186
aI10
aI0
aI0
aI0
aa(lp529
I72
aI137
aI223
aa(lp530
I232
aI12
aI213
aI255
aI255
aa(lp531
I137
aI69
aI0
aa(lp532
I65
aI137
aI6
aa(lp533
I65
aI131
aI63
aI0
aa(lp534
I72
aI139
aI44
aI36
aa(lp535
I15
aI149
aI192
aa(lp536
I72
aI133
aI237
aa(lp537
I15
aI148
aI193
aa(lp538
I137
aI194
aa(lp539
I32
aI202
aa(lp540
I48
aI200
aa(lp541
I8
aI208
aa(lp542
I72
aI57
aI221
aa(lp543
I15
aI149
aI193
aa(lp544
I52
aI1
aa(lp545
I65
aI188
aI255
aI255
aI255
aI255
aa(lp546
I137
aI202
aa(lp547
I48
aI194
aa(lp548
I117
aI110
aa(lp549
I8
aI193
aa(lp550
I128
aI241
aI1
aa(lp551
I117
aI103
aa(lp552
I138
aI69
aI0
aa(lp553
I60
aI45
aa(lp554
I116
aI10
aa(lp555
I60
aI58
aa(lp556
I117
aI89
aa(lp557
I128
aI125
aI1
aI0
aa(lp558
I116
aI104
aa(lp559
I72
aI255
aI197
aa(lp560
I72
aI199
aI4
aI36
aI0
aI0
aI0
aI0
aa(lp561
I65
aI199
aI7
aI0
aI0
aI0
aI0
aa(lp562
I72
aI137
aI230
aa(lp563
I186
aI10
aI0
aI0
aI0
aa(lp564
I72
aI137
aI239
aa(lp565
I232
aI159
aI212
aI255
aI255
aa(lp566
I65
aI137
aI6
aa(lp567
I65
aI139
aI15
aa(lp568
I133
aI201
aa(lp569
I15
aI148
aI194
aa(lp570
I72
aI139
aI4
aI36
aa(lp571
I72
aI133
aI192
aa(lp572
I15
aI149
aI195
aa(lp573
I48
aI211
aa(lp574
I117
aI27
aa(lp575
I133
aI201
aa(lp576
I117
aI23
aa(lp577
I128
aI56
aI0
aa(lp578
I15
aI149
aI193
aa(lp579
I72
aI57
aI232
aa(lp580
I15
aI148
aI192
aa(lp581
I132
aI200
aa(lp582
I117
aI7
aa(lp583
I48
aI200
aa(lp584
I117
aI3
aa(lp585
I69
aI49
aI228
aa(lp586
I68
aI137
aI224
aa(lp587
I72
aI131
aI196
aI8
aa(lp588
I91
aa(lp589
I65
aI92
aa(lp590
I65
aI93
aa(lp591
I65
aI94
aa(lp592
I65
aI95
aa(lp593
I93
aa(lp594
I195
aasg13
(I4211216
I4211564
tp595
sg14
I4
sg15
g16
ssS'strutils_set_exitcode'
p596
(dp597
g7
g8
sg9
(lp598
sg11
(lp599
(lp600
I137
aI61
aI74
aI70
aI32
aI0
aa(lp601
I195
aasg13
(I4205504
I4205511
tp602
sg14
I1
sg15
g16
ssS'next_path_segment'
p603
(dp604
g7
g8
sg9
(lp605
sg11
(lp606
sg13
(tsg14
I2
sg15
g16
ssS'streq_paths'
p607
(dp608
g7
g8
sg9
(lp609
sg11
(lp610
(lp611
I85
aa(lp612
I65
aI87
aa(lp613
I65
aI86
aa(lp614
I65
aI84
aa(lp615
I83
aa(lp616
I73
aI137
aI247
aa(lp617
I73
aI137
aI254
aa(lp618
I77
aI133
aI246
aa(lp619
I15
aI149
aI192
aa(lp620
I77
aI133
aI255
aa(lp621
I15
aI149
aI193
aa(lp622
I49
aI237
aa(lp623
I48
aI193
aa(lp624
I15
aI133
aI78
aI1
aI0
aI0
aa(lp625
I77
aI133
aI255
aa(lp626
I15
aI132
aI69
aI1
aI0
aI0
aa(lp627
I65
aI180
aI1
aa(lp628
I76
aI137
aI240
aa(lp629
I72
aI133
aI192
aa(lp630
I116
aI19
aa(lp631
I138
aI8
aa(lp632
I128
aI249
aI47
aa(lp633
I117
aI19
aa(lp634
I76
aI141
aI112
aI1
aa(lp635
I128
aI120
aI1
aI47
aa(lp636
I116
aI231
aa(lp637
I235
aI22
aa(lp638
I49
aI219
aa(lp639
I69
aI49
aI246
aa(lp640
I235
aI62
aa(lp641
I132
aI201
aa(lp642
I187
aI0
aI0
aI0
aI0
aa(lp643
I65
aI190
aI0
aI0
aI0
aI0
aa(lp644
I116
aI47
aa(lp645
I187
aI1
aI0
aI0
aI0
aa(lp646
I235
aI11
aa(lp647
I15
aI31
aI132
aI0
aI0
aI0
aI0
aI0
aa(lp648
I72
aI255
aI195
aa(lp649
I15
aI182
aI12
aI24
aa(lp650
I132
aI201
aa(lp651
I116
aI5
aa(lp652
I128
aI249
aI47
aa(lp653
I117
aI240
aa(lp654
I73
aI137
aI198
aa(lp655
I102
aI102
aI102
aI102
aI46
aI15
aI31
aa(lp656
I132
aI0
aI0
aI0
aI0
aI0
aa(lp657
I76
aI137
aI249
aa(lp658
I72
aI133
aI201
aa(lp659
I116
aI19
aa(lp660
I15
aI182
aI1
aa(lp661
I60
aI47
aa(lp662
I117
aI19
aa(lp663
I76
aI141
aI121
aI1
aa(lp664
I128
aI121
aI1
aI47
aa(lp665
I116
aI231
aa(lp666
I235
aI22
aa(lp667
I49
aI192
aa(lp668
I69
aI49
aI255
aa(lp669
I235
aI49
aa(lp670
I132
aI192
aa(lp671
I184
aI0
aI0
aI0
aI0
aa(lp672
I65
aI191
aI0
aI0
aI0
aI0
aa(lp673
I116
aI34
aa(lp674
I184
aI1
aI0
aI0
aI0
aa(lp675
I235
aI11
aa(lp676
I15
aI31
aI132
aI0
aI0
aI0
aI0
aI0
aa(lp677
I72
aI255
aI192
aa(lp678
I15
aI182
aI20
aI1
aa(lp679
I132
aI210
aa(lp680
I116
aI5
aa(lp681
I128
aI250
aI47
aa(lp682
I117
aI240
aa(lp683
I73
aI137
aI207
aa(lp684
I72
aI137
aI218
aa(lp685
I72
aI247
aI218
aa(lp686
I72
aI137
aI193
aa(lp687
I72
aI41
aI209
aa(lp688
I189
aI1
aI0
aI0
aI0
aa(lp689
I72
aI131
aI249
aI1
aa(lp690
I116
aI7
aa(lp691
I72
aI133
aI201
aa(lp692
I117
aI24
aa(lp693
I235
aI113
aa(lp694
I77
aI133
aI246
aa(lp695
I116
aI6
aa(lp696
I65
aI128
aI62
aI47
aa(lp697
I116
aI102
aa(lp698
I77
aI133
aI255
aa(lp699
I116
aI95
aa(lp700
I65
aI128
aI63
aI47
aa(lp701
I116
aI91
aa(lp702
I77
aI133
aI246
aa(lp703
I15
aI149
aI193
aa(lp704
I77
aI133
aI255
aa(lp705
I15
aI149
aI194
aa(lp706
I48
aI202
aa(lp707
I246
aI210
aa(lp708
I32
aI202
aa(lp709
I72
aI57
aI195
aa(lp710
I15
aI149
aI192
aa(lp711
I128
aI242
aI1
aa(lp712
I8
aI194
aa(lp713
I49
aI237
aa(lp714
I128
aI250
aI1
aa(lp715
I116
aI55
aa(lp716
I69
aI132
aI228
aa(lp717
I116
aI50
aa(lp718
I76
aI137
aI247
aa(lp719
I76
aI137
aI254
aa(lp720
I72
aI137
aI218
aa(lp721
I232
aI178
aI208
aI255
aI255
aa(lp722
I133
aI192
aa(lp723
I117
aI32
aa(lp724
I73
aI1
aI223
aa(lp725
I15
aI148
aI192
aa(lp726
I73
aI1
aI222
aa(lp727
I15
aI148
aI193
aa(lp728
I8
aI193
aa(lp729
I128
aI249
aI1
aa(lp730
I116
aI13
aa(lp731
I69
aI132
aI228
aa(lp732
I15
aI133
aI194
aI254
aI255
aI255
aa(lp733
I235
aI2
aa(lp734
I49
aI237
aa(lp735
I137
aI232
aa(lp736
I91
aa(lp737
I65
aI92
aa(lp738
I65
aI94
aa(lp739
I65
aI95
aa(lp740
I93
aa(lp741
I195
aasg13
(I4211568
I4211949
tp742
sg14
I2
sg15
g16
ssS'xusleep'
p743
(dp744
g7
g8
sg9
(lp745
sg11
(lp746
sg13
(tsg14
I1
sg15
g16
ssS'strtou64_or_err'
p747
(dp748
g7
g8
sg9
(lp749
sg11
(lp750
(lp751
I186
aI10
aI0
aI0
aI0
aa(lp752
I235
aI9
aa(lp753
I102
aI15
aI31
aI132
aI0
aI0
aI0
aa(lp754
I0
aI0
aasg13
(I4208144
I4208151
tp755
sg14
I2
sg15
g16
ssS'skip_fline'
p756
(dp757
g7
g8
sg9
(lp758
sg11
(lp759
(lp760
I83
aa(lp761
I72
aI137
aI251
aa(lp762
I102
aI102
aI102
aI46
aI15
aI31
aI132
aa(lp763
I0
aI0
aI0
aI0
aI0
aa(lp764
I72
aI137
aI223
aa(lp765
I232
aI104
aI205
aI255
aI255
aa(lp766
I131
aI248
aI255
aa(lp767
I116
aI9
aa(lp768
I131
aI248
aI10
aa(lp769
I117
aI238
aa(lp770
I49
aI192
aa(lp771
I91
aa(lp772
I195
aasg13
(I4213152
I4213197
tp773
sg14
I1
sg15
g16
ssS'_strtou64_or_err'
p774
(dp775
g7
g8
sg9
(lp776
sg11
(lp777
(lp778
I85
aa(lp779
I65
aI87
aa(lp780
I65
aI86
aa(lp781
I83
aa(lp782
I80
aa(lp783
I65
aI137
aI215
aa(lp784
I73
aI137
aI246
aa(lp785
I72
aI137
aI251
aa(lp786
I72
aI199
aI4
aI36
aI0
aI0
aI0
aI0
aa(lp787
I232
aI35
aI223
aI255
aI255
aa(lp788
I72
aI137
aI197
aa(lp789
I199
aI69
aI0
aI0
aI0
aI0
aI0
aa(lp790
I72
aI133
aI219
aa(lp791
I116
aI58
aa(lp792
I128
aI59
aI0
aa(lp793
I116
aI53
aa(lp794
I72
aI137
aI230
aa(lp795
I49
aI201
aa(lp796
I72
aI137
aI223
aa(lp797
I68
aI137
aI250
aa(lp798
I232
aI143
aI224
aI255
aI255
aa(lp799
I139
aI77
aI0
aa(lp800
I133
aI201
aa(lp801
I117
aI56
aa(lp802
I72
aI139
aI12
aI36
aa(lp803
I72
aI57
aI217
aa(lp804
I116
aI21
aa(lp805
I72
aI133
aI201
aa(lp806
I116
aI5
aa(lp807
I128
aI57
aI0
aa(lp808
I117
aI11
aa(lp809
I72
aI131
aI196
aI8
aa(lp810
I91
aa(lp811
I65
aI94
aa(lp812
I65
aI95
aa(lp813
I93
aa(lp814
I195
aasg13
(I4208160
I4208319
tp815
sg14
I3
sg15
g16
ssS'parse_size'
p816
(dp817
g7
g8
sg9
(lp818
sg11
(lp819
(lp820
I85
aa(lp821
I65
aI87
aa(lp822
I65
aI86
aa(lp823
I65
aI85
aa(lp824
I65
aI84
aa(lp825
I83
aa(lp826
I72
aI131
aI236
aI56
aa(lp827
I73
aI137
aI213
aa(lp828
I73
aI137
aI246
aa(lp829
I72
aI137
aI251
aa(lp830
I73
aI199
aI6
aI0
aI0
aI0
aI0
aa(lp831
I65
aI188
aI234
aI255
aI255
aI255
aa(lp832
I72
aI133
aI219
aa(lp833
I15
aI132
aI71
aI4
aI0
aI0
aa(lp834
I15
aI182
aI43
aa(lp835
I72
aI133
aI237
aa(lp836
I15
aI132
aI59
aI4
aI0
aI0
aa(lp837
I232
aI226
aI236
aI255
aI255
aa(lp838
I72
aI139
aI56
aa(lp839
I15
aI183
aI12
aI111
aa(lp840
I137
aI202
aa(lp841
I129
aI242
aI255
aI223
aI0
aI0
aa(lp842
I33
aI202
aa(lp843
I102
aI133
aI210
aa(lp844
I116
aI37
aa(lp845
I72
aI141
aI75
aI1
aa(lp846
I15
aI31
aI132
aI0
aI0
aI0
aI0
aI0
aa(lp847
I15
aI182
aI41
aa(lp848
I15
aI183
aI20
aI111
aa(lp849
I137
aI214
aa(lp850
I129
aI246
aI255
aI223
aI0
aI0
aa(lp851
I33
aI214
aa(lp852
I72
aI255
aI193
aa(lp853
I102
aI133
aI246
aa(lp854
I117
aI231
aa(lp855
I64
aI128
aI253
aI45
aa(lp856
I15
aI132
aI241
aI3
aI0
aI0
aa(lp857
I72
aI137
aI68
aI36
aI32
aa(lp858
I232
aI3
aI233
aI255
aI255
aa(lp859
I72
aI137
aI197
aa(lp860
I199
aI69
aI0
aI0
aI0
aI0
aI0
aa(lp861
I72
aI199
aI4
aI36
aI0
aI0
aI0
aI0
aa(lp862
I72
aI137
aI230
aa(lp863
I49
aI210
aa(lp864
I49
aI201
aa(lp865
I72
aI137
aI223
aa(lp866
I232
aI114
aI234
aI255
aI255
aa(lp867
I72
aI137
aI199
aa(lp868
I76
aI139
aI60
aI36
aa(lp869
I73
aI57
aI223
aa(lp870
I72
aI137
aI108
aI36
aI48
aa(lp871
I139
aI69
aI0
aa(lp872
I116
aI68
aa(lp873
I133
aI192
aa(lp874
I116
aI10
aa(lp875
I72
aI141
aI79
aI1
aa(lp876
I72
aI131
aI249
aI1
aa(lp877
I118
aI62
aa(lp878
I69
aI49
aI192
aa(lp879
I77
aI133
aI255
aa(lp880
I15
aI132
aI141
aI3
aI0
aI0
aa(lp881
I65
aI128
aI63
aI0
aa(lp882
I15
aI132
aI131
aI3
aI0
aI0
aa(lp883
I72
aI137
aI124
aI36
aI24
aa(lp884
I76
aI137
aI108
aI36
aI40
aa(lp885
I76
aI137
aI116
aI36
aI8
aa(lp886
I69
aI49
aI237
aa(lp887
I184
aI0
aI4
aI0
aI0
aa(lp888
I72
aI137
aI68
aI36
aI16
aa(lp889
I49
aI237
aa(lp890
I235
aI36
aa(lp891
I133
aI192
aa(lp892
I15
aI132
aI102
aI3
aI0
aI0
aa(lp893
I247
aI216
aa(lp894
I65
aI137
aI196
aa(lp895
I69
aI133
aI228
aa(lp896
I15
aI137
aI100
aI3
aI0
aI0
aa(lp897
I233
aI83
aI3
aI0
aI0
aa(lp898
I72
aI137
aI28
aI36
aa(lp899
I49
aI237
aa(lp900
I73
aI137
aI223
aa(lp901
I65
aI138
aI71
aI1
aa(lp902
I60
aI97
aa(lp903
I126
aI30
aa(lp904
I60
aI98
aa(lp905
I116
aI30
aa(lp906
I60
aI105
aa(lp907
I117
aI46
aa(lp908
I65
aI138
aI71
aI2
aa(lp909
I12
aI32
aa(lp910
I60
aI98
aa(lp911
I117
aI36
aa(lp912
I65
aI128
aI127
aI3
aI0
aa(lp913
I117
aI29
aa(lp914
I233
aI82
aI1
aI0
aI0
aa(lp915
I60
aI66
aa(lp916
I117
aI12
aa(lp917
I65
aI128
aI127
aI2
aI0
aa(lp918
I117
aI13
aa(lp919
I233
aI56
aI1
aI0
aI0
aa(lp920
I132
aI192
aa(lp921
I15
aI132
aI58
aI1
aI0
aI0
aa(lp922
I232
aI147
aI232
aI255
aI255
aa(lp923
I72
aI133
aI192
aa(lp924
I116
aI31
aa(lp925
I72
aI139
aI24
aa(lp926
I72
aI133
aI219
aa(lp927
I116
aI23
aa(lp928
I72
aI137
aI223
aa(lp929
I232
aI254
aI232
aI255
aI255
aa(lp930
I73
aI137
aI198
aa(lp931
I176
aI1
aa(lp932
I72
aI133
aI237
aa(lp933
I116
aI21
aa(lp934
I233
aI227
aI2
aI0
aI0
aa(lp935
I49
aI192
aa(lp936
I49
aI219
aa(lp937
I69
aI49
aI246
aa(lp938
I72
aI133
aI237
aa(lp939
I15
aI133
aI211
aI2
aI0
aI0
aa(lp940
I65
aI128
aI63
aI0
aa(lp941
I15
aI149
aI193
aa(lp942
I48
aI193
aa(lp943
I246
aI209
aa(lp944
I32
aI193
aa(lp945
I128
aI249
aI1
aa(lp946
I15
aI133
aI189
aI2
aI0
aI0
aa(lp947
I72
aI137
aI223
aa(lp948
I76
aI137
aI254
aa(lp949
I76
aI137
aI242
aa(lp950
I232
aI219
aI231
aI255
aI255
aa(lp951
I133
aI192
aa(lp952
I15
aI133
aI167
aI2
aI0
aI0
aa(lp953
I75
aI141
aI28
aI55
aa(lp954
I67
aI138
aI4
aI55
aa(lp955
I60
aI48
aa(lp956
I117
aI23
aa(lp957
I72
aI139
aI76
aI36
aI32
aa(lp958
I102
aI144
aa(lp959
I65
aI255
aI197
aa(lp960
I15
aI182
aI67
aI1
aa(lp961
I72
aI255
aI195
aa(lp962
I60
aI48
aa(lp963
I116
aI242
aa(lp964
I235
aI5
aa(lp965
I72
aI139
aI76
aI36
aI32
aa(lp966
I72
aI139
aI9
aa(lp967
I72
aI15
aI190
aI192
aa(lp968
I15
aI183
aI4
aI65
aa(lp969
I247
aI208
aa(lp970
I13
aI255
aI247
aI0
aI0
aa(lp971
I15
aI183
aI192
aa(lp972
I61
aI255
aI255
aI0
aI0
aa(lp973
I15
aI132
aI12
aI255
aI255
aI255
aa(lp974
I72
aI139
aI108
aI36
aI48
aa(lp975
I199
aI69
aI0
aI0
aI0
aI0
aI0
aa(lp976
I72
aI199
aI4
aI36
aI0
aI0
aI0
aI0
aa(lp977
I49
aI210
aa(lp978
I49
aI201
aa(lp979
I72
aI137
aI223
aa(lp980
I72
aI137
aI230
aa(lp981
I232
aI232
aI232
aI255
aI255
aa(lp982
I76
aI139
aI60
aI36
aa(lp983
I73
aI57
aI223
aa(lp984
I139
aI77
aI0
aa(lp985
I116
aI57
aa(lp986
I133
aI201
aa(lp987
I116
aI12
aa(lp988
I72
aI141
aI80
aI1
aa(lp989
I72
aI131
aI250
aI1
aa(lp990
I119
aI16
aa(lp991
I235
aI49
aa(lp992
I72
aI133
aI192
aa(lp993
I189
aI0
aI0
aI0
aI0
aa(lp994
I15
aI132
aI200
aI254
aI255
aI255
aa(lp995
I77
aI133
aI255
aa(lp996
I15
aI132
aI9
aI2
aI0
aI0
aa(lp997
I65
aI128
aI63
aI0
aa(lp998
I72
aI137
aI197
aa(lp999
I15
aI133
aI178
aI254
aI255
aI255
aa(lp1000
I233
aI247
aI1
aI0
aI0
aa(lp1001
I133
aI201
aa(lp1002
I15
aI132
aI239
aI1
aI0
aI0
aa(lp1003
I247
aI217
aa(lp1004
I65
aI137
aI204
aa(lp1005
I69
aI133
aI228
aa(lp1006
I15
aI137
aI237
aI1
aI0
aI0
aa(lp1007
I233
aI220
aI1
aI0
aI0
aa(lp1008
I184
aI232
aI3
aI0
aI0
aa(lp1009
I72
aI137
aI68
aI36
aI16
aa(lp1010
I69
aI15
aI190
aI55
aa(lp1011
I72
aI141
aI29
aI115
aI41
aI0
aI0
aa(lp1012
I186
aI9
aI0
aI0
aI0
aa(lp1013
I72
aI137
aI223
aa(lp1014
I68
aI137
aI246
aa(lp1015
I232
aI227
aI232
aI255
aI255
aa(lp1016
I72
aI133
aI192
aa(lp1017
I117
aI32
aa(lp1018
I72
aI141
aI29
aI96
aI41
aI0
aI0
aa(lp1019
I186
aI9
aI0
aI0
aI0
aa(lp1020
I72
aI137
aI223
aa(lp1021
I68
aI137
aI246
aa(lp1022
I232
aI199
aI232
aI255
aI255
aa(lp1023
I72
aI133
aI192
aa(lp1024
I15
aI132
aI146
aI1
aI0
aI0
aa(lp1025
I72
aI185
aI124
aI90
aI133
aI200
aI176
aa(lp1026
I132
aI55
aI208
aa(lp1027
I141
aI113
aI1
aa(lp1028
I41
aI222
aa(lp1029
I41
aI206
aa(lp1030
I247
aI216
aa(lp1031
I41
aI198
aa(lp1032
I116
aI51
aa(lp1033
I72
aI199
aI192
aI255
aI255
aI255
aI255
aa(lp1034
I49
aI210
aa(lp1035
I72
aI139
aI92
aI36
aI16
aa(lp1036
I72
aI247
aI243
aa(lp1037
I137
aI241
aa(lp1038
I247
aI217
aa(lp1039
I137
aI242
aa(lp1040
I73
aI137
aI236
aa(lp1041
I72
aI139
aI124
aI36
aI24
aa(lp1042
I72
aI57
aI248
aa(lp1043
I114
aI33
aa(lp1044
I255
aI202
aa(lp1045
I72
aI15
aI175
aI251
aa(lp1046
I255
aI193
aa(lp1047
I117
aI241
aa(lp1048
I69
aI49
aI192
aa(lp1049
I235
aI24
aa(lp1050
I69
aI49
aI192
aa(lp1051
I73
aI137
aI236
aa(lp1052
I72
aI139
aI124
aI36
aI24
aa(lp1053
I72
aI139
aI92
aI36
aI16
aa(lp1054
I235
aI6
aa(lp1055
I65
aI184
aI222
aI255
aI255
aI255
aa(lp1056
I72
aI139
aI68
aI36
aI40
aa(lp1057
I72
aI133
aI192
aa(lp1058
I116
aI2
aa(lp1059
I137
aI48
aa(lp1060
I77
aI133
aI228
aa(lp1061
I15
aI148
aI192
aa(lp1062
I133
aI246
aa(lp1063
I15
aI148
aI193
aa(lp1064
I8
aI193
aa(lp1065
I128
aI249
aI1
aa(lp1066
I15
aI132
aI254
aI0
aI0
aI0
aa(lp1067
I176
aI1
aa(lp1068
I132
aI192
aa(lp1069
I15
aI132
aI244
aI0
aI0
aI0
aa(lp1070
I72
aI199
aI192
aI255
aI255
aI255
aI255
aa(lp1071
I49
aI210
aa(lp1072
I72
aI247
aI243
aa(lp1073
I137
aI242
aa(lp1074
I247
aI218
aa(lp1075
I65
aI187
aI1
aI0
aI0
aI0
aa(lp1076
I76
aI57
aI216
aa(lp1077
I114
aI10
aa(lp1078
I255
aI206
aa(lp1079
I76
aI15
aI175
aI219
aa(lp1080
I255
aI194
aa(lp1081
I117
aI241
aa(lp1082
I190
aI10
aI0
aI0
aI0
aa(lp1083
I73
aI131
aI252
aI11
aa(lp1084
I114
aI12
aa(lp1085
I72
aI1
aI246
aa(lp1086
I72
aI141
aI52
aI182
aa(lp1087
I76
aI57
aI230
aa(lp1088
I114
aI244
aa(lp1089
I73
aI137
aI255
aa(lp1090
I69
aI133
aI237
aa(lp1091
I126
aI58
aa(lp1092
I65
aI141
aI85
aI255
aa(lp1093
I68
aI137
aI237
aa(lp1094
I131
aI245
aI248
aa(lp1095
I49
aI192
aa(lp1096
I68
aI33
aI237
aa(lp1097
I116
aI17
aa(lp1098
I137
aI239
aa(lp1099
I72
aI1
aI246
aa(lp1100
I72
aI141
aI52
aI182
aa(lp1101
I255
aI192
aa(lp1102
I255
aI207
aa(lp1103
I57
aI197
aa(lp1104
I117
aI241
aa(lp1105
I131
aI250
aI7
aa(lp1106
I114
aI19
aa(lp1107
I65
aI41
aI197
aa(lp1108
I72
aI105
aI246
aI0
aI225
aI245
aI5
aa(lp1109
I131
aI192
aI8
aa(lp1110
I65
aI131
aI197
aI248
aa(lp1111
I117
aI240
aa(lp1112
I189
aI1
aI0
aI0
aI0
aa(lp1113
I73
aI185
aI205
aI204
aI204
aI204
aI204
aa(lp1114
I204
aI204
aI204
aa(lp1115
I73
aI186
aI238
aI231
aI123
aI55
aI235
aa(lp1116
I148
aI248
aI1
aa(lp1117
I76
aI139
aI116
aI36
aI8
aa(lp1118
I76
aI137
aI224
aa(lp1119
I73
aI247
aI225
aa(lp1120
I72
aI137
aI215
aa(lp1121
I72
aI193
aI239
aI3
aa(lp1122
I72
aI141
aI4
aI63
aa(lp1123
I72
aI141
aI4
aI128
aa(lp1124
I72
aI141
aI92
aI45
aI0
aa(lp1125
I76
aI137
aI225
aa(lp1126
I72
aI41
aI193
aa(lp1127
I116
aI36
aa(lp1128
I49
aI210
aa(lp1129
I72
aI137
aI240
aa(lp1130
I72
aI247
aI245
aa(lp1131
I49
aI210
aa(lp1132
I72
aI247
aI241
aa(lp1133
I72
aI137
aI197
aa(lp1134
I49
aI210
aa(lp1135
I76
aI137
aI216
aa(lp1136
I72
aI247
aI245
aa(lp1137
I76
aI41
aI208
aa(lp1138
I76
aI1
aI248
aa(lp1139
I76
aI1
aI208
aa(lp1140
I73
aI137
aI199
aa(lp1141
I72
aI141
aI44
aI155
aa(lp1142
I73
aI131
aI252
aI9
aa(lp1143
I73
aI137
aI252
aa(lp1144
I119
aI173
aa(lp1145
I76
aI137
aI255
aa(lp1146
I235
aI5
aa(lp1147
I76
aI139
aI116
aI36
aI8
aa(lp1148
I73
aI137
aI62
aa(lp1149
I69
aI137
aI196
aa(lp1150
I69
aI133
aI228
aa(lp1151
I121
aI12
aa(lp1152
I68
aI137
aI227
aa(lp1153
I247
aI219
aa(lp1154
I232
aI18
aI229
aI255
aI255
aa(lp1155
I137
aI24
aa(lp1156
I68
aI137
aI224
aa(lp1157
I72
aI131
aI196
aI56
aa(lp1158
I91
aa(lp1159
I65
aI92
aa(lp1160
I65
aI93
aa(lp1161
I65
aI94
aa(lp1162
I65
aI95
aa(lp1163
I93
aa(lp1164
I195
aasg13
(I4205520
I4206690
tp1165
sg14
I3
sg15
g16
ssS'string_to_idarray'
p1166
(dp1167
g7
g8
sg9
(lp1168
sg11
(lp1169
(lp1170
I85
aa(lp1171
I65
aI87
aa(lp1172
I65
aI86
aa(lp1173
I65
aI85
aa(lp1174
I65
aI84
aa(lp1175
I83
aa(lp1176
I80
aa(lp1177
I73
aI137
aI204
aa(lp1178
I73
aI137
aI213
aa(lp1179
I73
aI137
aI247
aa(lp1180
I72
aI137
aI251
aa(lp1181
I184
aI255
aI255
aI255
aI255
aa(lp1182
I72
aI133
aI219
aa(lp1183
I15
aI132
aI211
aI0
aI0
aI0
aa(lp1184
I64
aI138
aI51
aa(lp1185
I77
aI133
aI255
aa(lp1186
I15
aI148
aI193
aa(lp1187
I64
aI132
aI246
aa(lp1188
I15
aI148
aI194
aa(lp1189
I8
aI202
aa(lp1190
I77
aI133
aI237
aa(lp1191
I15
aI149
aI193
aa(lp1192
I48
aI202
aa(lp1193
I32
aI202
aa(lp1194
I77
aI133
aI228
aa(lp1195
I15
aI149
aI193
aa(lp1196
I48
aI209
aa(lp1197
I128
aI249
aI1
aa(lp1198
I15
aI132
aI167
aI0
aI0
aI0
aa(lp1199
I77
aI133
aI228
aa(lp1200
I15
aI132
aI158
aI0
aI0
aI0
aa(lp1201
I64
aI132
aI246
aa(lp1202
I15
aI132
aI131
aI0
aI0
aI0
aa(lp1203
I72
aI255
aI195
aa(lp1204
I49
aI210
aa(lp1205
I49
aI255
aa(lp1206
I49
aI237
aa(lp1207
I15
aI31
aI64
aI0
aa(lp1208
I76
aI57
aI237
aa(lp1209
I115
aI119
aa(lp1210
I76
aI141
aI115
aI255
aa(lp1211
I72
aI133
aI255
aa(lp1212
I73
aI15
aI68
aI254
aa(lp1213
I64
aI128
aI254
aI44
aa(lp1214
I76
aI15
aI69
aI242
aa(lp1215
I128
aI59
aI0
aa(lp1216
I76
aI15
aI68
aI243
aa(lp1217
I72
aI133
aI255
aa(lp1218
I15
aI149
aI192
aa(lp1219
I77
aI133
aI246
aa(lp1220
I15
aI149
aI193
aa(lp1221
I48
aI193
aa(lp1222
I117
aI58
aa(lp1223
I72
aI133
aI255
aa(lp1224
I116
aI53
aa(lp1225
I73
aI57
aI254
aa(lp1226
I118
aI74
aa(lp1227
I72
aI184
aI109
aI95
aI60
aI85
aI177
aa(lp1228
I215
aI248
aI140
aa(lp1229
I73
aI141
aI52
aI6
aa(lp1230
I72
aI41
aI254
aa(lp1231
I72
aI41
aI198
aa(lp1232
I65
aI255
aI212
aa(lp1233
I131
aI248
aI255
aa(lp1234
I116
aI46
aa(lp1235
I65
aI137
aI4
aI175
aa(lp1236
I72
aI255
aI197
aa(lp1237
I65
aI128
aI62
aI0
aa(lp1238
I186
aI0
aI0
aI0
aI0
aa(lp1239
I116
aI17
aa(lp1240
I49
aI255
aa(lp1241
I15
aI182
aI51
aa(lp1242
I72
aI255
aI195
aa(lp1243
I64
aI132
aI246
aa(lp1244
I117
aI140
aa(lp1245
I235
aI2
aa(lp1246
I49
aI237
aa(lp1247
I137
aI232
aa(lp1248
I235
aI12
aa(lp1249
I184
aI254
aI255
aI255
aI255
aa(lp1250
I235
aI5
aa(lp1251
I184
aI255
aI255
aI255
aI255
aa(lp1252
I72
aI131
aI196
aI8
aa(lp1253
I91
aa(lp1254
I65
aI92
aa(lp1255
I65
aI93
aa(lp1256
I65
aI94
aa(lp1257
I65
aI95
aa(lp1258
I93
aa(lp1259
I195
aasg13
(tsg14
I4
sg15
g16
ssS'lookup_table'
p1260
(dp1261
g7
g8
sg9
(lp1262
sg11
(lp1263
sg13
(tsg14
I2
sg15
g16
ssS'split'
p1264
(dp1265
g7
g8
sg9
(lp1266
sg11
(lp1267
(lp1268
I85
aa(lp1269
I65
aI87
aa(lp1270
I65
aI86
aa(lp1271
I65
aI85
aa(lp1272
I65
aI84
aa(lp1273
I83
aa(lp1274
I72
aI131
aI236
aI40
aa(lp1275
I137
aI205
aa(lp1276
I73
aI137
aI215
aa(lp1277
I73
aI137
aI254
aa(lp1278
I73
aI139
aI30
aa(lp1279
I128
aI59
aI0
aa(lp1280
I15
aI132
aI67
aI2
aI0
aI0
aa(lp1281
I72
aI137
aI116
aI36
aI32
aa(lp1282
I72
aI137
aI223
aa(lp1283
I76
aI137
aI254
aa(lp1284
I232
aI254
aI207
aI255
aI255
aa(lp1285
I76
aI141
aI44
aI3
aa(lp1286
I76
aI15
aI190
aI36
aI3
aa(lp1287
I77
aI133
aI228
aa(lp1288
I15
aI132
aI30
aI2
aI0
aI0
aa(lp1289
I133
aI237
aa(lp1290
I15
aI132
aI214
aI0
aI0
aI0
aa(lp1291
I68
aI137
aI225
aa(lp1292
I186
aI1
aI0
aI0
aI0
aa(lp1293
I72
aI211
aI226
aa(lp1294
I72
aI190
aI1
aI0
aI0
aI0
aI132
aa(lp1295
I0
aI0
aI0
aa(lp1296
I72
aI49
aI214
aa(lp1297
I72
aI247
aI214
aa(lp1298
I72
aI131
aI249
aI63
aa(lp1299
I15
aI151
aI194
aa(lp1300
I72
aI15
aI163
aI206
aa(lp1301
I15
aI147
aI193
aa(lp1302
I8
aI209
aa(lp1303
I128
aI249
aI1
aa(lp1304
I15
aI132
aI189
aI0
aI0
aI0
aa(lp1305
I177
aI1
aa(lp1306
I132
aI201
aa(lp1307
I15
aI132
aI179
aI0
aI0
aI0
aa(lp1308
I68
aI136
aI100
aI36
aI14
aa(lp1309
I198
aI68
aI36
aI15
aI0
aa(lp1310
I65
aI138
aI85
aI1
aa(lp1311
I132
aI210
aa(lp1312
I15
aI132
aI83
aI1
aI0
aI0
aa(lp1313
I76
aI137
aI124
aI36
aI16
aa(lp1314
I76
aI137
aI116
aI36
aI24
aa(lp1315
I76
aI141
aI116
aI3
aI2
aa(lp1316
I49
aI201
aa(lp1317
I72
aI187
aI117
aI118
aI225
aI236
aI253
aa(lp1318
I234
aI125
aI104
aa(lp1319
I49
aI237
aa(lp1320
I49
aI192
aa(lp1321
I144
aa(lp1322
I73
aI137
aI207
aa(lp1323
I133
aI192
aa(lp1324
I184
aI0
aI0
aI0
aI0
aa(lp1325
I117
aI52
aa(lp1326
I184
aI1
aI0
aI0
aI0
aa(lp1327
I128
aI250
aI92
aa(lp1328
I116
aI42
aa(lp1329
I15
aI190
aI242
aa(lp1330
I72
aI141
aI124
aI36
aI14
aa(lp1331
I232
aI141
aI206
aI255
aI255
aa(lp1332
I72
aI133
aI192
aa(lp1333
I184
aI0
aI0
aI0
aI0
aa(lp1334
I15
aI133
aI146
aI1
aI0
aI0
aa(lp1335
I102
aI102
aI102
aI102
aI102
aI102
aI46
aa(lp1336
I15
aI31
aI132
aI0
aI0
aI0
aI0
aI0
aa(lp1337
I73
aI141
aI76
aI31
aI1
aa(lp1338
I72
aI41
aI217
aa(lp1339
I255
aI197
aa(lp1340
I67
aI15
aI182
aI20
aI62
aa(lp1341
I132
aI210
aa(lp1342
I117
aI173
aa(lp1343
I76
aI139
aI116
aI36
aI24
aa(lp1344
I76
aI139
aI124
aI36
aI16
aa(lp1345
I233
aI213
aI0
aI0
aI0
aa(lp1346
I76
aI137
aI239
aa(lp1347
I76
aI137
aI254
aa(lp1348
I232
aI35
aI207
aI255
aI255
aa(lp1349
I72
aI137
aI195
aa(lp1350
I72
aI139
aI68
aI36
aI32
aa(lp1351
I72
aI137
aI24
aa(lp1352
I233
aI174
aI0
aI0
aI0
aa(lp1353
I76
aI137
aI124
aI36
aI16
aa(lp1354
I76
aI137
aI116
aI36
aI24
aa(lp1355
I76
aI141
aI124
aI3
aI1
aa(lp1356
I49
aI201
aa(lp1357
I72
aI189
aI220
aI84
aI8
aI33
aI16
aa(lp1358
I231
aI189
aI218
aa(lp1359
I69
aI49
aI246
aa(lp1360
I49
aI192
aa(lp1361
I15
aI31
aI0
aa(lp1362
I72
aI137
aI203
aa(lp1363
I133
aI192
aa(lp1364
I184
aI0
aI0
aI0
aI0
aa(lp1365
I117
aI52
aa(lp1366
I184
aI1
aI0
aI0
aI0
aa(lp1367
I65
aI128
aI252
aI92
aa(lp1368
I116
aI41
aa(lp1369
I65
aI15
aI190
aI244
aa(lp1370
I72
aI139
aI124
aI36
aI16
aa(lp1371
I232
aI235
aI205
aI255
aI255
aa(lp1372
I72
aI133
aI192
aa(lp1373
I184
aI0
aI0
aI0
aI0
aa(lp1374
I15
aI133
aI231
aI0
aI0
aI0
aa(lp1375
I102
aI102
aI102
aI102
aI46
aI15
aI31
aa(lp1376
I132
aI0
aI0
aI0
aI0
aI0
aa(lp1377
I72
aI141
aI76
aI43
aI1
aa(lp1378
I72
aI41
aI233
aa(lp1379
I65
aI255
aI198
aa(lp1380
I69
aI138
aI36
aI31
aa(lp1381
I69
aI132
aI228
aa(lp1382
I117
aI172
aa(lp1383
I76
aI139
aI116
aI36
aI24
aa(lp1384
I72
aI139
aI124
aI36
aI16
aa(lp1385
I72
aI139
aI84
aI36
aI32
aa(lp1386
I129
aI193
aI70
aI30
aI240
aI102
aa(lp1387
I41
aI193
aa(lp1388
I129
aI193
aI186
aI225
aI15
aI153
aa(lp1389
I72
aI99
aI217
aa(lp1390
I72
aI137
aI26
aa(lp1391
I65
aI15
aI190
aI116
aI29
aI0
aa(lp1392
I133
aI246
aa(lp1393
I116
aI10
aa(lp1394
I232
aI138
aI205
aI255
aI255
aa(lp1395
I72
aI133
aI192
aa(lp1396
I116
aI119
aa(lp1397
I76
aI1
aI235
aa(lp1398
I73
aI137
aI30
aa(lp1399
I235
aI117
aa(lp1400
I49
aI192
aa(lp1401
I49
aI201
aa(lp1402
I129
aI193
aI63
aI128
aI41
aI224
aa(lp1403
I41
aI193
aa(lp1404
I129
aI193
aI193
aI127
aI214
aI31
aa(lp1405
I72
aI99
aI217
aa(lp1406
I72
aI139
aI68
aI36
aI32
aa(lp1407
I72
aI137
aI24
aa(lp1408
I65
aI138
aI68
aI29
aI1
aa(lp1409
I132
aI192
aa(lp1410
I15
aI148
aI193
aa(lp1411
I68
aI56
aI224
aa(lp1412
I15
aI149
aI192
aa(lp1413
I8
aI200
aa(lp1414
I60
aI1
aa(lp1415
I116
aI60
aa(lp1416
I176
aI1
aa(lp1417
I132
aI192
aa(lp1418
I116
aI54
aa(lp1419
I72
aI184
aI99
aI80
aI45
aI142
aI225
aa(lp1420
I103
aI148
aI145
aa(lp1421
I72
aI141
aI76
aI3
aI2
aa(lp1422
I72
aI41
aI193
aa(lp1423
I65
aI15
aI190
aI116
aI13
aI0
aa(lp1424
I133
aI246
aa(lp1425
I116
aI13
aa(lp1426
I76
aI137
aI255
aa(lp1427
I232
aI32
aI205
aI255
aI255
aa(lp1428
I72
aI133
aI192
aa(lp1429
I116
aI13
aa(lp1430
I73
aI141
aI68
aI29
aI2
aa(lp1431
I73
aI255
aI197
aa(lp1432
I73
aI137
aI6
aa(lp1433
I235
aI6
aa(lp1434
I77
aI137
aI46
aa(lp1435
I69
aI49
aI237
aa(lp1436
I76
aI137
aI232
aa(lp1437
I72
aI131
aI196
aI40
aa(lp1438
I91
aa(lp1439
I65
aI92
aa(lp1440
I65
aI93
aa(lp1441
I65
aI94
aa(lp1442
I65
aI95
aa(lp1443
I93
aa(lp1444
I195
aasg13
(I4212496
I4213149
tp1445
sg14
I4
sg15
g16
ssS'strtoimax'
p1446
(dp1447
g7
g8
sg9
(lp1448
sg11
(lp1449
sg13
(tsg14
I3
sg15
g16
ssS'strtos16_or_err'
p1450
(dp1451
g7
g8
sg9
(lp1452
sg11
(lp1453
(lp1454
I65
aI86
aa(lp1455
I83
aa(lp1456
I80
aa(lp1457
I73
aI137
aI246
aa(lp1458
I72
aI137
aI251
aa(lp1459
I232
aI113
aI1
aI0
aI0
aa(lp1460
I185
aI0
aI0
aI0
aI128
aa(lp1461
I72
aI247
aI217
aa(lp1462
I72
aI41
aI193
aa(lp1463
I72
aI247
aI217
aa(lp1464
I72
aI193
aI233
aI32
aa(lp1465
I117
aI27
aa(lp1466
I137
aI193
aa(lp1467
I247
aI217
aa(lp1468
I186
aI0
aI128
aI0
aI0
aa(lp1469
I41
aI202
aa(lp1470
I129
aI250
aI0
aI0
aI1
aI0
aa(lp1471
I115
aI8
aa(lp1472
I72
aI131
aI196
aI8
aa(lp1473
I91
aa(lp1474
I65
aI94
aa(lp1475
I195
aasg13
(I4207424
I4207523
tp1476
sg14
I2
sg15
g16
ssS'usage'
p1477
(dp1478
g7
g8
sg9
(lp1479
sg11
(lp1480
sg13
(tsg14
I0
sg15
g16
ssS'string_to_bitarray'
p1481
(dp1482
g7
g8
sg9
(lp1483
sg11
(lp1484
(lp1485
I85
aa(lp1486
I65
aI87
aa(lp1487
I65
aI86
aa(lp1488
I65
aI85
aa(lp1489
I65
aI84
aa(lp1490
I83
aa(lp1491
I80
aa(lp1492
I73
aI137
aI214
aa(lp1493
I73
aI137
aI247
aa(lp1494
I72
aI137
aI251
aa(lp1495
I72
aI133
aI219
aa(lp1496
I15
aI149
aI192
aa(lp1497
I77
aI133
aI246
aa(lp1498
I15
aI149
aI193
aa(lp1499
I48
aI193
aa(lp1500
I246
aI209
aa(lp1501
I32
aI193
aa(lp1502
I77
aI133
aI255
aa(lp1503
I15
aI149
aI194
aa(lp1504
I48
aI202
aa(lp1505
I184
aI234
aI255
aI255
aI255
aa(lp1506
I128
aI250
aI1
aa(lp1507
I15
aI132
aI202
aI0
aI0
aI0
aa(lp1508
I77
aI133
aI255
aa(lp1509
I15
aI132
aI193
aI0
aI0
aI0
aa(lp1510
I138
aI11
aa(lp1511
I132
aI201
aa(lp1512
I15
aI132
aI181
aI0
aI0
aI0
aa(lp1513
I72
aI255
aI195
aa(lp1514
I69
aI49
aI237
aa(lp1515
I49
aI192
aa(lp1516
I102
aI15
aI31
aI132
aI0
aI0
aI0
aa(lp1517
I0
aI0
aa(lp1518
I76
aI141
aI99
aI255
aa(lp1519
I72
aI133
aI192
aa(lp1520
I73
aI15
aI68
aI196
aa(lp1521
I128
aI249
aI44
aa(lp1522
I77
aI15
aI69
aI229
aa(lp1523
I128
aI59
aI0
aa(lp1524
I76
aI15
aI68
aI227
aa(lp1525
I72
aI133
aI192
aa(lp1526
I15
aI148
aI193
aa(lp1527
I77
aI133
aI228
aa(lp1528
I15
aI148
aI194
aa(lp1529
I8
aI202
aa(lp1530
I128
aI250
aI1
aa(lp1531
I116
aI106
aa(lp1532
I177
aI1
aa(lp1533
I132
aI201
aa(lp1534
I116
aI100
aa(lp1535
I76
aI137
aI230
aa(lp1536
I72
aI41
aI198
aa(lp1537
I118
aI123
aa(lp1538
I72
aI137
aI199
aa(lp1539
I65
aI255
aI214
aa(lp1540
I133
aI192
aa(lp1541
I120
aI98
aa(lp1542
I137
aI193
aa(lp1543
I186
aI248
aI255
aI255
aI255
aa(lp1544
I49
aI209
aa(lp1545
I33
aI193
aa(lp1546
I186
aI1
aI0
aI0
aI0
aa(lp1547
I211
aI226
aa(lp1548
I193
aI232
aI3
aa(lp1549
I65
aI15
aI182
aI52
aI7
aa(lp1550
I137
aI247
aa(lp1551
I247
aI215
aa(lp1552
I189
aI254
aI255
aI255
aI255
aa(lp1553
I211
aI197
aa(lp1554
I137
aI249
aa(lp1555
I131
aI225
aI83
aa(lp1556
I129
aI230
aI172
aI0
aI0
aI0
aa(lp1557
I9
aI239
aa(lp1558
I131
aI229
aI83
aa(lp1559
I129
aI226
aI172
aI0
aI0
aI0
aa(lp1560
I9
aI206
aa(lp1561
I9
aI234
aa(lp1562
I49
aI242
aa(lp1563
I247
aI215
aa(lp1564
I9
aI215
aa(lp1565
I65
aI136
aI60
aI7
aa(lp1566
I49
aI192
aa(lp1567
I65
aI128
aI60
aI36
aI0
aa(lp1568
I116
aI16
aa(lp1569
I15
aI182
aI11
aa(lp1570
I72
aI255
aI195
aa(lp1571
I132
aI201
aa(lp1572
I15
aI133
aI92
aI255
aI255
aI255
aa(lp1573
I49
aI192
aa(lp1574
I72
aI131
aI196
aI8
aa(lp1575
I91
aa(lp1576
I65
aI92
aa(lp1577
I65
aI93
aa(lp1578
I65
aI94
aa(lp1579
I65
aI95
aa(lp1580
I93
aa(lp1581
I195
aasg13
(I4210640
I4210924
tp1582
sg14
I3
sg15
g16
ssS'main'
p1583
(dp1584
g7
g8
sg9
(lp1585
sg11
(lp1586
(lp1587
I85
aa(lp1588
I65
aI87
aa(lp1589
I65
aI86
aa(lp1590
I65
aI85
aa(lp1591
I65
aI84
aa(lp1592
I83
aa(lp1593
I72
aI129
aI236
aI216
aI0
aI0
aI0
aa(lp1594
I72
aI137
aI243
aa(lp1595
I65
aI137
aI253
aa(lp1596
I199
aI68
aI36
aI36
aI0
aI0
aI0
aI0
aa(lp1597
I199
aI68
aI36
aI32
aI0
aI0
aI0
aI0
aa(lp1598
I191
aI9
aI0
aI0
aI0
aa(lp1599
I190
aI96
aI41
aI64
aI0
aa(lp1600
I232
aI122
aI253
aI255
aI255
aa(lp1601
I191
aI2
aI0
aI0
aI0
aa(lp1602
I190
aI96
aI41
aI64
aI0
aa(lp1603
I232
aI107
aI253
aI255
aI255
aa(lp1604
I191
aI6
aI0
aI0
aI0
aa(lp1605
I190
aI87
aI84
aI64
aI0
aa(lp1606
I232
aI12
aI254
aI255
aI255
aa(lp1607
I191
aI41
aI81
aI64
aI0
aa(lp1608
I190
aI52
aI81
aI64
aI0
aa(lp1609
I232
aI205
aI251
aI255
aI255
aa(lp1610
I191
aI41
aI81
aI64
aI0
aa(lp1611
I232
aI147
aI251
aI255
aI255
aa(lp1612
I191
aI48
aI42
aI64
aI0
aa(lp1613
I232
aI233
aI47
aI0
aI0
aa(lp1614
I69
aI133
aI237
aa(lp1615
I15
aI132
aI15
aI14
aI0
aI0
aa(lp1616
I186
aI80
aI81
aI64
aI0
aa(lp1617
I185
aI160
aI76
aI64
aI0
aa(lp1618
I69
aI49
aI192
aa(lp1619
I68
aI137
aI239
aa(lp1620
I72
aI137
aI222
aa(lp1621
I232
aI216
aI251
aI255
aI255
aa(lp1622
I133
aI192
aa(lp1623
I15
aI136
aI120
aI3
aI0
aI0
aa(lp1624
I199
aI68
aI36
aI16
aI45
aI0
aI0
aI0
aa(lp1625
I199
aI68
aI36
aI24
aI1
aI0
aI0
aI0
aa(lp1626
I185
aI0
aI0
aI0
aI0
aa(lp1627
I72
aI137
aI76
aI36
aI40
aa(lp1628
I199
aI68
aI36
aI28
aI0
aI0
aI0
aI0
aa(lp1629
I69
aI49
aI228
aa(lp1630
I199
aI68
aI36
aI8
aI0
aI0
aI0
aI0
aa(lp1631
I65
aI191
aI45
aI0
aI0
aI0
aa(lp1632
I199
aI68
aI36
aI112
aI45
aI0
aI0
aI0
aa(lp1633
I15
aI31
aI68
aI0
aI0
aa(lp1634
I141
aI72
aI207
aa(lp1635
I131
aI249
aI66
aa(lp1636
I15
aI135
aI228
aI13
aI0
aI0
aa(lp1637
I137
aI197
aa(lp1638
I255
aI36
aI205
aI128
aI74
aI64
aI0
aa(lp1639
I137
aI68
aI36
aI112
aa(lp1640
I233
aI242
aI2
aI0
aI0
aa(lp1641
I68
aI137
aI253
aa(lp1642
I137
aI68
aI36
aI16
aa(lp1643
I233
aI233
aI2
aI0
aI0
aa(lp1644
I76
aI139
aI37
aI55
aI87
aI32
aI0
aa(lp1645
I233
aI218
aI2
aI0
aI0
aa(lp1646
I198
aI5
aI63
aI87
aI32
aI0
aI1
aa(lp1647
I233
aI206
aI2
aI0
aI0
aa(lp1648
I76
aI139
aI53
aI31
aI87
aI32
aI0
aa(lp1649
I190
aI122
aI83
aI64
aI0
aa(lp1650
I76
aI137
aI247
aa(lp1651
I232
aI106
aI253
aI255
aI255
aa(lp1652
I72
aI133
aI192
aa(lp1653
I72
aI139
aI84
aI36
aI40
aa(lp1654
I15
aI132
aI49
aI2
aI0
aI0
aa(lp1655
I102
aI102
aI102
aI46
aI15
aI31
aI132
aa(lp1656
I0
aI0
aI0
aI0
aI0
aa(lp1657
I72
aI141
aI104
aI1
aa(lp1658
I128
aI56
aI45
aa(lp1659
I72
aI15
aI69
aI232
aa(lp1660
I191
aI163
aI83
aI64
aI0
aa(lp1661
I72
aI137
aI238
aa(lp1662
I232
aI232
aI249
aI255
aI255
aa(lp1663
I133
aI192
aa(lp1664
I15
aI132
aI48
aI1
aI0
aI0
aa(lp1665
I191
aI170
aI83
aI64
aI0
aa(lp1666
I72
aI137
aI238
aa(lp1667
I232
aI211
aI249
aI255
aI255
aa(lp1668
I133
aI192
aa(lp1669
I15
aI132
aI43
aI1
aI0
aI0
aa(lp1670
I191
aI177
aI83
aI64
aI0
aa(lp1671
I72
aI137
aI238
aa(lp1672
I232
aI190
aI249
aI255
aI255
aa(lp1673
I133
aI192
aa(lp1674
I15
aI132
aI29
aI1
aI0
aI0
aa(lp1675
I191
aI184
aI83
aI64
aI0
aa(lp1676
I72
aI137
aI238
aa(lp1677
I232
aI169
aI249
aI255
aI255
aa(lp1678
I133
aI192
aa(lp1679
I15
aI132
aI15
aI1
aI0
aI0
aa(lp1680
I191
aI191
aI83
aI64
aI0
aa(lp1681
I72
aI137
aI238
aa(lp1682
I232
aI148
aI249
aI255
aI255
aa(lp1683
I133
aI192
aa(lp1684
I15
aI132
aI1
aI1
aI0
aI0
aa(lp1685
I191
aI197
aI83
aI64
aI0
aa(lp1686
I72
aI137
aI238
aa(lp1687
I232
aI127
aI249
aI255
aI255
aa(lp1688
I133
aI192
aa(lp1689
I15
aI132
aI243
aI0
aI0
aI0
aa(lp1690
I191
aI204
aI83
aI64
aI0
aa(lp1691
I72
aI137
aI238
aa(lp1692
I232
aI106
aI249
aI255
aI255
aa(lp1693
I133
aI192
aa(lp1694
I15
aI132
aI229
aI0
aI0
aI0
aa(lp1695
I191
aI210
aI83
aI64
aI0
aa(lp1696
I72
aI137
aI238
aa(lp1697
I232
aI85
aI249
aI255
aI255
aa(lp1698
I133
aI192
aa(lp1699
I15
aI132
aI215
aI0
aI0
aI0
aa(lp1700
I191
aI216
aI83
aI64
aI0
aa(lp1701
I72
aI137
aI238
aa(lp1702
I232
aI64
aI249
aI255
aI255
aa(lp1703
I133
aI192
aa(lp1704
I15
aI132
aI201
aI0
aI0
aI0
aa(lp1705
I191
aI222
aI83
aI64
aI0
aa(lp1706
I72
aI137
aI238
aa(lp1707
I232
aI43
aI249
aI255
aI255
aa(lp1708
I133
aI192
aa(lp1709
I15
aI132
aI187
aI0
aI0
aI0
aa(lp1710
I191
aI228
aI83
aI64
aI0
aa(lp1711
I72
aI137
aI238
aa(lp1712
I232
aI22
aI249
aI255
aI255
aa(lp1713
I133
aI192
aa(lp1714
I15
aI132
aI173
aI0
aI0
aI0
aa(lp1715
I191
aI233
aI83
aI64
aI0
aa(lp1716
I72
aI137
aI238
aa(lp1717
I232
aI1
aI249
aI255
aI255
aa(lp1718
I133
aI192
aa(lp1719
I15
aI132
aI159
aI0
aI0
aI0
aa(lp1720
I191
aI239
aI83
aI64
aI0
aa(lp1721
I72
aI137
aI238
aa(lp1722
I232
aI236
aI248
aI255
aI255
aa(lp1723
I133
aI192
aa(lp1724
I15
aI132
aI145
aI0
aI0
aI0
aa(lp1725
I191
aI245
aI83
aI64
aI0
aa(lp1726
I72
aI137
aI238
aa(lp1727
I232
aI215
aI248
aI255
aI255
aa(lp1728
I133
aI192
aa(lp1729
I15
aI132
aI131
aI0
aI0
aI0
aa(lp1730
I191
aI253
aI83
aI64
aI0
aa(lp1731
I72
aI137
aI238
aa(lp1732
I232
aI194
aI248
aI255
aI255
aa(lp1733
I133
aI192
aa(lp1734
I15
aI133
aI129
aI0
aI0
aI0
aa(lp1735
I184
aI160
aI80
aI64
aI0
aa(lp1736
I235
aI115
aa(lp1737
I15
aI31
aI0
aa(lp1738
I184
aI192
aI79
aI64
aI0
aa(lp1739
I235
aI105
aa(lp1740
I102
aI15
aI31
aI132
aI0
aI0
aI0
aa(lp1741
I0
aI0
aa(lp1742
I184
aI208
aI79
aI64
aI0
aa(lp1743
I235
aI89
aa(lp1744
I184
aI224
aI79
aI64
aI0
aa(lp1745
I235
aI82
aa(lp1746
I184
aI240
aI79
aI64
aI0
aa(lp1747
I235
aI75
aa(lp1748
I184
aI0
aI80
aI64
aI0
aa(lp1749
I235
aI68
aa(lp1750
I184
aI16
aI80
aI64
aI0
aa(lp1751
I235
aI61
aa(lp1752
I184
aI32
aI80
aI64
aI0
aa(lp1753
I235
aI54
aa(lp1754
I184
aI48
aI80
aI64
aI0
aa(lp1755
I235
aI47
aa(lp1756
I184
aI64
aI80
aI64
aI0
aa(lp1757
I235
aI40
aa(lp1758
I184
aI80
aI80
aI64
aI0
aa(lp1759
I235
aI33
aa(lp1760
I184
aI96
aI80
aI64
aI0
aa(lp1761
I235
aI26
aa(lp1762
I184
aI112
aI80
aI64
aI0
aa(lp1763
I235
aI19
aa(lp1764
I184
aI128
aI80
aI64
aI0
aa(lp1765
I235
aI12
aa(lp1766
I184
aI144
aI80
aI64
aI0
aa(lp1767
I15
aI31
aI128
aI0
aI0
aI0
aI0
aa(lp1768
I139
aI64
aI8
aa(lp1769
I133
aI192
aa(lp1770
I121
aI28
aa(lp1771
I49
aI255
aa(lp1772
I190
aI124
aI83
aI64
aI0
aa(lp1773
I186
aI5
aI0
aI0
aI0
aa(lp1774
I232
aI40
aI249
aI255
aI255
aa(lp1775
I72
aI137
aI239
aa(lp1776
I72
aI137
aI198
aa(lp1777
I232
aI141
aI22
aI0
aI0
aa(lp1778
I76
aI57
aI245
aa(lp1779
I118
aI11
aa(lp1780
I128
aI125
aI255
aI45
aa(lp1781
I72
aI141
aI76
aI36
aI32
aa(lp1782
I116
aI5
aa(lp1783
I72
aI141
aI76
aI36
aI36
aa(lp1784
I139
aI17
aa(lp1785
I137
aI214
aa(lp1786
I33
aI198
aa(lp1787
I49
aI194
aa(lp1788
I9
aI242
aa(lp1789
I137
aI17
aa(lp1790
I49
aI255
aa(lp1791
I190
aI122
aI83
aI64
aI0
aa(lp1792
I232
aI64
aI251
aI255
aI255
aa(lp1793
I72
aI133
aI192
aa(lp1794
I15
aI133
aI231
aI253
aI255
aI255
aa(lp1795
I139
aI68
aI36
aI36
aa(lp1796
I137
aI68
aI36
aI28
aa(lp1797
I139
aI84
aI36
aI32
aa(lp1798
I191
aI138
aI83
aI64
aI0
aa(lp1799
I49
aI192
aa(lp1800
I139
aI116
aI36
aI28
aa(lp1801
I72
aI137
aI84
aI36
aI40
aa(lp1802
I232
aI6
aI12
aI0
aI0
aa(lp1803
I235
aI100
aa(lp1804
I72
aI139
aI45
aI181
aI84
aI32
aI0
aa(lp1805
I49
aI255
aa(lp1806
I190
aI122
aI81
aI64
aI0
aa(lp1807
I186
aI5
aI0
aI0
aI0
aa(lp1808
I232
aI172
aI248
aI255
aI255
aa(lp1809
I72
aI137
aI239
aa(lp1810
I72
aI137
aI198
aa(lp1811
I232
aI209
aI23
aI0
aI0
aa(lp1812
I137
aI68
aI36
aI24
aa(lp1813
I131
aI248
aI10
aa(lp1814
I68
aI137
aI253
aa(lp1815
I126
aI56
aa(lp1816
I233
aI183
aI10
aI0
aI0
aa(lp1817
I72
aI139
aI45
aI129
aI84
aI32
aI0
aa(lp1818
I49
aI255
aa(lp1819
I190
aI99
aI81
aI64
aI0
aa(lp1820
I186
aI5
aI0
aI0
aI0
aa(lp1821
I232
aI120
aI248
aI255
aI255
aa(lp1822
I72
aI137
aI239
aa(lp1823
I72
aI137
aI198
aa(lp1824
I232
aI221
aI21
aI0
aI0
aa(lp1825
I137
aI68
aI36
aI8
aa(lp1826
I102
aI15
aI31
aI132
aI0
aI0
aI0
aa(lp1827
I0
aI0
aa(lp1828
I68
aI137
aI253
aa(lp1829
I186
aI80
aI81
aI64
aI0
aa(lp1830
I185
aI160
aI76
aI64
aI0
aa(lp1831
I69
aI49
aI192
aa(lp1832
I68
aI137
aI239
aa(lp1833
I72
aI137
aI222
aa(lp1834
I232
aI101
aI248
aI255
aI255
aa(lp1835
I133
aI192
aa(lp1836
I65
aI137
aI239
aa(lp1837
I15
aI137
aI202
aI252
aI255
aI255
aa(lp1838
I235
aI55
aa(lp1839
I49
aI192
aa(lp1840
I72
aI137
aI68
aI36
aI40
aa(lp1841
I199
aI68
aI36
aI24
aI1
aI0
aI0
aI0
aa(lp1842
I199
aI68
aI36
aI112
aI45
aI0
aI0
aI0
aa(lp1843
I199
aI68
aI36
aI28
aI0
aI0
aI0
aI0
aa(lp1844
I189
aI45
aI0
aI0
aI0
aa(lp1845
I199
aI68
aI36
aI16
aI45
aI0
aI0
aI0
aa(lp1846
I199
aI68
aI36
aI8
aI0
aI0
aI0
aI0
aa(lp1847
I69
aI49
aI228
aa(lp1848
I72
aI99
aI5
aI234
aI83
aI32
aI0
aa(lp1849
I65
aI129
aI197
aI236
aI81
aI99
aI115
aa(lp1850
I65
aI41
aI197
aa(lp1851
I65
aI129
aI253
aI238
aI81
aI99
aI115
aa(lp1852
I15
aI133
aI69
aI10
aI0
aI0
aa(lp1853
I76
aI139
aI44
aI195
aa(lp1854
I191
aI110
aI87
aI64
aI0
aa(lp1855
I76
aI137
aI238
aa(lp1856
I232
aI210
aI246
aI255
aI255
aa(lp1857
I133
aI192
aa(lp1858
I68
aI139
aI124
aI36
aI112
aa(lp1859
I15
aI132
aI135
aI1
aI0
aI0
aa(lp1860
I191
aI114
aI87
aI64
aI0
aa(lp1861
I76
aI137
aI238
aa(lp1862
I232
aI184
aI246
aI255
aI255
aa(lp1863
I133
aI192
aa(lp1864
I15
aI132
aI121
aI1
aI0
aI0
aa(lp1865
I191
aI119
aI87
aI64
aI0
aa(lp1866
I76
aI137
aI238
aa(lp1867
I232
aI163
aI246
aI255
aI255
aa(lp1868
I133
aI192
aa(lp1869
I15
aI132
aI107
aI1
aI0
aI0
aa(lp1870
I191
aI165
aI87
aI64
aI0
aa(lp1871
I76
aI137
aI238
aa(lp1872
I232
aI142
aI246
aI255
aI255
aa(lp1873
I133
aI192
aa(lp1874
I15
aI132
aI93
aI1
aI0
aI0
aa(lp1875
I191
aI198
aI83
aI64
aI0
aa(lp1876
I76
aI137
aI238
aa(lp1877
I232
aI121
aI246
aI255
aI255
aa(lp1878
I133
aI192
aa(lp1879
I15
aI132
aI79
aI1
aI0
aI0
aa(lp1880
I191
aI125
aI87
aI64
aI0
aa(lp1881
I76
aI137
aI238
aa(lp1882
I232
aI100
aI246
aI255
aI255
aa(lp1883
I133
aI192
aa(lp1884
I15
aI132
aI65
aI1
aI0
aI0
aa(lp1885
I191
aI126
aI87
aI64
aI0
aa(lp1886
I76
aI137
aI238
aa(lp1887
I232
aI79
aI246
aI255
aI255
aa(lp1888
I133
aI192
aa(lp1889
I15
aI132
aI51
aI1
aI0
aI0
aa(lp1890
I191
aI130
aI87
aI64
aI0
aa(lp1891
I76
aI137
aI238
aa(lp1892
I232
aI58
aI246
aI255
aI255
aa(lp1893
I133
aI192
aa(lp1894
I15
aI132
aI37
aI1
aI0
aI0
aa(lp1895
I191
aI136
aI87
aI64
aI0
aa(lp1896
I76
aI137
aI238
aa(lp1897
I232
aI37
aI246
aI255
aI255
aa(lp1898
I133
aI192
aa(lp1899
I15
aI132
aI23
aI1
aI0
aI0
aa(lp1900
I191
aI142
aI87
aI64
aI0
aa(lp1901
I76
aI137
aI238
aa(lp1902
I232
aI16
aI246
aI255
aI255
aa(lp1903
I133
aI192
aa(lp1904
I15
aI132
aI9
aI1
aI0
aI0
aa(lp1905
I191
aI147
aI87
aI64
aI0
aa(lp1906
I76
aI137
aI238
aa(lp1907
I232
aI251
aI245
aI255
aI255
aa(lp1908
I133
aI192
aa(lp1909
I15
aI132
aI251
aI0
aI0
aI0
aa(lp1910
I191
aI152
aI87
aI64
aI0
aa(lp1911
I76
aI137
aI238
aa(lp1912
I232
aI230
aI245
aI255
aI255
aa(lp1913
I133
aI192
aa(lp1914
I15
aI132
aI237
aI0
aI0
aI0
aa(lp1915
I191
aI161
aI87
aI64
aI0
aa(lp1916
I76
aI137
aI238
aa(lp1917
I232
aI209
aI245
aI255
aI255
aa(lp1918
I133
aI192
aa(lp1919
I15
aI132
aI223
aI0
aI0
aI0
aa(lp1920
I191
aI169
aI87
aI64
aI0
aa(lp1921
I76
aI137
aI238
aa(lp1922
I232
aI188
aI245
aI255
aI255
aa(lp1923
I133
aI192
aa(lp1924
I15
aI132
aI209
aI0
aI0
aI0
aa(lp1925
I191
aI173
aI87
aI64
aI0
aa(lp1926
I76
aI137
aI238
aa(lp1927
I232
aI167
aI245
aI255
aI255
aa(lp1928
I133
aI192
aa(lp1929
I15
aI132
aI195
aI0
aI0
aI0
aa(lp1930
I191
aI181
aI87
aI64
aI0
aa(lp1931
I76
aI137
aI238
aa(lp1932
I232
aI146
aI245
aI255
aI255
aa(lp1933
I133
aI192
aa(lp1934
I15
aI132
aI181
aI0
aI0
aI0
aa(lp1935
I191
aI186
aI87
aI64
aI0
aa(lp1936
I76
aI137
aI238
aa(lp1937
I232
aI125
aI245
aI255
aI255
aa(lp1938
I133
aI192
aa(lp1939
I15
aI132
aI167
aI0
aI0
aI0
aa(lp1940
I191
aI194
aI87
aI64
aI0
aa(lp1941
I76
aI137
aI238
aa(lp1942
I232
aI104
aI245
aI255
aI255
aa(lp1943
I133
aI192
aa(lp1944
I15
aI132
aI153
aI0
aI0
aI0
aa(lp1945
I191
aI198
aI87
aI64
aI0
aa(lp1946
I76
aI137
aI238
aa(lp1947
I232
aI83
aI245
aI255
aI255
aa(lp1948
I133
aI192
aa(lp1949
I15
aI132
aI139
aI0
aI0
aI0
aa(lp1950
I199
aI68
aI36
aI20
aI255
aI255
aI255
aa(lp1951
I255
aa(lp1952
I233
aI142
aI0
aI0
aI0
aa(lp1953
I184
aI128
aI78
aI64
aI0
aa(lp1954
I235
aI124
aa(lp1955
I184
aI144
aI78
aI64
aI0
aa(lp1956
I235
aI117
aa(lp1957
I184
aI160
aI78
aI64
aI0
aa(lp1958
I235
aI110
aa(lp1959
I184
aI176
aI78
aI64
aI0
aa(lp1960
I235
aI103
aa(lp1961
I184
aI192
aI78
aI64
aI0
aa(lp1962
I235
aI96
aa(lp1963
I184
aI208
aI78
aI64
aI0
aa(lp1964
I235
aI89
aa(lp1965
I184
aI224
aI78
aI64
aI0
aa(lp1966
I235
aI82
aa(lp1967
I184
aI240
aI78
aI64
aI0
aa(lp1968
I235
aI75
aa(lp1969
I184
aI0
aI79
aI64
aI0
aa(lp1970
I235
aI68
aa(lp1971
I184
aI16
aI79
aI64
aI0
aa(lp1972
I235
aI61
aa(lp1973
I184
aI32
aI79
aI64
aI0
aa(lp1974
I235
aI54
aa(lp1975
I184
aI48
aI79
aI64
aI0
aa(lp1976
I235
aI47
aa(lp1977
I184
aI64
aI79
aI64
aI0
aa(lp1978
I235
aI40
aa(lp1979
I184
aI80
aI79
aI64
aI0
aa(lp1980
I235
aI33
aa(lp1981
I184
aI96
aI79
aI64
aI0
aa(lp1982
I235
aI26
aa(lp1983
I184
aI112
aI79
aI64
aI0
aa(lp1984
I235
aI19
aa(lp1985
I184
aI128
aI79
aI64
aI0
aa(lp1986
I235
aI12
aa(lp1987
I184
aI144
aI79
aI64
aI0
aa(lp1988
I235
aI5
aa(lp1989
I184
aI160
aI79
aI64
aI0
aa(lp1990
I139
aI64
aI8
aa(lp1991
I137
aI68
aI36
aI20
aa(lp1992
I133
aI192
aa(lp1993
I121
aI32
aa(lp1994
I49
aI255
aa(lp1995
I190
aI5
aI82
aI64
aI0
aa(lp1996
I186
aI5
aI0
aI0
aI0
aa(lp1997
I232
aI159
aI245
aI255
aI255
aa(lp1998
I76
aI137
aI239
aa(lp1999
I72
aI137
aI198
aa(lp2000
I232
aI4
aI19
aI0
aI0
aa(lp2001
I137
aI68
aI36
aI20
aa(lp2002
I131
aI248
aI16
aa(lp2003
I117
aI62
aa(lp2004
I68
aI139
aI108
aI36
aI8
aa(lp2005
I69
aI133
aI237
aa(lp2006
I184
aI0
aI194
aI1
aI0
aa(lp2007
I68
aI15
aI68
aI232
aa(lp2008
I139
aI76
aI36
aI16
aa(lp2009
I131
aI249
aI45
aa(lp2010
I184
aI56
aI0
aI0
aI0
aa(lp2011
I15
aI68
aI200
aa(lp2012
I137
aI76
aI36
aI16
aa(lp2013
I65
aI131
aI255
aI45
aa(lp2014
I184
aI110
aI0
aI0
aI0
aa(lp2015
I68
aI15
aI68
aI248
aa(lp2016
I131
aI253
aI45
aa(lp2017
I184
aI49
aI0
aI0
aI0
aa(lp2018
I15
aI68
aI232
aa(lp2019
I235
aI5
aa(lp2020
I68
aI139
aI108
aI36
aI8
aa(lp2021
I139
aI5
aI50
aI81
aI32
aI0
aa(lp2022
I255
aI192
aa(lp2023
I72
aI152
aa(lp2024
I72
aI139
aI60
aI195
aa(lp2025
I190
aI2
aI1
aI0
aI0
aa(lp2026
I49
aI192
aa(lp2027
I72
aI137
aI124
aI36
aI8
aa(lp2028
I232
aI105
aI247
aI255
aI255
aa(lp2029
I65
aI137
aI198
aa(lp2030
I69
aI133
aI246
aa(lp2031
I15
aI136
aI214
aI7
aI0
aI0
aa(lp2032
I68
aI137
aI247
aa(lp2033
I232
aI133
aI244
aI255
aI255
aa(lp2034
I133
aI192
aa(lp2035
I139
aI92
aI36
aI16
aa(lp2036
I15
aI132
aI206
aI7
aI0
aI0
aa(lp2037
I191
aI77
aI82
aI64
aI0
aa(lp2038
I49
aI192
aa(lp2039
I72
aI139
aI116
aI36
aI8
aa(lp2040
I232
aI56
aI8
aI0
aI0
aa(lp2041
I72
aI141
aI116
aI36
aI48
aa(lp2042
I68
aI137
aI247
aa(lp2043
I232
aI11
aI247
aI255
aI255
aa(lp2044
I133
aI192
aa(lp2045
I15
aI136
aI208
aI7
aI0
aI0
aa(lp2046
I72
aI141
aI124
aI36
aI48
aa(lp2047
I232
aI217
aI246
aI255
aI255
aa(lp2048
I69
aI133
aI237
aa(lp2049
I116
aI90
aa(lp2050
I72
aI141
aI124
aI36
aI48
aa(lp2051
I68
aI137
aI238
aa(lp2052
I232
aI135
aI245
aI255
aI255
aa(lp2053
I133
aI192
aa(lp2054
I116
aI73
aa(lp2055
I191
aI206
aI87
aI64
aI0
aa(lp2056
I49
aI192
aa(lp2057
I232
aI247
aI7
aI0
aI0
aa(lp2058
I68
aI137
aI108
aI36
aI100
aa(lp2059
I68
aI137
aI108
aI36
aI104
aa(lp2060
I139
aI68
aI36
aI56
aa(lp2061
I137
aI193
aa(lp2062
I129
aI241
aI15
aI16
aI0
aI0
aa(lp2063
I33
aI193
aa(lp2064
I137
aI200
aa(lp2065
I247
aI208
aa(lp2066
I37
aI67
aI252
aI242
aI221
aa(lp2067
I137
aI202
aa(lp2068
I129
aI226
aI188
aI3
aI13
aI34
aa(lp2069
I9
aI194
aa(lp2070
I129
aI242
aI67
aI236
aI242
aI221
aa(lp2071
I129
aI225
aI0
aI16
aI0
aI0
aa(lp2072
I9
aI209
aa(lp2073
I137
aI76
aI36
aI56
aa(lp2074
I131
aI253
aI45
aa(lp2075
I116
aI44
aa(lp2076
I131
aI253
aI50
aa(lp2077
I116
aI21
aa(lp2078
I131
aI253
aI49
aa(lp2079
I15
aI133
aI96
aI7
aI0
aI0
aa(lp2080
I128
aI100
aI36
aI56
aI191
aa(lp2081
I131
aI251
aI45
aa(lp2082
I117
aI25
aa(lp2083
I235
aI107
aa(lp2084
I139
aI68
aI36
aI56
aa(lp2085
I137
aI193
aa(lp2086
I131
aI225
aI64
aa(lp2087
I131
aI240
aI64
aa(lp2088
I9
aI200
aa(lp2089
I137
aI68
aI36
aI56
aa(lp2090
I131
aI251
aI45
aa(lp2091
I116
aI84
aa(lp2092
I184
aI48
aI0
aI0
aI0
aa(lp2093
I131
aI251
aI56
aa(lp2094
I116
aI14
aa(lp2095
I131
aI251
aI55
aa(lp2096
I15
aI133
aI47
aI7
aI0
aI0
aa(lp2097
I184
aI32
aI0
aI0
aI0
aa(lp2098
I139
aI76
aI36
aI56
aa(lp2099
I137
aI202
aa(lp2100
I131
aI242
aI48
aa(lp2101
I33
aI202
aa(lp2102
I137
aI209
aa(lp2103
I247
aI209
aa(lp2104
I137
aI198
aa(lp2105
I247
aI214
aa(lp2106
I137
aI207
aa(lp2107
I129
aI231
aI247
aI242
aI31
aI239
aa(lp2108
I129
aI226
aI8
aI13
aI224
aI16
aa(lp2109
I9
aI241
aa(lp2110
I129
aI230
aI247
aI242
aI31
aI239
aa(lp2111
I37
aI8
aI13
aI224
aI16
aa(lp2112
I9
aI250
aa(lp2113
I9
aI240
aa(lp2114
I49
aI208
aa(lp2115
I247
aI209
aa(lp2116
I9
aI193
aa(lp2117
I137
aI76
aI36
aI56
aa(lp2118
I65
aI131
aI255
aI109
aa(lp2119
I127
aI64
aa(lp2120
I65
aI131
aI255
aI45
aa(lp2121
I116
aI95
aa(lp2122
I65
aI131
aI255
aI101
aa(lp2123
I15
aI133
aI221
aI6
aI0
aI0
aa(lp2124
I139
aI76
aI36
aI56
aa(lp2125
I137
aI200
aa(lp2126
I53
aI0
aI3
aI0
aI0
aa(lp2127
I33
aI200
aa(lp2128
I137
aI193
aa(lp2129
I247
aI209
aa(lp2130
I129
aI225
aI100
aI18
aI208
aI226
aa(lp2131
I137
aI194
aa(lp2132
I129
aI226
aI155
aI237
aI47
aI29
aa(lp2133
I9
aI202
aa(lp2134
I129
aI242
aI100
aI19
aI208
aI226
aa(lp2135
I37
aI0
aI1
aI0
aI0
aa(lp2136
I9
aI208
aa(lp2137
I235
aI52
aa(lp2138
I65
aI131
aI255
aI110
aa(lp2139
I116
aI37
aa(lp2140
I65
aI131
aI255
aI111
aa(lp2141
I15
aI133
aI157
aI6
aI0
aI0
aa(lp2142
I139
aI68
aI36
aI56
aa(lp2143
I137
aI193
aa(lp2144
I129
aI225
aI0
aI3
aI0
aI0
aa(lp2145
I53
aI0
aI3
aI0
aI0
aa(lp2146
I9
aI200
aa(lp2147
I235
aI15
aa(lp2148
I139
aI68
aI36
aI56
aa(lp2149
I235
aI13
aa(lp2150
I184
aI255
aI252
aI255
aI255
aa(lp2151
I35
aI68
aI36
aI56
aa(lp2152
I137
aI68
aI36
aI56
aa(lp2153
I137
aI193
aa(lp2154
I247
aI209
aa(lp2155
I129
aI225
aI83
aI141
aI138
aI47
aa(lp2156
I137
aI194
aa(lp2157
I129
aI226
aI172
aI114
aI117
aI208
aa(lp2158
I9
aI202
aa(lp2159
I129
aI242
aI211
aI141
aI138
aI47
aa(lp2160
I37
aI128
aI0
aI0
aI0
aa(lp2161
I9
aI208
aa(lp2162
I137
aI68
aI36
aI56
aa(lp2163
I139
aI76
aI36
aI48
aa(lp2164
I137
aI200
aa(lp2165
I247
aI208
aa(lp2166
I139
aI124
aI36
aI28
aa(lp2167
I137
aI250
aa(lp2168
I247
aI210
aa(lp2169
I137
aI198
aa(lp2170
I129
aI230
aI234
aI219
aI219
aI196
aa(lp2171
I129
aI225
aI21
aI36
aI36
aI59
aa(lp2172
I9
aI208
aa(lp2173
I129
aI226
aI234
aI219
aI219
aI196
aa(lp2174
I129
aI231
aI21
aI36
aI36
aI59
aa(lp2175
I9
aI241
aa(lp2176
I9
aI215
aa(lp2177
I49
aI207
aa(lp2178
I247
aI208
aa(lp2179
I9
aI248
aa(lp2180
I72
aI139
aI84
aI36
aI40
aa(lp2181
I137
aI209
aa(lp2182
I247
aI209
aa(lp2183
I129
aI225
aI87
aI36
aI97
aI163
aa(lp2184
I129
aI226
aI168
aI219
aI158
aI92
aa(lp2185
I9
aI202
aa(lp2186
I49
aI194
aa(lp2187
I129
aI242
aI87
aI36
aI97
aI163
aa(lp2188
I33
aI194
aa(lp2189
I137
aI84
aI36
aI48
aa(lp2190
I72
aI141
aI84
aI36
aI48
aa(lp2191
I190
aI2
aI0
aI0
aI0
aa(lp2192
I68
aI137
aI247
aa(lp2193
I232
aI16
aI245
aI255
aI255
aa(lp2194
I133
aI192
aa(lp2195
I15
aI136
aI224
aI5
aI0
aI0
aa(lp2196
I68
aI139
aI76
aI36
aI56
aa(lp2197
I191
aI163
aI82
aI64
aI0
aa(lp2198
I49
aI192
aa(lp2199
I68
aI137
aI238
aa(lp2200
I137
aI218
aa(lp2201
I68
aI137
aI249
aa(lp2202
I65
aI137
aI232
aa(lp2203
I232
aI252
aI5
aI0
aI0
aa(lp2204
I77
aI133
aI228
aa(lp2205
I15
aI132
aI246
aI0
aI0
aI0
aa(lp2206
I65
aI128
aI60
aI36
aI0
aa(lp2207
I15
aI132
aI235
aI0
aI0
aI0
aa(lp2208
I191
aI196
aI82
aI64
aI0
aa(lp2209
I49
aI192
aa(lp2210
I76
aI137
aI230
aa(lp2211
I232
aI217
aI5
aI0
aI0
aa(lp2212
I76
aI137
aI231
aa(lp2213
I232
aI161
aI242
aI255
aI255
aa(lp2214
I72
aI137
aI197
aa(lp2215
I72
aI133
aI237
aa(lp2216
I15
aI132
aI168
aI0
aI0
aI0
aa(lp2217
I73
aI189
aI100
aI106
aI207
aI34
aI13
aa(lp2218
I103
aI68
aI99
aa(lp2219
I184
aI128
aI178
aI230
aI14
aa(lp2220
I102
aI72
aI15
aI110
aI192
aa(lp2221
I102
aI15
aI115
aI248
aI8
aa(lp2222
I102
aI15
aI127
aI68
aI36
aI112
aa(lp2223
I76
aI141
aI188
aI36
aI128
aI0
aI0
aI0
aa(lp2224
I102
aI102
aI102
aI102
aI102
aI46
aI15
aa(lp2225
I31
aI132
aI0
aI0
aI0
aI0
aI0
aa(lp2226
I232
aI107
aI241
aI255
aI255
aa(lp2227
I72
aI137
aI195
aa(lp2228
I199
aI3
aI0
aI0
aI0
aI0
aa(lp2229
I68
aI137
aI247
aa(lp2230
I76
aI137
aI230
aa(lp2231
I72
aI137
aI234
aa(lp2232
I232
aI212
aI241
aI255
aI255
aa(lp2233
I72
aI133
aI192
aa(lp2234
I126
aI31
aa(lp2235
I76
aI1
aI237
aa(lp2236
I72
aI41
aI197
aa(lp2237
I76
aI1
aI224
aa(lp2238
I76
aI41
aI237
aa(lp2239
I76
aI15
aI69
aI224
aa(lp2240
I139
aI3
aa(lp2241
I131
aI248
aI11
aa(lp2242
I116
aI29
aa(lp2243
I235
aI52
aa(lp2244
I102
aI15
aI31
aI68
aI0
aI0
aa(lp2245
I139
aI3
aa(lp2246
I131
aI248
aI11
aa(lp2247
I116
aI9
aa(lp2248
I131
aI248
aI4
aa(lp2249
I15
aI133
aI20
aI1
aI0
aI0
aa(lp2250
I131
aI248
aI11
aa(lp2251
I117
aI25
aa(lp2252
I102
aI15
aI111
aI68
aI36
aI112
aa(lp2253
I102
aI15
aI127
aI132
aI36
aI128
aI0
aa(lp2254
I0
aI0
aa(lp2255
I49
aI246
aa(lp2256
I76
aI137
aI255
aa(lp2257
I232
aI98
aI242
aI255
aI255
aa(lp2258
I72
aI133
aI237
aa(lp2259
I117
aI141
aa(lp2260
I131
aI124
aI36
aI24
aI0
aa(lp2261
I116
aI25
aa(lp2262
I191
aI251
aI82
aI64
aI0
aa(lp2263
I49
aI192
aa(lp2264
I139
aI92
aI36
aI24
aa(lp2265
I137
aI222
aa(lp2266
I232
aI4
aI5
aI0
aI0
aa(lp2267
I137
aI223
aa(lp2268
I232
aI93
aI244
aI255
aI255
aa(lp2269
I72
aI141
aI84
aI36
aI20
aa(lp2270
I190
aI35
aI84
aI0
aI0
aa(lp2271
I49
aI192
aa(lp2272
I68
aI137
aI247
aa(lp2273
I232
aI121
aI242
aI255
aI255
aa(lp2274
I133
aI192
aa(lp2275
I121
aI35
aa(lp2276
I49
aI255
aa(lp2277
I190
aI18
aI83
aI64
aI0
aa(lp2278
I186
aI5
aI0
aI0
aI0
aa(lp2279
I232
aI148
aI241
aI255
aI255
aa(lp2280
I72
aI137
aI193
aa(lp2281
I191
aI1
aI0
aI0
aI0
aa(lp2282
I49
aI192
aa(lp2283
I72
aI137
aI206
aa(lp2284
I232
aI66
aI243
aI255
aI255
aa(lp2285
I139
aI116
aI36
aI20
aa(lp2286
I191
aI45
aI83
aI64
aI0
aa(lp2287
I49
aI192
aa(lp2288
I232
aI178
aI4
aI0
aI0
aa(lp2289
I131
aI124
aI36
aI20
aI21
aa(lp2290
I117
aI80
aa(lp2291
I72
aI141
aI156
aI36
aI128
aI0
aI0
aI0
aa(lp2292
I190
aI0
aI71
aI76
aI128
aa(lp2293
I49
aI192
aa(lp2294
I68
aI137
aI247
aa(lp2295
I72
aI137
aI218
aa(lp2296
I232
aI33
aI242
aI255
aI255
aa(lp2297
I72
aI184
aI0
aI0
aI0
aI0
aI1
aa(lp2298
I0
aI0
aI0
aa(lp2299
I72
aI137
aI132
aI36
aI132
aI0
aI0
aI0
aa(lp2300
I72
aI184
aI127
aI0
aI0
aI0
aI127
aa(lp2301
I0
aI0
aI0
aa(lp2302
I72
aI137
aI132
aI36
aI156
aI0
aI0
aI0
aa(lp2303
I190
aI1
aI71
aI76
aI64
aa(lp2304
I49
aI192
aa(lp2305
I68
aI137
aI247
aa(lp2306
I72
aI137
aI218
aa(lp2307
I232
aI235
aI241
aI255
aI255
aa(lp2308
I138
aI5
aI33
aI77
aI32
aI0
aa(lp2309
I132
aI192
aa(lp2310
I117
aI25
aa(lp2311
I49
aI255
aa(lp2312
I49
aI246
aa(lp2313
I232
aI248
aI242
aI255
aI255
aa(lp2314
I133
aI192
aa(lp2315
I121
aI12
aa(lp2316
I49
aI255
aa(lp2317
I190
aI71
aI83
aI64
aI0
aa(lp2318
I233
aI90
aI255
aI255
aI255
aa(lp2319
I232
aI163
aI242
aI255
aI255
aa(lp2320
I49
aI255
aa(lp2321
I232
aI108
aI243
aI255
aI255
aa(lp2322
I49
aI255
aa(lp2323
I190
aI218
aI82
aI64
aI0
aa(lp2324
I186
aI5
aI0
aI0
aI0
aa(lp2325
I232
aI219
aI240
aI255
aI255
aa(lp2326
I72
aI137
aI193
aa(lp2327
I191
aI1
aI0
aI0
aI0
aa(lp2328
I49
aI192
aa(lp2329
I72
aI137
aI206
aa(lp2330
I72
aI139
aI84
aI36
aI8
aa(lp2331
I232
aI132
aI242
aI255
aI255
aa(lp2332
I49
aI255
aa(lp2333
I190
aI163
aI81
aI64
aI0
aa(lp2334
I186
aI5
aI0
aI0
aI0
aa(lp2335
I232
aI179
aI240
aI255
aI255
aa(lp2336
I72
aI137
aI193
aa(lp2337
I72
aI139
aI53
aI137
aI76
aI32
aI0
aa(lp2338
I186
aI175
aI81
aI64
aI0
aa(lp2339
I49
aI192
aa(lp2340
I72
aI137
aI207
aa(lp2341
I232
aI234
aI240
aI255
aI255
aa(lp2342
I49
aI255
aa(lp2343
I232
aI19
aI243
aI255
aI255
aa(lp2344
I72
aI139
aI29
aI116
aI76
aI32
aI0
aa(lp2345
I49
aI255
aa(lp2346
I190
aI3
aI84
aI64
aI0
aa(lp2347
I186
aI5
aI0
aI0
aI0
aa(lp2348
I232
aI123
aI240
aI255
aI255
aa(lp2349
I72
aI137
aI199
aa(lp2350
I72
aI137
aI222
aa(lp2351
I232
aI16
aI241
aI255
aI255
aa(lp2352
I49
aI255
aa(lp2353
I190
aI12
aI84
aI64
aI0
aa(lp2354
I186
aI5
aI0
aI0
aI0
aa(lp2355
I232
aI95
aI240
aI255
aI255
aa(lp2356
I72
aI137
aI193
aa(lp2357
I72
aI139
aI21
aI53
aI76
aI32
aI0
aa(lp2358
I49
aI192
aa(lp2359
I72
aI137
aI223
aa(lp2360
I72
aI137
aI206
aa(lp2361
I232
aI184
aI241
aI255
aI255
aa(lp2362
I191
aI10
aI0
aI0
aI0
aa(lp2363
I72
aI137
aI222
aa(lp2364
I232
aI75
aI241
aI255
aI255
aa(lp2365
I49
aI255
aa(lp2366
I190
aI44
aI84
aI64
aI0
aa(lp2367
I186
aI5
aI0
aI0
aI0
aa(lp2368
I232
aI42
aI240
aI255
aI255
aa(lp2369
I72
aI137
aI199
aa(lp2370
I72
aI137
aI222
aa(lp2371
I232
aI191
aI240
aI255
aI255
aa(lp2372
I49
aI255
aa(lp2373
I190
aI88
aI84
aI64
aI0
aa(lp2374
I186
aI5
aI0
aI0
aI0
aa(lp2375
I232
aI14
aI240
aI255
aI255
aa(lp2376
I72
aI137
aI199
aa(lp2377
I72
aI137
aI222
aa(lp2378
I232
aI163
aI240
aI255
aI255
aa(lp2379
I49
aI255
aa(lp2380
I190
aI99
aI84
aI64
aI0
aa(lp2381
I186
aI5
aI0
aI0
aI0
aa(lp2382
I232
aI242
aI239
aI255
aI255
aa(lp2383
I72
aI137
aI199
aa(lp2384
I72
aI137
aI222
aa(lp2385
I232
aI135
aI240
aI255
aI255
aa(lp2386
I49
aI255
aa(lp2387
I190
aI158
aI84
aI64
aI0
aa(lp2388
I186
aI5
aI0
aI0
aI0
aa(lp2389
I232
aI214
aI239
aI255
aI255
aa(lp2390
I72
aI137
aI199
aa(lp2391
I72
aI137
aI222
aa(lp2392
I232
aI107
aI240
aI255
aI255
aa(lp2393
I49
aI255
aa(lp2394
I190
aI206
aI84
aI64
aI0
aa(lp2395
I186
aI5
aI0
aI0
aI0
aa(lp2396
I232
aI186
aI239
aI255
aI255
aa(lp2397
I72
aI137
aI199
aa(lp2398
I72
aI137
aI222
aa(lp2399
I232
aI79
aI240
aI255
aI255
aa(lp2400
I49
aI255
aa(lp2401
I190
aI8
aI85
aI64
aI0
aa(lp2402
I186
aI5
aI0
aI0
aI0
aa(lp2403
I232
aI158
aI239
aI255
aI255
aa(lp2404
I72
aI137
aI199
aa(lp2405
I72
aI137
aI222
aa(lp2406
I232
aI51
aI240
aI255
aI255
aa(lp2407
I49
aI255
aa(lp2408
I190
aI67
aI85
aI64
aI0
aa(lp2409
I186
aI5
aI0
aI0
aI0
aa(lp2410
I232
aI130
aI239
aI255
aI255
aa(lp2411
I72
aI137
aI199
aa(lp2412
I72
aI137
aI222
aa(lp2413
I232
aI23
aI240
aI255
aI255
aa(lp2414
I49
aI255
aa(lp2415
I190
aI122
aI85
aI64
aI0
aa(lp2416
I186
aI5
aI0
aI0
aI0
aa(lp2417
I232
aI102
aI239
aI255
aI255
aa(lp2418
I72
aI137
aI199
aa(lp2419
I72
aI137
aI222
aa(lp2420
I232
aI251
aI239
aI255
aI255
aa(lp2421
I49
aI255
aa(lp2422
I190
aI177
aI85
aI64
aI0
aa(lp2423
I186
aI5
aI0
aI0
aI0
aa(lp2424
I232
aI74
aI239
aI255
aI255
aa(lp2425
I72
aI137
aI199
aa(lp2426
I72
aI137
aI222
aa(lp2427
I232
aI223
aI239
aI255
aI255
aa(lp2428
I49
aI255
aa(lp2429
I190
aI222
aI85
aI64
aI0
aa(lp2430
I186
aI5
aI0
aI0
aI0
aa(lp2431
I232
aI46
aI239
aI255
aI255
aa(lp2432
I72
aI137
aI199
aa(lp2433
I72
aI137
aI222
aa(lp2434
I232
aI195
aI239
aI255
aI255
aa(lp2435
I49
aI255
aa(lp2436
I190
aI11
aI86
aI64
aI0
aa(lp2437
I186
aI5
aI0
aI0
aI0
aa(lp2438
I232
aI18
aI239
aI255
aI255
aa(lp2439
I72
aI137
aI199
aa(lp2440
I72
aI137
aI222
aa(lp2441
I232
aI167
aI239
aI255
aI255
aa(lp2442
I49
aI255
aa(lp2443
I190
aI55
aI86
aI64
aI0
aa(lp2444
I186
aI5
aI0
aI0
aI0
aa(lp2445
I232
aI246
aI238
aI255
aI255
aa(lp2446
I72
aI137
aI199
aa(lp2447
I72
aI137
aI222
aa(lp2448
I232
aI139
aI239
aI255
aI255
aa(lp2449
I49
aI255
aa(lp2450
I190
aI102
aI86
aI64
aI0
aa(lp2451
I186
aI5
aI0
aI0
aI0
aa(lp2452
I232
aI218
aI238
aI255
aI255
aa(lp2453
I72
aI137
aI199
aa(lp2454
I72
aI137
aI222
aa(lp2455
I232
aI111
aI239
aI255
aI255
aa(lp2456
I49
aI255
aa(lp2457
I190
aI149
aI86
aI64
aI0
aa(lp2458
I186
aI5
aI0
aI0
aI0
aa(lp2459
I232
aI190
aI238
aI255
aI255
aa(lp2460
I72
aI137
aI199
aa(lp2461
I72
aI137
aI222
aa(lp2462
I232
aI83
aI239
aI255
aI255
aa(lp2463
I191
aI10
aI0
aI0
aI0
aa(lp2464
I72
aI137
aI222
aa(lp2465
I232
aI182
aI239
aI255
aI255
aa(lp2466
I49
aI255
aa(lp2467
I190
aI224
aI86
aI64
aI0
aa(lp2468
I186
aI5
aI0
aI0
aI0
aa(lp2469
I232
aI149
aI238
aI255
aI255
aa(lp2470
I73
aI137
aI198
aa(lp2471
I49
aI255
aa(lp2472
I190
aI1
aI87
aI64
aI0
aa(lp2473
I186
aI5
aI0
aI0
aI0
aa(lp2474
I232
aI129
aI238
aI255
aI255
aa(lp2475
I72
aI137
aI197
aa(lp2476
I191
aI195
aI86
aI64
aI0
aa(lp2477
I190
aI212
aI86
aI64
aI0
aa(lp2478
I185
aI242
aI86
aI64
aI0
aa(lp2479
I49
aI192
aa(lp2480
I76
aI137
aI242
aa(lp2481
I73
aI137
aI232
aa(lp2482
I232
aI178
aI238
aI255
aI255
aa(lp2483
I49
aI255
aa(lp2484
I190
aI17
aI87
aI64
aI0
aa(lp2485
I186
aI5
aI0
aI0
aI0
aa(lp2486
I232
aI81
aI238
aI255
aI255
aa(lp2487
I72
aI137
aI199
aa(lp2488
I72
aI137
aI222
aa(lp2489
I232
aI230
aI238
aI255
aI255
aa(lp2490
I190
aI128
aI78
aI64
aI0
aa(lp2491
I72
aI137
aI223
aa(lp2492
I232
aI73
aI3
aI0
aI0
aa(lp2493
I191
aI10
aI0
aI0
aI0
aa(lp2494
I72
aI137
aI222
aa(lp2495
I232
aI60
aI239
aI255
aI255
aa(lp2496
I49
aI255
aa(lp2497
I190
aI40
aI87
aI64
aI0
aa(lp2498
I186
aI5
aI0
aI0
aI0
aa(lp2499
I232
aI27
aI238
aI255
aI255
aa(lp2500
I72
aI137
aI199
aa(lp2501
I72
aI137
aI222
aa(lp2502
I232
aI176
aI238
aI255
aI255
aa(lp2503
I190
aI192
aI79
aI64
aI0
aa(lp2504
I72
aI137
aI223
aa(lp2505
I232
aI19
aI3
aI0
aI0
aa(lp2506
I49
aI255
aa(lp2507
I190
aI63
aI87
aI64
aI0
aa(lp2508
I186
aI5
aI0
aI0
aI0
aa(lp2509
I232
aI242
aI237
aI255
aI255
aa(lp2510
I72
aI137
aI193
aa(lp2511
I190
aI90
aI87
aI64
aI0
aa(lp2512
I49
aI192
aa(lp2513
I72
aI137
aI207
aa(lp2514
I232
aI48
aI238
aI255
aI255
aa(lp2515
I49
aI255
aa(lp2516
I232
aI89
aI240
aI255
aI255
aa(lp2517
I72
aI139
aI21
aI202
aI73
aI32
aI0
aa(lp2518
I191
aI1
aI0
aI0
aI0
aa(lp2519
I190
aI145
aI81
aI64
aI0
aa(lp2520
I49
aI192
aa(lp2521
I232
aI241
aI237
aI255
aI255
aa(lp2522
I49
aI255
aa(lp2523
I190
aI70
aI81
aI64
aI0
aa(lp2524
I186
aI5
aI0
aI0
aI0
aa(lp2525
I232
aI176
aI237
aI255
aI255
aa(lp2526
I72
aI137
aI193
aa(lp2527
I191
aI1
aI0
aI0
aI0
aa(lp2528
I49
aI192
aa(lp2529
I72
aI137
aI206
aa(lp2530
I232
aI206
aI237
aI255
aI255
aa(lp2531
I49
aI255
aa(lp2532
I190
aI240
aI81
aI64
aI0
aa(lp2533
I186
aI5
aI0
aI0
aI0
aa(lp2534
I232
aI141
aI237
aI255
aI255
aa(lp2535
I72
aI137
aI193
aa(lp2536
I49
aI192
aa(lp2537
I72
aI137
aI207
aa(lp2538
I232
aI224
aI237
aI255
aI255
aa(lp2539
I72
aI139
aI29
aI121
aI73
aI32
aI0
aa(lp2540
I49
aI255
aa(lp2541
I190
aI201
aI81
aI64
aI0
aa(lp2542
I186
aI5
aI0
aI0
aI0
aa(lp2543
I232
aI104
aI237
aI255
aI255
aa(lp2544
I72
aI137
aI193
aa(lp2545
I72
aI139
aI21
aI62
aI73
aI32
aI0
aa(lp2546
I49
aI192
aa(lp2547
I72
aI137
aI223
aa(lp2548
I72
aI137
aI206
aa(lp2549
I232
aI193
aI238
aI255
aI255
aa(lp2550
I191
aI1
aI0
aI0
aI0
aa(lp2551
I232
aI199
aI239
aI255
aI255
aa(lp2552
I49
aI255
aa(lp2553
I190
aI38
aI82
aI64
aI0
aa(lp2554
I233
aI86
aI252
aI255
aI255
aa(lp2555
I49
aI255
aa(lp2556
I190
aI53
aI82
aI64
aI0
aa(lp2557
I186
aI5
aI0
aI0
aI0
aa(lp2558
I232
aI42
aI237
aI255
aI255
aa(lp2559
I72
aI137
aI193
aa(lp2560
I191
aI1
aI0
aI0
aI0
aa(lp2561
I49
aI192
aa(lp2562
I72
aI137
aI206
aa(lp2563
I72
aI139
aI84
aI36
aI8
aa(lp2564
I232
aI67
aI237
aI255
aI255
aa(lp2565
I49
aI255
aa(lp2566
I190
aI87
aI82
aI64
aI0
aa(lp2567
I233
aI34
aI252
aI255
aI255
aa(lp2568
I232
aI18
aI236
aI255
aI255
aa(lp2569
I232
aI13
aI236
aI255
aI255
aa(lp2570
I232
aI8
aI236
aI255
aI255
aa(lp2571
I49
aI255
aa(lp2572
I190
aI125
aI82
aI64
aI0
aa(lp2573
I233
aI7
aI252
aI255
aI255
aa(lp2574
I102
aI102
aI102
aI46
aI15
aI31
aI132
aa(lp2575
I0
aI0
aI0
aI0
aI0
aasg13
(I4200944
I4204884
tp2576
sg14
I2
sg15
g16
ssS'parse_iflag'
p2577
(dp2578
g7
g8
sg9
(lp2579
sg11
(lp2580
sg13
(tsg14
I3
sg15
g16
ssS'strtol_or_err'
p2581
(dp2582
g7
g8
sg9
(lp2583
sg11
(lp2584
(lp2585
I65
aI87
aa(lp2586
I65
aI86
aa(lp2587
I83
aa(lp2588
I72
aI131
aI236
aI16
aa(lp2589
I73
aI137
aI246
aa(lp2590
I73
aI137
aI255
aa(lp2591
I72
aI199
aI68
aI36
aI8
aI0
aI0
aa(lp2592
I0
aI0
aa(lp2593
I232
aI211
aI221
aI255
aI255
aa(lp2594
I72
aI137
aI195
aa(lp2595
I199
aI3
aI0
aI0
aI0
aI0
aa(lp2596
I77
aI133
aI255
aa(lp2597
I116
aI60
aa(lp2598
I65
aI128
aI63
aI0
aa(lp2599
I116
aI54
aa(lp2600
I72
aI141
aI116
aI36
aI8
aa(lp2601
I186
aI10
aI0
aI0
aI0
aa(lp2602
I76
aI137
aI255
aa(lp2603
I232
aI13
aI224
aI255
aI255
aa(lp2604
I139
aI11
aa(lp2605
I133
aI201
aa(lp2606
I117
aI56
aa(lp2607
I72
aI139
aI76
aI36
aI8
aa(lp2608
I76
aI57
aI249
aa(lp2609
I116
aI20
aa(lp2610
I72
aI133
aI201
aa(lp2611
I116
aI5
aa(lp2612
I128
aI57
aI0
aa(lp2613
I117
aI10
aa(lp2614
I72
aI131
aI196
aI16
aa(lp2615
I91
aa(lp2616
I65
aI94
aa(lp2617
I65
aI95
aa(lp2618
I195
aasg13
(I4208496
I4208656
tp2619
sg14
I2
sg15
g16
ssS'flush_standard_stream'
p2620
(dp2621
g7
g8
sg9
(lp2622
sg11
(lp2623
sg13
(tsg14
I1
sg15
g16
ssS'strtoumax'
p2624
(dp2625
g7
g8
sg9
(lp2626
sg11
(lp2627
sg13
(tsg14
I3
sg15
g16
ssS'strappend'
p2628
(dp2629
g7
g8
sg9
(lp2630
sg11
(lp2631
(lp2632
I65
aI86
aa(lp2633
I83
aa(lp2634
I80
aa(lp2635
I72
aI137
aI243
aa(lp2636
I73
aI137
aI254
aa(lp2637
I72
aI133
aI219
aa(lp2638
I116
aI13
aa(lp2639
I72
aI137
aI223
aa(lp2640
I232
aI41
aI208
aI255
aI255
aa(lp2641
I72
aI137
aI194
aa(lp2642
I235
aI2
aa(lp2643
I49
aI210
aa(lp2644
I76
aI137
aI247
aa(lp2645
I72
aI137
aI222
aa(lp2646
I72
aI131
aI196
aI8
aa(lp2647
I91
aa(lp2648
I65
aI94
aa(lp2649
I233
aI176
aI254
aI255
aI255
aasg13
(I4212240
I4212288
tp2650
sg14
I2
sg15
g16
ssS'strtosize'
p2651
(dp2652
g7
g8
sg9
(lp2653
sg11
(lp2654
(lp2655
I49
aI210
aa(lp2656
I233
aI89
aI251
aI255
aI255
aa(lp2657
I102
aI15
aI31
aI132
aI0
aI0
aI0
aa(lp2658
I0
aI0
aasg13
(tsg14
I2
sg15
g16
ssS'_strtou16_or_err'
p2659
(dp2660
g7
g8
sg9
(lp2661
sg11
(lp2662
sg13
(tsg14
I3
sg15
g16
ssS'handler'
p2663
(dp2664
g7
g8
sg9
(lp2665
sg11
(lp2666
(lp2667
I80
aa(lp2668
I137
aI249
aa(lp2669
I191
aI88
aI83
aI64
aI0
aa(lp2670
I49
aI192
aa(lp2671
I137
aI206
aa(lp2672
I232
aI15
aI0
aI0
aI0
aa(lp2673
I49
aI255
aa(lp2674
I232
aI72
aI239
aI255
aI255
aa(lp2675
I15
aI31
aI132
aI0
aI0
aI0
aI0
aI0
aasg13
(I4204896
I4204920
tp2676
sg14
I1
sg15
g16
ssS'strtos64_or_err'
p2677
(dp2678
g7
g8
sg9
(lp2679
sg11
(lp2680
(lp2681
I65
aI87
aa(lp2682
I65
aI86
aa(lp2683
I83
aa(lp2684
I72
aI131
aI236
aI16
aa(lp2685
I73
aI137
aI246
aa(lp2686
I73
aI137
aI255
aa(lp2687
I72
aI199
aI68
aI36
aI8
aI0
aI0
aa(lp2688
I0
aI0
aa(lp2689
I232
aI131
aI224
aI255
aI255
aa(lp2690
I72
aI137
aI195
aa(lp2691
I199
aI3
aI0
aI0
aI0
aI0
aa(lp2692
I77
aI133
aI255
aa(lp2693
I116
aI62
aa(lp2694
I65
aI128
aI63
aI0
aa(lp2695
I116
aI56
aa(lp2696
I72
aI141
aI116
aI36
aI8
aa(lp2697
I186
aI10
aI0
aI0
aI0
aa(lp2698
I49
aI201
aa(lp2699
I76
aI137
aI255
aa(lp2700
I232
aI11
aI225
aI255
aI255
aa(lp2701
I139
aI11
aa(lp2702
I133
aI201
aa(lp2703
I117
aI56
aa(lp2704
I72
aI139
aI76
aI36
aI8
aa(lp2705
I76
aI57
aI249
aa(lp2706
I116
aI20
aa(lp2707
I72
aI133
aI201
aa(lp2708
I116
aI5
aa(lp2709
I128
aI57
aI0
aa(lp2710
I117
aI10
aa(lp2711
I72
aI131
aI196
aI16
aa(lp2712
I91
aa(lp2713
I65
aI94
aa(lp2714
I65
aI95
aa(lp2715
I195
aasg13
(I4207808
I4207970
tp2716
sg14
I2
sg15
g16
ssS'size_to_human_string'
p2717
(dp2718
g7
g8
sg9
(lp2719
sg11
(lp2720
(lp2721
I65
aI86
aa(lp2722
I83
aa(lp2723
I72
aI131
aI236
aI56
aa(lp2724
I137
aI248
aa(lp2725
I131
aI240
aI253
aa(lp2726
I133
aI248
aa(lp2727
I116
aI21
aa(lp2728
I72
aI141
aI68
aI36
aI12
aa(lp2729
I198
aI68
aI36
aI11
aI32
aa(lp2730
I72
aI129
aI254
aI0
aI4
aI0
aI0
aa(lp2731
I114
aI16
aa(lp2732
I235
aI27
aa(lp2733
I72
aI141
aI68
aI36
aI11
aa(lp2734
I72
aI129
aI254
aI0
aI4
aI0
aI0
aa(lp2735
I115
aI13
aa(lp2736
I102
aI199
aI0
aI66
aI0
aa(lp2737
I65
aI137
aI246
aa(lp2738
I233
aI197
aI1
aI0
aI0
aa(lp2739
I72
aI129
aI254
aI0
aI0
aI16
aI0
aa(lp2740
I185
aI10
aI0
aI0
aI0
aa(lp2741
I73
aI184
aI44
aI67
aI126
aI44
aI240
aa(lp2742
I1
aI200
aI79
aa(lp2743
I114
aI62
aa(lp2744
I185
aI20
aI0
aI0
aI0
aa(lp2745
I72
aI129
aI254
aI0
aI0
aI0
aI64
aa(lp2746
I114
aI48
aa(lp2747
I72
aI137
aI241
aa(lp2748
I72
aI193
aI233
aI40
aa(lp2749
I185
aI30
aI0
aI0
aI0
aa(lp2750
I116
aI34
aa(lp2751
I72
aI137
aI241
aa(lp2752
I72
aI193
aI233
aI50
aa(lp2753
I185
aI40
aI0
aI0
aI0
aa(lp2754
I116
aI20
aa(lp2755
I72
aI137
aI241
aa(lp2756
I72
aI193
aI233
aI60
aa(lp2757
I187
aI50
aI0
aI0
aI0
aa(lp2758
I185
aI60
aI0
aI0
aI0
aa(lp2759
I15
aI68
aI203
aa(lp2760
I137
aI203
aa(lp2761
I186
aI205
aI204
aI204
aI204
aa(lp2762
I72
aI15
aI175
aI211
aa(lp2763
I72
aI193
aI234
aI35
aa(lp2764
I72
aI141
aI29
aI127
aI28
aI0
aI0
aa(lp2765
I68
aI138
aI12
aI26
aa(lp2766
I73
aI137
aI246
aa(lp2767
I73
aI211
aI238
aa(lp2768
I187
aI1
aI0
aI0
aI0
aa(lp2769
I72
aI211
aI227
aa(lp2770
I72
aI247
aI219
aa(lp2771
I72
aI247
aI214
aa(lp2772
I76
aI137
aI194
aa(lp2773
I72
aI247
aI210
aa(lp2774
I72
aI9
aI222
aa(lp2775
I76
aI9
aI194
aa(lp2776
I72
aI247
aI214
aa(lp2777
I72
aI33
aI214
aa(lp2778
I68
aI136
aI8
aa(lp2779
I137
aI250
aa(lp2780
I247
aI210
aa(lp2781
I131
aI202
aI254
aa(lp2782
I131
aI250
aI255
aa(lp2783
I116
aI12
aa(lp2784
I102
aI199
aI64
aI1
aI105
aI66
aa(lp2785
I72
aI131
aI192
aI3
aa(lp2786
I235
aI3
aa(lp2787
I72
aI255
aI192
aa(lp2788
I198
aI0
aI0
aa(lp2789
I72
aI133
aI246
aa(lp2790
I15
aI132
aI5
aI1
aI0
aI0
aa(lp2791
I137
aI250
aa(lp2792
I131
aI242
aI251
aa(lp2793
I247
aI217
aa(lp2794
I184
aI246
aI255
aI255
aI255
aa(lp2795
I41
aI200
aa(lp2796
I137
aI193
aa(lp2797
I72
aI211
aI238
aa(lp2798
I133
aI250
aa(lp2799
I116
aI84
aa(lp2800
I72
aI131
aI198
aI5
aa(lp2801
I72
aI185
aI205
aI204
aI204
aI204
aI204
aa(lp2802
I204
aI204
aI204
aa(lp2803
I72
aI137
aI240
aa(lp2804
I72
aI247
aI225
aa(lp2805
I72
aI137
aI211
aa(lp2806
I72
aI193
aI235
aI3
aa(lp2807
I72
aI137
aI216
aa(lp2808
I72
aI247
aI225
aa(lp2809
I72
aI193
aI234
aI2
aa(lp2810
I72
aI184
aI254
aI255
aI255
aI255
aI255
aa(lp2811
I255
aI255
aI63
aa(lp2812
I72
aI33
aI208
aa(lp2813
I72
aI141
aI4
aI128
aa(lp2814
I72
aI57
aI195
aa(lp2815
I117
aI102
aa(lp2816
I72
aI193
aI238
aI2
aa(lp2817
I72
aI185
aI195
aI245
aI40
aI92
aI143
aa(lp2818
I194
aI245
aI40
aa(lp2819
I72
aI137
aI240
aa(lp2820
I72
aI247
aI225
aa(lp2821
I72
aI137
aI211
aa(lp2822
I235
aI73
aa(lp2823
I72
aI184
aI40
aI164
aI249
aI9
aI92
aa(lp2824
I43
aI195
aI159
aa(lp2825
I72
aI137
aI241
aa(lp2826
I72
aI41
aI193
aa(lp2827
I72
aI141
aI68
aI1
aI50
aa(lp2828
I72
aI193
aI232
aI2
aa(lp2829
I72
aI185
aI195
aI245
aI40
aI92
aI143
aa(lp2830
I194
aI245
aI40
aa(lp2831
I72
aI247
aI225
aa(lp2832
I72
aI137
aI211
aa(lp2833
I72
aI184
aI15
aI176
aI48
aI253
aI201
aa(lp2834
I116
aI14
aI225
aa(lp2835
I72
aI141
aI140
aI6
aI74
aI252
aI255
aa(lp2836
I255
aa(lp2837
I72
aI41
aI193
aa(lp2838
I72
aI131
aI249
aI100
aa(lp2839
I115
aI5
aa(lp2840
I65
aI255
aI198
aa(lp2841
I235
aI81
aa(lp2842
I72
aI193
aI235
aI2
aa(lp2843
I72
aI133
aI219
aa(lp2844
I116
aI72
aa(lp2845
I232
aI46
aI217
aI255
aI255
aa(lp2846
I72
aI133
aI192
aa(lp2847
I116
aI14
aa(lp2848
I76
aI139
aI0
aa(lp2849
I77
aI133
aI192
aa(lp2850
I116
aI6
aa(lp2851
I65
aI128
aI56
aI0
aa(lp2852
I117
aI7
aa(lp2853
I76
aI141
aI5
aI87
aI27
aI0
aI0
aa(lp2854
I72
aI141
aI68
aI36
aI11
aa(lp2855
I72
aI137
aI4
aI36
aa(lp2856
I72
aI141
aI21
aI73
aI27
aI0
aI0
aa(lp2857
I72
aI141
aI124
aI36
aI16
aa(lp2858
I190
aI32
aI0
aI0
aI0
aa(lp2859
I49
aI192
aa(lp2860
I68
aI137
aI241
aa(lp2861
I73
aI137
aI217
aa(lp2862
I232
aI205
aI217
aI255
aI255
aa(lp2863
I235
aI32
aa(lp2864
I72
aI141
aI21
aI51
aI27
aI0
aI0
aa(lp2865
I72
aI141
aI124
aI36
aI16
aa(lp2866
I76
aI141
aI68
aI36
aI11
aa(lp2867
I190
aI32
aI0
aI0
aI0
aa(lp2868
I49
aI192
aa(lp2869
I68
aI137
aI241
aa(lp2870
I232
aI171
aI217
aI255
aI255
aa(lp2871
I72
aI141
aI124
aI36
aI16
aa(lp2872
I232
aI193
aI219
aI255
aI255
aa(lp2873
I72
aI131
aI196
aI56
aa(lp2874
I91
aa(lp2875
I65
aI94
aa(lp2876
I195
aasg13
(I4209376
I4209943
tp2877
sg14
I2
sg15
g16
ssS'strtox64_or_err'
p2878
(dp2879
g7
g8
sg9
(lp2880
sg11
(lp2881
(lp2882
I186
aI16
aI0
aI0
aI0
aa(lp2883
I233
aI86
aI255
aI255
aI255
aa(lp2884
I102
aI15
aI31
aI68
aI0
aI0
aasg13
(I4208320
I4208330
tp2885
sg14
I2
sg15
g16
ssS'do_scale_by_power'
p2886
(dp2887
g7
g8
sg9
(lp2888
sg11
(lp2889
sg13
(tsg14
I3
sg15
g16
ssS'xstrmode'
p2890
(dp2891
g7
g8
sg9
(lp2892
sg11
(lp2893
(lp2894
I137
aI249
aa(lp2895
I129
aI241
aI255
aI15
aI255
aI255
aa(lp2896
I33
aI249
aa(lp2897
I129
aI193
aI0
aI240
aI255
aI255
aa(lp2898
I129
aI249
aI255
aI191
aI0
aI0
aa(lp2899
I119
aI47
aa(lp2900
I193
aI233
aI12
aa(lp2901
I184
aI171
aI10
aI0
aI0
aa(lp2902
I211
aI232
aa(lp2903
I247
aI208
aa(lp2904
I13
aI254
aI255
aI0
aI0
aa(lp2905
I15
aI183
aI192
aa(lp2906
I61
aI255
aI255
aI0
aI0
aa(lp2907
I116
aI20
aa(lp2908
I137
aI200
aa(lp2909
I72
aI141
aI13
aI168
aI30
aI0
aI0
aa(lp2910
I138
aI4
aI8
aa(lp2911
I136
aI6
aa(lp2912
I102
aI184
aI1
aI0
aa(lp2913
I235
aI2
aa(lp2914
I49
aI192
aa(lp2915
I137
aI249
aa(lp2916
I129
aI241
aI255
aI254
aI255
aI255
aa(lp2917
I133
aI249
aa(lp2918
I65
aI177
aI114
aa(lp2919
I177
aI114
aa(lp2920
I117
aI2
aa(lp2921
I177
aI45
aa(lp2922
I85
aa(lp2923
I83
aa(lp2924
I68
aI15
aI183
aI216
aa(lp2925
I65
aI141
aI67
aI1
aa(lp2926
I66
aI136
aI12
aI30
aa(lp2927
I137
aI249
aa(lp2928
I192
aI249
aI7
aa(lp2929
I246
aI209
aa(lp2930
I128
aI201
aI181
aa(lp2931
I178
aI44
aa(lp2932
I40
aI202
aa(lp2933
I136
aI20
aI6
aa(lp2934
I137
aI253
aa(lp2935
I247
aI213
aa(lp2936
I137
aI234
aa(lp2937
I129
aI202
aI255
aI247
aI255
aI255
aa(lp2938
I137
aI248
aa(lp2939
I131
aI240
aI191
aa(lp2940
I33
aI248
aa(lp2941
I65
aI176
aI120
aa(lp2942
I179
aI120
aa(lp2943
I117
aI2
aa(lp2944
I179
aI45
aa(lp2945
I65
aI141
aI75
aI2
aa(lp2946
I131
aI250
aI255
aa(lp2947
I116
aI29
aa(lp2948
I209
aI232
aa(lp2949
I137
aI194
aa(lp2950
I247
aI210
aa(lp2951
I131
aI226
aI70
aa(lp2952
I137
aI195
aa(lp2953
I129
aI227
aI185
aI0
aI0
aI0
aa(lp2954
I9
aI211
aa(lp2955
I131
aI243
aI21
aa(lp2956
I131
aI224
aI83
aa(lp2957
I9
aI216
aa(lp2958
I137
aI195
aa(lp2959
I141
aI81
aI1
aa(lp2960
I136
aI28
aI14
aa(lp2961
I137
aI232
aa(lp2962
I131
aI200
aI223
aa(lp2963
I131
aI248
aI255
aa(lp2964
I179
aI114
aa(lp2965
I117
aI2
aa(lp2966
I179
aI45
aa(lp2967
I141
aI65
aI2
aa(lp2968
I15
aI183
aI210
aa(lp2969
I136
aI28
aI22
aa(lp2970
I137
aI250
aa(lp2971
I131
aI242
aI239
aa(lp2972
I133
aI250
aa(lp2973
I65
aI178
aI119
aa(lp2974
I178
aI119
aa(lp2975
I117
aI2
aa(lp2976
I178
aI45
aa(lp2977
I15
aI183
aI192
aa(lp2978
I136
aI20
aI6
aa(lp2979
I137
aI251
aa(lp2980
I129
aI243
aI255
aI251
aI255
aI255
aa(lp2981
I137
aI234
aa(lp2982
I131
aI202
aI247
aa(lp2983
I137
aI248
aa(lp2984
I131
aI224
aI8
aa(lp2985
I141
aI4
aI133
aI92
aI0
aI0
aI0
aa(lp2986
I131
aI240
aI15
aa(lp2987
I131
aI250
aI255
aa(lp2988
I178
aI120
aa(lp2989
I117
aI2
aa(lp2990
I178
aI45
aa(lp2991
I131
aI193
aI3
aa(lp2992
I133
aI251
aa(lp2993
I117
aI2
aa(lp2994
I136
aI208
aa(lp2995
I65
aI131
aI203
aI6
aa(lp2996
I15
aI183
aI201
aa(lp2997
I136
aI4
aI14
aa(lp2998
I137
aI232
aa(lp2999
I131
aI200
aI251
aa(lp3000
I131
aI248
aI255
aa(lp3001
I117
aI3
aa(lp3002
I65
aI177
aI45
aa(lp3003
I65
aI141
aI67
aI1
aa(lp3004
I70
aI136
aI12
aI30
aa(lp3005
I137
aI233
aa(lp3006
I131
aI201
aI253
aa(lp3007
I131
aI249
aI255
aa(lp3008
I117
aI3
aa(lp3009
I65
aI178
aI45
aa(lp3010
I15
aI183
aI192
aa(lp3011
I68
aI136
aI20
aI6
aa(lp3012
I137
aI249
aa(lp3013
I129
aI241
aI255
aI253
aI255
aI255
aa(lp3014
I131
aI205
aI254
aa(lp3015
I137
aI248
aa(lp3016
I131
aI224
aI1
aa(lp3017
I193
aI224
aI5
aa(lp3018
I131
aI200
aI84
aa(lp3019
I131
aI253
aI255
aa(lp3020
I91
aa(lp3021
I93
aa(lp3022
I117
aI3
aa(lp3023
I65
aI176
aI45
aa(lp3024
I65
aI141
aI83
aI2
aa(lp3025
I133
aI249
aa(lp3026
I117
aI3
aa(lp3027
I68
aI136
aI192
aa(lp3028
I65
aI247
aI219
aa(lp3029
I185
aI3
aI0
aI0
aI0
aa(lp3030
I68
aI41
aI217
aa(lp3031
I15
aI183
aI210
aa(lp3032
I136
aI4
aI22
aa(lp3033
I15
aI183
aI193
aa(lp3034
I198
aI4
aI6
aI0
aa(lp3035
I72
aI137
aI240
aa(lp3036
I195
aasg13
(I4208960
I4209368
tp3037
sg14
I2
sg15
g16
ssS'_strtou32_or_err'
p3038
(dp3039
g7
g8
sg9
(lp3040
sg11
(lp3041
sg13
(tsg14
I3
sg15
g16
ssS'strcspn_escaped'
p3042
(dp3043
g7
g8
sg9
(lp3044
sg11
(lp3045
sg13
(tsg14
I2
sg15
g16
ssS'strnchr'
p3046
(dp3047
g7
g8
sg9
(lp3048
sg11
(lp3049
(lp3050
I72
aI133
aI246
aa(lp3051
I116
aI33
aa(lp3052
I15
aI190
aI194
aa(lp3053
I15
aI31
aI132
aI0
aI0
aI0
aI0
aI0
aa(lp3054
I15
aI190
aI15
aa(lp3055
I133
aI201
aa(lp3056
I116
aI15
aa(lp3057
I57
aI193
aa(lp3058
I116
aI13
aa(lp3059
I72
aI255
aI206
aa(lp3060
I72
aI255
aI199
aa(lp3061
I72
aI133
aI246
aa(lp3062
I117
aI234
aa(lp3063
I49
aI255
aa(lp3064
I72
aI137
aI248
aa(lp3065
I195
aasg13
(I4207376
I4207420
tp3066
sg14
I3
sg15
g16
ssS'strtos32_or_err'
p3067
(dp3068
g7
g8
sg9
(lp3069
sg11
(lp3070
(lp3071
I65
aI86
aa(lp3072
I83
aa(lp3073
I80
aa(lp3074
I73
aI137
aI246
aa(lp3075
I72
aI137
aI251
aa(lp3076
I232
aI1
aI1
aI0
aI0
aa(lp3077
I185
aI0
aI0
aI0
aI128
aa(lp3078
I72
aI247
aI217
aa(lp3079
I72
aI41
aI193
aa(lp3080
I72
aI247
aI217
aa(lp3081
I72
aI193
aI233
aI32
aa(lp3082
I117
aI8
aa(lp3083
I72
aI131
aI196
aI8
aa(lp3084
I91
aa(lp3085
I65
aI94
aa(lp3086
I195
aasg13
(tsg14
I2
sg15
g16
ssS'strnappend'
p3087
(dp3088
g7
g8
sg9
(lp3089
sg11
(lp3090
(lp3091
I85
aa(lp3092
I65
aI87
aa(lp3093
I65
aI86
aa(lp3094
I65
aI85
aa(lp3095
I65
aI84
aa(lp3096
I83
aa(lp3097
I80
aa(lp3098
I73
aI137
aI214
aa(lp3099
I73
aI137
aI247
aa(lp3100
I72
aI137
aI253
aa(lp3101
I72
aI133
aI237
aa(lp3102
I15
aI149
aI194
aa(lp3103
I15
aI148
aI192
aa(lp3104
I77
aI133
aI255
aa(lp3105
I15
aI149
aI195
aa(lp3106
I15
aI148
aI193
aa(lp3107
I48
aI211
aa(lp3108
I117
aI32
aa(lp3109
I8
aI200
aa(lp3110
I52
aI1
aa(lp3111
I117
aI26
aa(lp3112
I72
aI141
aI61
aI48
aI15
aI0
aI0
aa(lp3113
I72
aI131
aI196
aI8
aa(lp3114
I91
aa(lp3115
I65
aI92
aa(lp3116
I65
aI93
aa(lp3117
I65
aI94
aa(lp3118
I65
aI95
aa(lp3119
I93
aa(lp3120
I233
aI150
aI211
aI255
aI255
aa(lp3121
I72
aI133
aI237
aa(lp3122
I15
aI132
aI141
aI0
aI0
aI0
aa(lp3123
I77
aI133
aI255
aa(lp3124
I15
aI132
aI178
aI0
aI0
aI0
aa(lp3125
I72
aI137
aI239
aa(lp3126
I232
aI252
aI208
aI255
aI255
aa(lp3127
I73
aI137
aI196
aa(lp3128
I72
aI247
aI208
aa(lp3129
I72
aI185
aI177
aI80
aI6
aI140
aI77
aa(lp3130
I76
aI78
aI37
aa(lp3131
I72
aI33
aI200
aa(lp3132
I72
aI247
aI209
aa(lp3133
I76
aI137
aI226
aa(lp3134
I72
aI33
aI202
aa(lp3135
I72
aI9
aI194
aa(lp3136
I72
aI49
aI202
aa(lp3137
I73
aI57
aI214
aa(lp3138
I119
aI110
aa(lp3139
I76
aI137
aI240
aa(lp3140
I72
aI247
aI216
aa(lp3141
I76
aI137
aI227
aa(lp3142
I72
aI41
aI195
aa(lp3143
I72
aI184
aI26
aI54
aI149
aI56
aI114
aa(lp3144
I240
aI117
aI24
aa(lp3145
I72
aI137
aI217
aa(lp3146
I72
aI41
aI193
aa(lp3147
I72
aI141
aI124
aI1
aI1
aa(lp3148
I232
aI111
aI210
aI255
aI255
aa(lp3149
I73
aI137
aI197
aa(lp3150
I77
aI133
aI237
aa(lp3151
I116
aI64
aa(lp3152
I76
aI137
aI239
aa(lp3153
I72
aI137
aI238
aa(lp3154
I76
aI137
aI226
aa(lp3155
I232
aI25
aI210
aI255
aI255
aa(lp3156
I76
aI137
aI239
aa(lp3157
I76
aI1
aI231
aa(lp3158
I76
aI137
aI254
aa(lp3159
I76
aI137
aI242
aa(lp3160
I232
aI8
aI210
aI255
aI255
aa(lp3161
I65
aI198
aI68
aI29
aI0
aI0
aa(lp3162
I235
aI28
aa(lp3163
I76
aI137
aI255
aa(lp3164
I76
aI137
aI246
aa(lp3165
I72
aI131
aI196
aI8
aa(lp3166
I91
aa(lp3167
I65
aI92
aa(lp3168
I65
aI93
aa(lp3169
I65
aI94
aa(lp3170
I65
aI95
aa(lp3171
I93
aa(lp3172
I233
aI151
aI209
aI255
aI255
aa(lp3173
I69
aI49
aI237
aa(lp3174
I76
aI137
aI232
aa(lp3175
I72
aI131
aI196
aI8
aa(lp3176
I91
aa(lp3177
I65
aI92
aa(lp3178
I65
aI93
aa(lp3179
I65
aI94
aa(lp3180
I65
aI95
aa(lp3181
I93
aa(lp3182
I195
aasg13
(I4211952
I4212230
tp3183
sg14
I3
sg15
g16
ssS'isdigit_strend'
p3184
(dp3185
g7
g8
sg9
(lp3186
sg11
(lp3187
(lp3188
I65
aI87
aa(lp3189
I65
aI86
aa(lp3190
I65
aI84
aa(lp3191
I83
aa(lp3192
I80
aa(lp3193
I73
aI137
aI246
aa(lp3194
I73
aI137
aI255
aa(lp3195
I77
aI133
aI255
aa(lp3196
I116
aI64
aa(lp3197
I65
aI138
aI31
aa(lp3198
I65
aI180
aI1
aa(lp3199
I132
aI219
aa(lp3200
I116
aI66
aa(lp3201
I232
aI78
aI232
aI255
aI255
aa(lp3202
I72
aI139
aI8
aa(lp3203
I76
aI137
aI248
aa(lp3204
I15
aI31
aI132
aI0
aI0
aI0
aI0
aI0
aa(lp3205
I15
aI182
aI211
aa(lp3206
I15
aI183
aI20
aI81
aa(lp3207
I137
aI214
aa(lp3208
I129
aI246
aI255
aI247
aI0
aI0
aa(lp3209
I33
aI214
aa(lp3210
I102
aI133
aI246
aa(lp3211
I116
aI28
aa(lp3212
I15
aI182
aI88
aI1
aa(lp3213
I72
aI255
aI192
aa(lp3214
I132
aI219
aa(lp3215
I117
aI223
aa(lp3216
I235
aI15
aa(lp3217
I49
aI192
aa(lp3218
I69
aI49
aI228
aa(lp3219
I77
aI133
aI246
aa(lp3220
I117
aI10
aa(lp3221
I235
aI11
aa(lp3222
I76
aI137
aI248
aa(lp3223
I77
aI133
aI246
aa(lp3224
I116
aI3
aa(lp3225
I73
aI137
aI6
aa(lp3226
I65
aI128
aI244
aI1
aa(lp3227
I76
aI57
aI248
aa(lp3228
I15
aI150
aI194
aa(lp3229
I68
aI8
aI226
aa(lp3230
I49
aI201
aa(lp3231
I128
aI250
aI1
aa(lp3232
I116
aI12
aa(lp3233
I178
aI1
aa(lp3234
I132
aI210
aa(lp3235
I116
aI6
aa(lp3236
I128
aI56
aI0
aa(lp3237
I15
aI148
aI193
aa(lp3238
I15
aI182
aI193
aa(lp3239
I72
aI131
aI196
aI8
aa(lp3240
I91
aa(lp3241
I65
aI92
aa(lp3242
I65
aI94
aa(lp3243
I65
aI95
aa(lp3244
I195
aasg13
(I4206720
I4206873
tp3245
sg14
I2
sg15
g16
ssS'strtosize_or_err'
p3246
(dp3247
g7
g8
sg9
(lp3248
sg11
(lp3249
(lp3250
I65
aI86
aa(lp3251
I83
aa(lp3252
I80
aa(lp3253
I73
aI137
aI246
aa(lp3254
I72
aI137
aI251
aa(lp3255
I72
aI137
aI230
aa(lp3256
I49
aI210
aa(lp3257
I232
aI12
aI243
aI255
aI255
aa(lp3258
I133
aI192
aa(lp3259
I117
aI12
aa(lp3260
I72
aI139
aI4
aI36
aa(lp3261
I72
aI131
aI196
aI8
aa(lp3262
I91
aa(lp3263
I65
aI94
aa(lp3264
I195
aasg13
(I4208816
I4208901
tp3265
sg14
I2
sg15
g16
ssS'strtox16_or_err'
p3266
(dp3267
g7
g8
sg9
(lp3268
sg11
(lp3269
(lp3270
I65
aI86
aa(lp3271
I83
aa(lp3272
I80
aa(lp3273
I73
aI137
aI246
aa(lp3274
I72
aI137
aI251
aa(lp3275
I186
aI16
aI0
aI0
aI0
aa(lp3276
I232
aI172
aI1
aI0
aI0
aa(lp3277
I72
aI137
aI193
aa(lp3278
I72
aI193
aI233
aI32
aa(lp3279
I117
aI15
aa(lp3280
I61
aI0
aI0
aI1
aI0
aa(lp3281
I115
aI8
aa(lp3282
I72
aI131
aI196
aI8
aa(lp3283
I91
aa(lp3284
I65
aI94
aa(lp3285
I195
aasg13
(I4207712
I4207793
tp3286
sg14
I2
sg15
g16
ssS'print_table'
p3287
(dp3288
g7
g8
sg9
(lp3289
sg11
(lp3290
(lp3291
I85
aa(lp3292
I65
aI86
aa(lp3293
I83
aa(lp3294
I72
aI137
aI243
aa(lp3295
I73
aI137
aI254
aa(lp3296
I72
aI133
aI219
aa(lp3297
I116
aI89
aa(lp3298
I72
aI139
aI19
aa(lp3299
I72
aI133
aI210
aa(lp3300
I116
aI81
aa(lp3301
I72
aI131
aI195
aI16
aa(lp3302
I189
aI1
aI0
aI0
aI0
aa(lp3303
I190
aI102
aI87
aI64
aI0
aa(lp3304
I49
aI192
aa(lp3305
I76
aI137
aI247
aa(lp3306
I232
aI49
aI236
aI255
aI255
aa(lp3307
I72
aI99
aI197
aa(lp3308
I72
aI105
aI200
aI103
aI102
aI102
aI102
aa(lp3309
I72
aI137
aI202
aa(lp3310
I72
aI193
aI234
aI63
aa(lp3311
I72
aI193
aI249
aI33
aa(lp3312
I1
aI209
aa(lp3313
I141
aI12
aI137
aa(lp3314
I57
aI200
aa(lp3315
I117
aI13
aa(lp3316
I191
aI10
aI0
aI0
aI0
aa(lp3317
I76
aI137
aI246
aa(lp3318
I232
aI166
aI235
aI255
aI255
aa(lp3319
I255
aI197
aa(lp3320
I72
aI139
aI19
aa(lp3321
I72
aI131
aI195
aI16
aa(lp3322
I72
aI133
aI210
aa(lp3323
I117
aI184
aa(lp3324
I91
aa(lp3325
I65
aI94
aa(lp3326
I93
aa(lp3327
I195
aasg13
(I4205392
I4205501
tp3328
sg14
I2
sg15
g16
ssS'close_stdout'
p3329
(dp3330
g7
g8
sg9
(lp3331
sg11
(lp3332
(lp3333
I65
aI86
aa(lp3334
I83
aa(lp3335
I80
aa(lp3336
I72
aI139
aI29
aI237
aI71
aI32
aI0
aa(lp3337
I232
aI32
aI235
aI255
aI255
aa(lp3338
I73
aI137
aI198
aa(lp3339
I65
aI199
aI6
aI0
aI0
aI0
aI0
aa(lp3340
I72
aI137
aI223
aa(lp3341
I232
aI78
aI235
aI255
aI255
aa(lp3342
I133
aI192
aa(lp3343
I15
aI133
aI163
aI0
aI0
aI0
aa(lp3344
I72
aI137
aI223
aa(lp3345
I232
aI190
aI237
aI255
aI255
aa(lp3346
I133
aI192
aa(lp3347
I116
aI69
aa(lp3348
I65
aI139
aI30
aa(lp3349
I131
aI251
aI9
aa(lp3350
I116
aI9
aa(lp3351
I131
aI251
aI32
aa(lp3352
I15
aI133
aI156
aI0
aI0
aI0
aa(lp3353
I72
aI139
aI29
aI194
aI71
aI32
aI0
aa(lp3354
I65
aI199
aI6
aI0
aI0
aI0
aI0
aa(lp3355
I72
aI137
aI223
aa(lp3356
I232
aI19
aI235
aI255
aI255
aa(lp3357
I133
aI192
aa(lp3358
I117
aI98
aa(lp3359
I72
aI137
aI223
aa(lp3360
I232
aI135
aI237
aI255
aI255
aa(lp3361
I133
aI192
aa(lp3362
I116
aI50
aa(lp3363
I65
aI131
aI62
aI9
aa(lp3364
I117
aI80
aa(lp3365
I72
aI131
aI196
aI8
aa(lp3366
I91
aa(lp3367
I65
aI94
aa(lp3368
I195
aasg13
(I4205104
I4205389
tp3369
sg14
I0
sg15
g16
ssS'get_exp'
p3370
(dp3371
g7
g8
sg9
(lp3372
sg11
(lp3373
sg13
(tsg14
I1
sg15
g16
ssS'my_cfsetspeed'
p3374
(dp3375
g7
g8
sg9
(lp3376
sg11
(lp3377
sg13
(tsg14
I2
sg15
g16
ssS'strtou16_or_err'
p3378
(dp3379
g7
g8
sg9
(lp3380
sg11
(lp3381
(lp3382
I65
aI86
aa(lp3383
I83
aa(lp3384
I80
aa(lp3385
I73
aI137
aI246
aa(lp3386
I72
aI137
aI251
aa(lp3387
I186
aI10
aI0
aI0
aI0
aa(lp3388
I232
aI12
aI2
aI0
aI0
aa(lp3389
I72
aI137
aI193
aa(lp3390
I72
aI193
aI233
aI32
aa(lp3391
I117
aI15
aa(lp3392
I61
aI0
aI0
aI1
aI0
aa(lp3393
I115
aI8
aa(lp3394
I72
aI131
aI196
aI8
aa(lp3395
I91
aa(lp3396
I65
aI94
aa(lp3397
I195
aasg13
(I4207616
I4207697
tp3398
sg14
I2
sg15
g16
ssS'strtoul_or_err'
p3399
(dp3400
g7
g8
sg9
(lp3401
sg11
(lp3402
(lp3403
I65
aI87
aa(lp3404
I65
aI86
aa(lp3405
I83
aa(lp3406
I72
aI131
aI236
aI16
aa(lp3407
I73
aI137
aI246
aa(lp3408
I73
aI137
aI255
aa(lp3409
I72
aI199
aI68
aI36
aI8
aI0
aI0
aa(lp3410
I0
aI0
aa(lp3411
I232
aI51
aI221
aI255
aI255
aa(lp3412
I72
aI137
aI195
aa(lp3413
I199
aI3
aI0
aI0
aI0
aI0
aa(lp3414
I77
aI133
aI255
aa(lp3415
I116
aI60
aa(lp3416
I65
aI128
aI63
aI0
aa(lp3417
I116
aI54
aa(lp3418
I72
aI141
aI116
aI36
aI8
aa(lp3419
I186
aI10
aI0
aI0
aI0
aa(lp3420
I76
aI137
aI255
aa(lp3421
I232
aI77
aI224
aI255
aI255
aa(lp3422
I139
aI11
aa(lp3423
I133
aI201
aa(lp3424
I117
aI56
aa(lp3425
I72
aI139
aI76
aI36
aI8
aa(lp3426
I76
aI57
aI249
aa(lp3427
I116
aI20
aa(lp3428
I72
aI133
aI201
aa(lp3429
I116
aI5
aa(lp3430
I128
aI57
aI0
aa(lp3431
I117
aI10
aa(lp3432
I72
aI131
aI196
aI16
aa(lp3433
I91
aa(lp3434
I65
aI94
aa(lp3435
I65
aI95
aa(lp3436
I195
aasg13
(I4208656
I4208816
tp3437
sg14
I2
sg15
g16
ssS'string_to_bitmask'
p3438
(dp3439
g7
g8
sg9
(lp3440
sg11
(lp3441
(lp3442
I85
aa(lp3443
I65
aI87
aa(lp3444
I65
aI86
aa(lp3445
I65
aI85
aa(lp3446
I65
aI84
aa(lp3447
I83
aa(lp3448
I80
aa(lp3449
I73
aI137
aI214
aa(lp3450
I73
aI137
aI247
aa(lp3451
I72
aI137
aI251
aa(lp3452
I72
aI133
aI219
aa(lp3453
I15
aI148
aI192
aa(lp3454
I77
aI133
aI246
aa(lp3455
I15
aI148
aI193
aa(lp3456
I8
aI193
aa(lp3457
I77
aI133
aI255
aa(lp3458
I15
aI149
aI194
aa(lp3459
I48
aI202
aa(lp3460
I184
aI234
aI255
aI255
aI255
aa(lp3461
I128
aI250
aI1
aa(lp3462
I15
aI133
aI203
aI0
aI0
aI0
aa(lp3463
I77
aI133
aI255
aa(lp3464
I15
aI132
aI194
aI0
aI0
aI0
aa(lp3465
I138
aI11
aa(lp3466
I132
aI201
aa(lp3467
I15
aI132
aI182
aI0
aI0
aI0
aa(lp3468
I72
aI255
aI195
aa(lp3469
I49
aI246
aa(lp3470
I73
aI189
aI78
aI175
aI47
aI86
aI7
aa(lp3471
I18
aI112
aI150
aa(lp3472
I76
aI137
aI237
aa(lp3473
I72
aI247
aI213
aa(lp3474
I49
aI192
aa(lp3475
I102
aI102
aI102
aI102
aI102
aI46
aI15
aa(lp3476
I31
aI132
aI0
aI0
aI0
aI0
aI0
aa(lp3477
I76
aI141
aI99
aI255
aa(lp3478
I72
aI133
aI192
aa(lp3479
I73
aI15
aI68
aI196
aa(lp3480
I128
aI249
aI44
aa(lp3481
I76
aI15
aI69
aI230
aa(lp3482
I128
aI59
aI0
aa(lp3483
I76
aI15
aI68
aI227
aa(lp3484
I72
aI133
aI192
aa(lp3485
I15
aI148
aI193
aa(lp3486
I77
aI133
aI228
aa(lp3487
I15
aI148
aI194
aa(lp3488
I8
aI202
aa(lp3489
I128
aI250
aI1
aa(lp3490
I116
aI87
aa(lp3491
I177
aI1
aa(lp3492
I132
aI201
aa(lp3493
I116
aI81
aa(lp3494
I76
aI137
aI230
aa(lp3495
I72
aI41
aI198
aa(lp3496
I118
aI104
aa(lp3497
I72
aI137
aI199
aa(lp3498
I65
aI255
aI214
aa(lp3499
I72
aI133
aI192
aa(lp3500
I120
aI78
aa(lp3501
I73
aI139
aI15
aa(lp3502
I72
aI137
aI202
aa(lp3503
I72
aI247
aI210
aa(lp3504
I72
aI137
aI198
aa(lp3505
I72
aI247
aI214
aa(lp3506
I72
aI137
aI215
aa(lp3507
I76
aI33
aI239
aa(lp3508
I72
aI33
aI233
aa(lp3509
I72
aI9
aI242
aa(lp3510
I76
aI33
aI238
aa(lp3511
I72
aI33
aI232
aa(lp3512
I72
aI9
aI249
aa(lp3513
I72
aI9
aI240
aa(lp3514
I72
aI49
aI200
aa(lp3515
I72
aI247
aI210
aa(lp3516
I72
aI9
aI194
aa(lp3517
I73
aI137
aI23
aa(lp3518
I49
aI192
aa(lp3519
I65
aI128
aI60
aI36
aI0
aa(lp3520
I116
aI18
aa(lp3521
I49
aI246
aa(lp3522
I15
aI182
aI11
aa(lp3523
I72
aI255
aI195
aa(lp3524
I132
aI201
aa(lp3525
I15
aI133
aI111
aI255
aI255
aI255
aa(lp3526
I49
aI192
aa(lp3527
I72
aI131
aI196
aI8
aa(lp3528
I91
aa(lp3529
I65
aI92
aa(lp3530
I65
aI93
aa(lp3531
I65
aI94
aa(lp3532
I65
aI95
aa(lp3533
I93
aa(lp3534
I195
aasg13
(I4210928
I4211209
tp3535
sg14
I3
sg15
g16
sssS'function_calls'
p3536
(dp3537
sS'binary_filename'
p3538
S'ldattach'
p3539
sS'structures'
p3540
(dp3541
sS'extern_functions'
p3542
(dp3543
sS'arch'
p3544
S'amd64'
p3545
sS'bin_raw_bytes'
p3546
g8
s.