(dp0
S'text_addr'
p1
S'0x401030'
p2
sS'functions'
p3
(dp4
S'flush_standard_stream'
p5
(dp6
S'ret_type'
p7
S''
p8
sS'args_type'
p9
(lp10
sS'inst_bytes'
p11
(lp12
sS'boundaries'
p13
(tsS'num_args'
p14
I1
sS'inst_strings'
p15
(lp16
ssS'get_env_int'
p17
(dp18
g7
g8
sg9
(lp19
sg11
(lp20
sg13
(tsg14
I1
sg15
g16
ssS'get_terminal_dimension'
p21
(dp22
g7
g8
sg9
(lp23
sg11
(lp24
(lp25
I85
aa(lp26
I65
aI87
aa(lp27
I65
aI86
aa(lp28
I65
aI85
aa(lp29
I65
aI84
aa(lp30
I83
aa(lp31
I72
aI131
aI236
aI24
aa(lp32
I73
aI137
aI246
aa(lp33
I73
aI137
aI252
aa(lp34
I49
aI219
aa(lp35
I72
aI141
aI84
aI36
aI16
aa(lp36
I191
aI1
aI0
aI0
aI0
aa(lp37
I190
aI19
aI84
aI0
aI0
aa(lp38
I49
aI192
aa(lp39
I232
aI100
aI248
aI255
aI255
aa(lp40
I133
aI192
aa(lp41
I65
aI191
aI0
aI0
aI0
aI0
aa(lp42
I117
aI11
aa(lp43
I15
aI183
aI92
aI36
aI18
aa(lp44
I68
aI15
aI183
aI124
aI36
aI16
aa(lp45
I77
aI133
aI228
aa(lp46
I116
aI118
aa(lp47
I133
aI219
aa(lp48
I117
aI110
aa(lp49
I72
aI141
aI61
aI6
aI7
aI0
aI0
aa(lp50
I232
aI26
aI247
aI255
aI255
aa(lp51
I73
aI137
aI197
aa(lp52
I77
aI133
aI237
aa(lp53
I116
aI85
aa(lp54
I72
aI199
aI68
aI36
aI8
aI0
aI0
aa(lp55
I0
aI0
aa(lp56
I232
aI36
aI247
aI255
aI255
aa(lp57
I72
aI137
aI197
aa(lp58
I199
aI69
aI0
aI0
aI0
aI0
aI0
aa(lp59
I72
aI141
aI116
aI36
aI8
aa(lp60
I186
aI10
aI0
aI0
aI0
aa(lp61
I76
aI137
aI239
aa(lp62
I232
aI88
aI248
aI255
aI255
aa(lp63
I72
aI137
aI195
aa(lp64
I72
aI139
aI68
aI36
aI8
aa(lp65
I131
aI125
aI0
aI0
aa(lp66
I15
aI149
aI193
aa(lp67
I72
aI133
aI192
aa(lp68
I15
aI148
aI194
aa(lp69
I8
aI202
aa(lp70
I128
aI250
aI1
aa(lp71
I116
aI15
aa(lp72
I177
aI1
aa(lp73
I132
aI201
aa(lp74
I116
aI9
aa(lp75
I128
aI56
aI0
aa(lp76
I15
aI132
aI142
aI0
aI0
aI0
aa(lp77
I187
aI255
aI255
aI255
aI255
aa(lp78
I65
aI137
aI28
aI36
aa(lp79
I77
aI133
aI246
aa(lp80
I116
aI111
aa(lp81
I69
aI133
aI255
aa(lp82
I117
aI103
aa(lp83
I72
aI141
aI61
aI146
aI6
aI0
aI0
aa(lp84
I232
aI158
aI246
aI255
aI255
aa(lp85
I72
aI137
aI195
aa(lp86
I72
aI133
aI219
aa(lp87
I116
aI77
aa(lp88
I72
aI199
aI68
aI36
aI8
aI0
aI0
aa(lp89
I0
aI0
aa(lp90
I232
aI168
aI246
aI255
aI255
aa(lp91
I72
aI137
aI197
aa(lp92
I199
aI69
aI0
aI0
aI0
aI0
aI0
aa(lp93
I72
aI141
aI116
aI36
aI8
aa(lp94
I186
aI10
aI0
aI0
aI0
aa(lp95
I72
aI137
aI223
aa(lp96
I232
aI220
aI247
aI255
aI255
aa(lp97
I73
aI137
aI199
aa(lp98
I139
aI77
aI0
aa(lp99
I133
aI201
aa(lp100
I15
aI148
aI194
aa(lp101
I72
aI139
aI116
aI36
aI8
aa(lp102
I72
aI133
aI246
aa(lp103
I15
aI149
aI192
aa(lp104
I48
aI208
aa(lp105
I117
aI9
aa(lp106
I133
aI201
aa(lp107
I117
aI5
aa(lp108
I128
aI62
aI0
aa(lp109
I116
aI94
aa(lp110
I65
aI191
aI255
aI255
aI255
aI255
aa(lp111
I69
aI137
aI62
aa(lp112
I49
aI192
aa(lp113
I72
aI131
aI196
aI24
aa(lp114
I91
aa(lp115
I65
aI92
aa(lp116
I65
aI93
aa(lp117
I65
aI94
aa(lp118
I65
aI95
aa(lp119
I93
aa(lp120
I195
aasg13
(I4200080
I4200503
tp121
sg14
I2
sg15
g16
ssS'get_terminal_stdfd'
p122
(dp123
g7
g8
sg9
(lp124
sg11
(lp125
(lp126
I85
aa(lp127
I83
aa(lp128
I80
aa(lp129
I49
aI219
aa(lp130
I49
aI255
aa(lp131
I232
aI4
aI246
aI255
aI255
aa(lp132
I133
aI192
aa(lp133
I117
aI44
aa(lp134
I187
aI1
aI0
aI0
aI0
aa(lp135
I191
aI1
aI0
aI0
aI0
aa(lp136
I232
aI241
aI245
aI255
aI255
aa(lp137
I133
aI192
aa(lp138
I117
aI25
aa(lp139
I189
aI2
aI0
aI0
aI0
aa(lp140
I191
aI2
aI0
aI0
aI0
aa(lp141
I232
aI222
aI245
aI255
aI255
aa(lp142
I133
aI192
aa(lp143
I187
aI234
aI255
aI255
aI255
aa(lp144
I15
aI69
aI221
aa(lp145
I137
aI216
aa(lp146
I72
aI131
aI196
aI8
aa(lp147
I91
aa(lp148
I93
aa(lp149
I195
aasg13
(tsg14
I0
sg15
g16
ssS'close_stdout'
p150
(dp151
g7
g8
sg9
(lp152
sg11
(lp153
(lp154
I65
aI86
aa(lp155
I83
aa(lp156
I80
aa(lp157
I72
aI139
aI29
aI205
aI27
aI32
aI0
aa(lp158
I232
aI160
aI248
aI255
aI255
aa(lp159
I73
aI137
aI198
aa(lp160
I65
aI199
aI6
aI0
aI0
aI0
aI0
aa(lp161
I72
aI137
aI223
aa(lp162
I232
aI222
aI248
aI255
aI255
aa(lp163
I133
aI192
aa(lp164
I15
aI133
aI163
aI0
aI0
aI0
aa(lp165
I72
aI137
aI223
aa(lp166
I232
aI254
aI249
aI255
aI255
aa(lp167
I133
aI192
aa(lp168
I116
aI69
aa(lp169
I65
aI139
aI30
aa(lp170
I131
aI251
aI9
aa(lp171
I116
aI9
aa(lp172
I131
aI251
aI32
aa(lp173
I15
aI133
aI156
aI0
aI0
aI0
aa(lp174
I72
aI139
aI29
aI162
aI27
aI32
aI0
aa(lp175
I65
aI199
aI6
aI0
aI0
aI0
aI0
aa(lp176
I72
aI137
aI223
aa(lp177
I232
aI163
aI248
aI255
aI255
aa(lp178
I133
aI192
aa(lp179
I117
aI98
aa(lp180
I72
aI137
aI223
aa(lp181
I232
aI199
aI249
aI255
aI255
aa(lp182
I133
aI192
aa(lp183
I116
aI50
aa(lp184
I65
aI131
aI62
aI9
aa(lp185
I117
aI80
aa(lp186
I72
aI131
aI196
aI8
aa(lp187
I91
aa(lp188
I65
aI94
aa(lp189
I195
aasg13
(I4199792
I4200077
tp190
sg14
I0
sg15
g16
ssS'get_terminal_type'
p191
(dp192
g7
g8
sg9
(lp193
sg11
(lp194
(lp195
I83
aa(lp196
I72
aI137
aI251
aa(lp197
I72
aI141
aI61
aI224
aI3
aI0
aI0
aa(lp198
I232
aI224
aI243
aI255
aI255
aa(lp199
I72
aI137
aI3
aa(lp200
I49
aI201
aa(lp201
I72
aI133
aI192
aa(lp202
I184
aI234
aI255
aI255
aI255
aa(lp203
I15
aI68
aI193
aa(lp204
I91
aa(lp205
I195
aasg13
(I4200976
I4201010
tp206
sg14
I1
sg15
g16
ssS'get_terminal_width'
p207
(dp208
g7
g8
sg9
(lp209
sg11
(lp210
(lp211
I83
aa(lp212
I72
aI131
aI236
aI16
aa(lp213
I137
aI251
aa(lp214
I199
aI68
aI36
aI12
aI0
aI0
aI0
aI0
aa(lp215
I72
aI141
aI124
aI36
aI12
aa(lp216
I49
aI246
aa(lp217
I232
aI53
aI254
aI255
aI255
aa(lp218
I139
aI68
aI36
aI12
aa(lp219
I133
aI192
aa(lp220
I15
aI78
aI195
aa(lp221
I72
aI131
aI196
aI16
aa(lp222
I91
aa(lp223
I195
aasg13
(I4200512
I4200554
tp224
sg14
I1
sg15
g16
ssS'close_stdout_atexit'
p225
(dp226
g7
g8
sg9
(lp227
sg11
(lp228
sg13
(tsg14
I0
sg15
g16
ssS'get_terminal_name'
p229
(dp230
g7
g8
sg9
(lp231
sg11
(lp232
(lp233
I85
aa(lp234
I65
aI87
aa(lp235
I65
aI86
aa(lp236
I65
aI84
aa(lp237
I83
aa(lp238
I73
aI137
aI214
aa(lp239
I73
aI137
aI247
aa(lp240
I73
aI137
aI252
aa(lp241
I77
aI133
aI255
aa(lp242
I116
aI7
aa(lp243
I73
aI199
aI7
aI0
aI0
aI0
aI0
aa(lp244
I77
aI133
aI228
aa(lp245
I116
aI8
aa(lp246
I73
aI199
aI4
aI36
aI0
aI0
aI0
aI0
aa(lp247
I77
aI133
aI246
aa(lp248
I116
aI7
aa(lp249
I73
aI199
aI6
aI0
aI0
aI0
aI0
aa(lp250
I49
aI219
aa(lp251
I49
aI255
aa(lp252
I232
aI129
aI245
aI255
aI255
aa(lp253
I133
aI192
aa(lp254
I117
aI42
aa(lp255
I187
aI1
aI0
aI0
aI0
aa(lp256
I191
aI1
aI0
aI0
aI0
aa(lp257
I232
aI110
aI245
aI255
aI255
aa(lp258
I133
aI192
aa(lp259
I117
aI23
aa(lp260
I187
aI2
aI0
aI0
aI0
aa(lp261
I191
aI2
aI0
aI0
aI0
aa(lp262
I232
aI91
aI245
aI255
aI255
aa(lp263
I133
aI192
aa(lp264
I15
aI132
aI200
aI0
aI0
aI0
aa(lp265
I137
aI223
aa(lp266
I232
aI140
aI246
aI255
aI255
aa(lp267
I72
aI137
aI197
aa(lp268
I72
aI133
aI237
aa(lp269
I15
aI132
aI168
aI0
aI0
aI0
aa(lp270
I77
aI133
aI228
aa(lp271
I116
aI4
aa(lp272
I73
aI137
aI44
aI36
aa(lp273
I77
aI133
aI246
aa(lp274
I15
aI149
aI192
aa(lp275
I77
aI133
aI255
aa(lp276
I15
aI149
aI193
aa(lp277
I132
aI193
aa(lp278
I117
aI4
aa(lp279
I48
aI193
aa(lp280
I116
aI30
aa(lp281
I72
aI141
aI53
aI145
aI4
aI0
aI0
aa(lp282
I186
aI5
aI0
aI0
aI0
aa(lp283
I72
aI137
aI239
aa(lp284
I232
aI191
aI244
aI255
aI255
aa(lp285
I72
aI141
aI77
aI5
aa(lp286
I133
aI192
aa(lp287
I72
aI15
aI68
aI233
aa(lp288
I77
aI133
aI255
aa(lp289
I116
aI3
aa(lp290
I73
aI137
aI47
aa(lp291
I77
aI133
aI246
aa(lp292
I15
aI148
aI193
aa(lp293
I72
aI133
aI237
aa(lp294
I15
aI148
aI194
aa(lp295
I72
aI137
aI232
aa(lp296
I76
aI9
aI240
aa(lp297
I15
aI148
aI192
aa(lp298
I69
aI49
aI255
aa(lp299
I48
aI202
aa(lp300
I117
aI92
aa(lp301
I132
aI192
aa(lp302
I117
aI88
aa(lp303
I138
aI93
aI0
aa(lp304
I132
aI219
aa(lp305
I116
aI81
aa(lp306
I232
aI113
aI246
aI255
aI255
aa(lp307
I72
aI139
aI0
aa(lp308
I102
aI102
aI102
aI102
aI102
aI46
aI15
aa(lp309
I31
aI132
aI0
aI0
aI0
aI0
aI0
aa(lp310
I72
aI15
aI190
aI203
aa(lp311
I15
aI183
aI12
aI72
aa(lp312
I247
aI209
aa(lp313
I129
aI201
aI255
aI247
aI0
aI0
aa(lp314
I15
aI183
aI201
aa(lp315
I129
aI249
aI255
aI255
aI0
aI0
aa(lp316
I117
aI21
aa(lp317
I15
aI182
aI93
aI1
aa(lp318
I72
aI255
aI197
aa(lp319
I132
aI219
aa(lp320
I117
aI218
aa(lp321
I235
aI19
aa(lp322
I65
aI191
aI255
aI255
aI255
aI255
aa(lp323
I235
aI11
aa(lp324
I73
aI137
aI46
aa(lp325
I235
aI6
aa(lp326
I65
aI191
aI234
aI255
aI255
aI255
aa(lp327
I68
aI137
aI248
aa(lp328
I91
aa(lp329
I65
aI92
aa(lp330
I65
aI94
aa(lp331
I65
aI95
aa(lp332
I93
aa(lp333
I195
aasg13
(I4200640
I4200967
tp334
sg14
I3
sg15
g16
ssS'usage'
p335
(dp336
g7
g8
sg9
(lp337
sg11
(lp338
sg13
(tsg14
I0
sg15
g16
ssS'main'
p339
(dp340
g7
g8
sg9
(lp341
sg11
(lp342
(lp343
I85
aa(lp344
I65
aI87
aa(lp345
I65
aI86
aa(lp346
I65
aI84
aa(lp347
I83
aa(lp348
I72
aI129
aI236
aI176
aI0
aI0
aI0
aa(lp349
I73
aI137
aI247
aa(lp350
I137
aI253
aa(lp351
I191
aI6
aI0
aI0
aI0
aa(lp352
I190
aI62
aI29
aI64
aI0
aa(lp353
I232
aI141
aI254
aI255
aI255
aa(lp354
I191
aI120
aI27
aI64
aI0
aa(lp355
I190
aI131
aI27
aI64
aI0
aa(lp356
I232
aI78
aI253
aI255
aI255
aa(lp357
I191
aI120
aI27
aI64
aI0
aa(lp358
I232
aI52
aI253
aI255
aI255
aa(lp359
I191
aI112
aI21
aI64
aI0
aa(lp360
I232
aI90
aI9
aI0
aI0
aa(lp361
I49
aI219
aa(lp362
I186
aI149
aI27
aI64
aI0
aa(lp363
I185
aI240
aI26
aI64
aI0
aa(lp364
I69
aI49
aI192
aa(lp365
I137
aI239
aa(lp366
I76
aI137
aI254
aa(lp367
I232
aI65
aI253
aI255
aI255
aa(lp368
I131
aI248
aI103
aa(lp369
I15
aI142
aI45
aI1
aI0
aI0
aa(lp370
I187
aI1
aI0
aI0
aI0
aa(lp371
I131
aI248
aI118
aa(lp372
I116
aI214
aa(lp373
I131
aI248
aI104
aa(lp374
I15
aI133
aI99
aI3
aI0
aI0
aa(lp375
I72
aI139
aI29
aI166
aI31
aI32
aI0
aa(lp376
I49
aI255
aa(lp377
I190
aI232
aI28
aI64
aI0
aa(lp378
I186
aI5
aI0
aI0
aI0
aa(lp379
I232
aI253
aI252
aI255
aI255
aa(lp380
I72
aI137
aI199
aa(lp381
I72
aI137
aI222
aa(lp382
I232
aI82
aI253
aI255
aI255
aa(lp383
I49
aI255
aa(lp384
I190
aI241
aI28
aI64
aI0
aa(lp385
I186
aI5
aI0
aI0
aI0
aa(lp386
I232
aI225
aI252
aI255
aI255
aa(lp387
I72
aI137
aI193
aa(lp388
I72
aI139
aI21
aI103
aI31
aI32
aI0
aa(lp389
I49
aI192
aa(lp390
I72
aI137
aI223
aa(lp391
I72
aI137
aI206
aa(lp392
I232
aI106
aI253
aI255
aI255
aa(lp393
I191
aI10
aI0
aI0
aI0
aa(lp394
I72
aI137
aI222
aa(lp395
I232
aI77
aI253
aI255
aI255
aa(lp396
I49
aI255
aa(lp397
I190
aI8
aI29
aI64
aI0
aa(lp398
I186
aI5
aI0
aI0
aI0
aa(lp399
I232
aI172
aI252
aI255
aI255
aa(lp400
I72
aI137
aI199
aa(lp401
I72
aI137
aI222
aa(lp402
I232
aI1
aI253
aI255
aI255
aa(lp403
I49
aI255
aa(lp404
I190
aI63
aI29
aI64
aI0
aa(lp405
I186
aI5
aI0
aI0
aI0
aa(lp406
I232
aI144
aI252
aI255
aI255
aa(lp407
I72
aI137
aI199
aa(lp408
I72
aI137
aI222
aa(lp409
I232
aI229
aI252
aI255
aI255
aa(lp410
I49
aI255
aa(lp411
I190
aI74
aI29
aI64
aI0
aa(lp412
I186
aI5
aI0
aI0
aI0
aa(lp413
I232
aI116
aI252
aI255
aI255
aa(lp414
I72
aI137
aI199
aa(lp415
I72
aI137
aI222
aa(lp416
I232
aI201
aI252
aI255
aI255
aa(lp417
I49
aI255
aa(lp418
I190
aI147
aI29
aI64
aI0
aa(lp419
I186
aI5
aI0
aI0
aI0
aa(lp420
I232
aI88
aI252
aI255
aI255
aa(lp421
I72
aI137
aI195
aa(lp422
I49
aI255
aa(lp423
I190
aI180
aI29
aI64
aI0
aa(lp424
I186
aI5
aI0
aI0
aI0
aa(lp425
I232
aI68
aI252
aI255
aI255
aa(lp426
I72
aI137
aI197
aa(lp427
I191
aI118
aI29
aI64
aI0
aa(lp428
I190
aI135
aI29
aI64
aI0
aa(lp429
I185
aI165
aI29
aI64
aI0
aa(lp430
I49
aI192
aa(lp431
I72
aI137
aI218
aa(lp432
I73
aI137
aI232
aa(lp433
I232
aI69
aI252
aI255
aI255
aa(lp434
I49
aI255
aa(lp435
I190
aI196
aI29
aI64
aI0
aa(lp436
I186
aI5
aI0
aI0
aI0
aa(lp437
I232
aI20
aI252
aI255
aI255
aa(lp438
I72
aI137
aI193
aa(lp439
I190
aI223
aI29
aI64
aI0
aa(lp440
I49
aI192
aa(lp441
I72
aI137
aI207
aa(lp442
I232
aI34
aI252
aI255
aI255
aa(lp443
I49
aI255
aa(lp444
I232
aI91
aI253
aI255
aI255
aa(lp445
I131
aI248
aI255
aa(lp446
I15
aI133
aI157
aI1
aI0
aI0
aa(lp447
I76
aI99
aI37
aI139
aI30
aI32
aI0
aa(lp448
I232
aI166
aI5
aI0
aI0
aa(lp449
I137
aI197
aa(lp450
I133
aI237
aa(lp451
I15
aI136
aI193
aI1
aI0
aI0
aa(lp452
I137
aI239
aa(lp453
I232
aI229
aI252
aI255
aI255
aa(lp454
I73
aI137
aI198
aa(lp455
I77
aI133
aI246
aa(lp456
I117
aI71
aa(lp457
I73
aI137
aI230
aa(lp458
I190
aI25
aI0
aI0
aI0
aa(lp459
I186
aI237
aI27
aI64
aI0
aa(lp460
I185
aI243
aI27
aI64
aI0
aa(lp461
I49
aI192
aa(lp462
I76
aI137
aI247
aa(lp463
I65
aI137
aI232
aa(lp464
I232
aI238
aI251
aI255
aI255
aa(lp465
I133
aI219
aa(lp466
I116
aI36
aa(lp467
I73
aI137
aI230
aa(lp468
I49
aI255
aa(lp469
I190
aI1
aI28
aI64
aI0
aa(lp470
I186
aI5
aI0
aI0
aI0
aa(lp471
I232
aI150
aI251
aI255
aI255
aa(lp472
I72
aI137
aI193
aa(lp473
I49
aI192
aa(lp474
I72
aI137
aI207
aa(lp475
I76
aI137
aI246
aa(lp476
I232
aI182
aI251
aI255
aI255
aa(lp477
I49
aI246
aa(lp478
I49
aI192
aa(lp479
I76
aI137
aI247
aa(lp480
I232
aI186
aI252
aI255
aI255
aa(lp481
I137
aI197
aa(lp482
I133
aI237
aa(lp483
I15
aI136
aI129
aI1
aI0
aI0
aa(lp484
I72
aI141
aI84
aI36
aI32
aa(lp485
I191
aI1
aI0
aI0
aI0
aa(lp486
I137
aI238
aa(lp487
I232
aI95
aI252
aI255
aI255
aa(lp488
I133
aI192
aa(lp489
I15
aI133
aI113
aI1
aI0
aI0
aa(lp490
I75
aI139
aI60
aI231
aa(lp491
I72
aI133
aI255
aa(lp492
I116
aI83
aa(lp493
I232
aI249
aI251
aI255
aI255
aa(lp494
I133
aI192
aa(lp495
I116
aI124
aa(lp496
I131
aI248
aI1
aa(lp497
I15
aI133
aI95
aI1
aI0
aI0
aa(lp498
I139
aI116
aI36
aI56
aa(lp499
I137
aI240
aa(lp500
I247
aI208
aa(lp501
I37
aI225
aI222
aI222
aI28
aa(lp502
I137
aI241
aa(lp503
I129
aI225
aI30
aI33
aI33
aI227
aa(lp504
I9
aI193
aa(lp505
I129
aI241
aI241
aI222
aI222
aI28
aa(lp506
I131
aI230
aI16
aa(lp507
I9
aI206
aa(lp508
I137
aI239
aa(lp509
I232
aI67
aI252
aI255
aI255
aa(lp510
I133
aI192
aa(lp511
I15
aI136
aI146
aI1
aI0
aI0
aa(lp512
I69
aI49
aI246
aa(lp513
I133
aI219
aa(lp514
I116
aI116
aa(lp515
I49
aI255
aa(lp516
I190
aI118
aI28
aI64
aI0
aa(lp517
I235
aI89
aa(lp518
I137
aI239
aa(lp519
I232
aI116
aI251
aI255
aI255
aa(lp520
I139
aI68
aI36
aI56
aa(lp521
I137
aI193
aa(lp522
I131
aI241
aI237
aa(lp523
I133
aI193
aa(lp524
I116
aI113
aa(lp525
I69
aI49
aI246
aa(lp526
I49
aI255
aa(lp527
I190
aI86
aI28
aI64
aI0
aa(lp528
I186
aI5
aI0
aI0
aI0
aa(lp529
I232
aI211
aI250
aI255
aI255
aa(lp530
I72
aI137
aI199
aa(lp531
I232
aI123
aI250
aI255
aI255
aa(lp532
I235
aI64
aa(lp533
I139
aI116
aI36
aI56
aa(lp534
I131
aI230
aI237
aa(lp535
I137
aI239
aa(lp536
I232
aI235
aI251
aI255
aI255
aa(lp537
I133
aI192
aa(lp538
I15
aI136
aI58
aI1
aI0
aI0
aa(lp539
I65
aI190
aI1
aI0
aI0
aI0
aa(lp540
I133
aI219
aa(lp541
I116
aI25
aa(lp542
I49
aI255
aa(lp543
I190
aI159
aI28
aI64
aI0
aa(lp544
I186
aI5
aI0
aI0
aI0
aa(lp545
I232
aI152
aI250
aI255
aI255
aa(lp546
I72
aI137
aI199
aa(lp547
I232
aI64
aI250
aI255
aI255
aa(lp548
I137
aI239
aa(lp549
I232
aI9
aI251
aI255
aI255
aa(lp550
I68
aI137
aI240
aa(lp551
I72
aI129
aI196
aI176
aI0
aI0
aI0
aa(lp552
I91
aa(lp553
I65
aI92
aa(lp554
I65
aI94
aa(lp555
I65
aI95
aa(lp556
I93
aa(lp557
I195
aasg13
(I4198688
I4199778
tp558
sg14
I2
sg15
g16
ssS'fstat'
p559
(dp560
g7
g8
sg9
(lp561
sg11
(lp562
sg13
(tsg14
I2
sg15
g16
sssS'function_calls'
p563
(dp564
sS'binary_filename'
p565
S'mesg'
p566
sS'structures'
p567
(dp568
sS'extern_functions'
p569
(dp570
sS'arch'
p571
S'amd64'
p572
sS'bin_raw_bytes'
p573
g8
s.