(dp0
S'text_addr'
p1
S'0x400990'
p2
sS'functions'
p3
(dp4
S'usage'
p5
(dp6
S'ret_type'
p7
S''
p8
sS'args_type'
p9
(lp10
sS'inst_bytes'
p11
(lp12
sS'boundaries'
p13
(tsS'num_args'
p14
I0
sS'inst_strings'
p15
(lp16
ssS'main'
p17
(dp18
g7
g8
sg9
(lp19
sg11
(lp20
(lp21
I85
aa(lp22
I65
aI86
aa(lp23
I83
aa(lp24
I72
aI129
aI236
aI144
aI32
aI0
aI0
aa(lp25
I72
aI137
aI243
aa(lp26
I137
aI253
aa(lp27
I191
aI6
aI0
aI0
aI0
aa(lp28
I190
aI251
aI16
aI64
aI0
aa(lp29
I232
aI193
aI254
aI255
aI255
aa(lp30
I191
aI203
aI15
aI64
aI0
aa(lp31
I190
aI214
aI15
aI64
aI0
aa(lp32
I232
aI18
aI254
aI255
aI255
aa(lp33
I191
aI203
aI15
aI64
aI0
aa(lp34
I232
aI248
aI253
aI255
aI255
aa(lp35
I73
aI190
aI0
aI32
aI72
aI16
aI0
aa(lp36
I124
aI0
aI0
aa(lp37
I102
aI102
aI102
aI102
aI102
aI46
aI15
aa(lp38
I31
aI132
aI0
aI0
aI0
aI0
aI0
aa(lp39
I186
aI232
aI15
aI64
aI0
aa(lp40
I185
aI0
aI14
aI64
aI0
aa(lp41
I69
aI49
aI192
aa(lp42
I137
aI239
aa(lp43
I72
aI137
aI222
aa(lp44
I232
aI249
aI253
aI255
aI255
aa(lp45
I141
aI72
aI170
aa(lp46
I131
aI249
aI46
aa(lp47
I15
aI135
aI54
aI1
aI0
aI0
aa(lp48
I73
aI15
aI163
aI206
aa(lp49
I114
aI215
aa(lp50
I72
aI133
aI201
aa(lp51
I15
aI132
aI251
aI1
aI0
aI0
aa(lp52
I72
aI131
aI249
aI18
aa(lp53
I15
aI133
aI29
aI1
aI0
aI0
aa(lp54
I72
aI139
aI29
aI149
aI21
aI32
aI0
aa(lp55
I49
aI255
aa(lp56
I190
aI120
aI16
aI64
aI0
aa(lp57
I186
aI5
aI0
aI0
aI0
aa(lp58
I232
aI172
aI253
aI255
aI255
aa(lp59
I72
aI137
aI199
aa(lp60
I72
aI137
aI222
aa(lp61
I232
aI209
aI253
aI255
aI255
aa(lp62
I49
aI255
aa(lp63
I190
aI129
aI16
aI64
aI0
aa(lp64
I186
aI5
aI0
aI0
aI0
aa(lp65
I232
aI144
aI253
aI255
aI255
aa(lp66
I72
aI137
aI193
aa(lp67
I72
aI139
aI21
aI86
aI21
aI32
aI0
aa(lp68
I49
aI192
aa(lp69
I72
aI137
aI223
aa(lp70
I72
aI137
aI206
aa(lp71
I232
aI233
aI253
aI255
aI255
aa(lp72
I191
aI10
aI0
aI0
aI0
aa(lp73
I72
aI137
aI222
aa(lp74
I232
aI188
aI253
aI255
aI255
aa(lp75
I49
aI255
aa(lp76
I190
aI144
aI16
aI64
aI0
aa(lp77
I186
aI5
aI0
aI0
aI0
aa(lp78
I232
aI91
aI253
aI255
aI255
aa(lp79
I72
aI137
aI199
aa(lp80
I72
aI137
aI222
aa(lp81
I232
aI128
aI253
aI255
aI255
aa(lp82
I49
aI255
aa(lp83
I190
aI170
aI16
aI64
aI0
aa(lp84
I186
aI5
aI0
aI0
aI0
aa(lp85
I232
aI63
aI253
aI255
aI255
aa(lp86
I72
aI137
aI199
aa(lp87
I72
aI137
aI222
aa(lp88
I232
aI100
aI253
aI255
aI255
aa(lp89
I49
aI255
aa(lp90
I190
aI181
aI16
aI64
aI0
aa(lp91
I186
aI5
aI0
aI0
aI0
aa(lp92
I232
aI35
aI253
aI255
aI255
aa(lp93
I72
aI137
aI199
aa(lp94
I72
aI137
aI222
aa(lp95
I232
aI72
aI253
aI255
aI255
aa(lp96
I49
aI255
aa(lp97
I190
aI25
aI17
aI64
aI0
aa(lp98
I186
aI5
aI0
aI0
aI0
aa(lp99
I232
aI7
aI253
aI255
aI255
aa(lp100
I72
aI137
aI195
aa(lp101
I49
aI255
aa(lp102
I190
aI58
aI17
aI64
aI0
aa(lp103
I186
aI5
aI0
aI0
aI0
aa(lp104
I232
aI243
aI252
aI255
aI255
aa(lp105
I72
aI137
aI197
aa(lp106
I191
aI252
aI16
aI64
aI0
aa(lp107
I190
aI13
aI17
aI64
aI0
aa(lp108
I185
aI43
aI17
aI64
aI0
aa(lp109
I49
aI192
aa(lp110
I72
aI137
aI218
aa(lp111
I73
aI137
aI232
aa(lp112
I232
aI244
aI252
aI255
aI255
aa(lp113
I49
aI255
aa(lp114
I190
aI74
aI17
aI64
aI0
aa(lp115
I186
aI5
aI0
aI0
aI0
aa(lp116
I232
aI195
aI252
aI255
aI255
aa(lp117
I72
aI137
aI193
aa(lp118
I190
aI101
aI17
aI64
aI0
aa(lp119
I49
aI192
aa(lp120
I72
aI137
aI207
aa(lp121
I232
aI209
aI252
aI255
aI255
aa(lp122
I191
aI1
aI0
aI0
aI0
aa(lp123
I232
aI87
aI253
aI255
aI255
aa(lp124
I131
aI248
aI255
aa(lp125
I15
aI133
aI255
aI0
aI0
aI0
aa(lp126
I191
aI61
aI16
aI64
aI0
aa(lp127
I49
aI246
aa(lp128
I49
aI192
aa(lp129
I232
aI48
aI253
aI255
aI255
aa(lp130
I137
aI195
aa(lp131
I133
aI219
aa(lp132
I120
aI126
aa(lp133
I72
aI137
aI226
aa(lp134
I191
aI1
aI0
aI0
aI0
aa(lp135
I137
aI222
aa(lp136
I232
aI251
aI252
aI255
aI255
aa(lp137
I133
aI192
aa(lp138
I120
aI100
aa(lp139
I139
aI68
aI36
aI24
aa(lp140
I137
aI193
aa(lp141
I129
aI241
aI255
aI15
aI255
aI255
aa(lp142
I33
aI193
aa(lp143
I129
aI249
aI0
aI128
aI0
aI0
aa(lp144
I117
aI78
aa(lp145
I72
aI141
aI180
aI36
aI144
aI0
aI0
aI0
aa(lp146
I186
aI0
aI32
aI0
aI0
aa(lp147
I137
aI223
aa(lp148
I232
aI173
aI252
aI255
aI255
aa(lp149
I72
aI133
aI192
aa(lp150
I126
aI44
aa(lp151
I72
aI141
aI172
aI36
aI144
aI0
aI0
aI0
aa(lp152
I191
aI1
aI0
aI0
aI0
aa(lp153
I72
aI137
aI238
aa(lp154
I72
aI137
aI194
aa(lp155
I232
aI0
aI252
aI255
aI255
aa(lp156
I186
aI0
aI32
aI0
aI0
aa(lp157
I137
aI223
aa(lp158
I72
aI137
aI238
aa(lp159
I232
aI129
aI252
aI255
aI255
aa(lp160
I72
aI133
aI192
aa(lp161
I127
aI220
aa(lp162
I137
aI223
aa(lp163
I232
aI85
aI252
aI255
aI255
aa(lp164
I235
aI47
aa(lp165
I137
aI223
aa(lp166
I232
aI76
aI252
aI255
aI255
aa(lp167
I72
aI139
aI29
aI221
aI19
aI32
aI0
aa(lp168
I49
aI255
aa(lp169
I190
aI78
aI16
aI64
aI0
aa(lp170
I186
aI5
aI0
aI0
aI0
aa(lp171
I232
aI244
aI251
aI255
aI255
aa(lp172
I72
aI137
aI193
aa(lp173
I49
aI192
aa(lp174
I72
aI137
aI223
aa(lp175
I72
aI137
aI206
aa(lp176
I232
aI84
aI252
aI255
aI255
aa(lp177
I184
aI1
aI0
aI0
aI0
aa(lp178
I72
aI129
aI196
aI144
aI32
aI0
aI0
aa(lp179
I91
aa(lp180
I65
aI94
aa(lp181
I93
aa(lp182
I195
aasg13
(I4196992
I4197738
tp183
sg14
I2
sg15
g16
ssS'fstat'
p184
(dp185
g7
g8
sg9
(lp186
sg11
(lp187
sg13
(tsg14
I2
sg15
g16
sssS'function_calls'
p188
(dp189
sS'binary_filename'
p190
S'nologin'
p191
sS'structures'
p192
(dp193
sS'extern_functions'
p194
(dp195
sS'arch'
p196
S'amd64'
p197
sS'bin_raw_bytes'
p198
g8
s.