(dp0
S'text_addr'
p1
S'0x400d60'
p2
sS'functions'
p3
(dp4
S'flush_standard_stream'
p5
(dp6
S'ret_type'
p7
S''
p8
sS'args_type'
p9
(lp10
sS'inst_bytes'
p11
(lp12
sS'boundaries'
p13
(tsS'num_args'
p14
I1
sS'inst_strings'
p15
(lp16
ssS'strtol_octal_or_err'
p17
(dp18
g7
g8
sg9
(lp19
sg11
(lp20
(lp21
I65
aI87
aa(lp22
I65
aI86
aa(lp23
I83
aa(lp24
I72
aI131
aI236
aI16
aa(lp25
I73
aI137
aI246
aa(lp26
I73
aI137
aI255
aa(lp27
I72
aI199
aI68
aI36
aI8
aI0
aI0
aa(lp28
I0
aI0
aa(lp29
I77
aI133
aI255
aa(lp30
I116
aI70
aa(lp31
I65
aI128
aI63
aI0
aa(lp32
I116
aI64
aa(lp33
I232
aI248
aI244
aI255
aI255
aa(lp34
I72
aI137
aI195
aa(lp35
I199
aI3
aI0
aI0
aI0
aI0
aa(lp36
I72
aI141
aI116
aI36
aI8
aa(lp37
I49
aI210
aa(lp38
I76
aI137
aI255
aa(lp39
I232
aI240
aI245
aI255
aI255
aa(lp40
I131
aI59
aI0
aa(lp41
I117
aI30
aa(lp42
I72
aI139
aI76
aI36
aI8
aa(lp43
I76
aI57
aI249
aa(lp44
I116
aI20
aa(lp45
I72
aI133
aI201
aa(lp46
I116
aI5
aa(lp47
I128
aI57
aI0
aa(lp48
I117
aI10
aa(lp49
I72
aI131
aI196
aI16
aa(lp50
I91
aa(lp51
I65
aI94
aa(lp52
I65
aI95
aa(lp53
I195
aasg13
(I4200080
I4200235
tp54
sg14
I2
sg15
g16
ssS'stat'
p55
(dp56
g7
g8
sg9
(lp57
sg11
(lp58
sg13
(tsg14
I2
sg15
g16
ssS'bind'
p59
(dp60
g7
g8
sg9
(lp61
sg11
(lp62
sg13
(tsg14
I3
sg15
g16
ssS'open_raw_ctl'
p63
(dp64
g7
g8
sg9
(lp65
sg11
(lp66
(lp67
I80
aa(lp68
I191
aI191
aI27
aI64
aI0
aa(lp69
I190
aI2
aI0
aI0
aI0
aa(lp70
I49
aI210
aa(lp71
I49
aI192
aa(lp72
I232
aI252
aI248
aI255
aI255
aa(lp73
I137
aI5
aI254
aI28
aI32
aI0
aa(lp74
I133
aI192
aa(lp75
I121
aI29
aa(lp76
I191
aI207
aI27
aI64
aI0
aa(lp77
I190
aI2
aI0
aI0
aI0
aa(lp78
I49
aI210
aa(lp79
I49
aI192
aa(lp80
I232
aI223
aI248
aI255
aI255
aa(lp81
I137
aI5
aI225
aI28
aI32
aI0
aa(lp82
I133
aI192
aa(lp83
I120
aI2
aa(lp84
I88
aa(lp85
I195
aasg13
(tsg14
I0
sg15
g16
ssS'close_stdout'
p86
(dp87
g7
g8
sg9
(lp88
sg11
(lp89
(lp90
I65
aI86
aa(lp91
I83
aa(lp92
I80
aa(lp93
I72
aI139
aI29
aI205
aI25
aI32
aI0
aa(lp94
I232
aI112
aI244
aI255
aI255
aa(lp95
I73
aI137
aI198
aa(lp96
I65
aI199
aI6
aI0
aI0
aI0
aI0
aa(lp97
I72
aI137
aI223
aa(lp98
I232
aI142
aI244
aI255
aI255
aa(lp99
I133
aI192
aa(lp100
I15
aI133
aI163
aI0
aI0
aI0
aa(lp101
I72
aI137
aI223
aa(lp102
I232
aI158
aI245
aI255
aI255
aa(lp103
I133
aI192
aa(lp104
I116
aI69
aa(lp105
I65
aI139
aI30
aa(lp106
I131
aI251
aI9
aa(lp107
I116
aI9
aa(lp108
I131
aI251
aI32
aa(lp109
I15
aI133
aI156
aI0
aI0
aI0
aa(lp110
I72
aI139
aI29
aI162
aI25
aI32
aI0
aa(lp111
I65
aI199
aI6
aI0
aI0
aI0
aI0
aa(lp112
I72
aI137
aI223
aa(lp113
I232
aI83
aI244
aI255
aI255
aa(lp114
I133
aI192
aa(lp115
I117
aI98
aa(lp116
I72
aI137
aI223
aa(lp117
I232
aI103
aI245
aI255
aI255
aa(lp118
I133
aI192
aa(lp119
I116
aI50
aa(lp120
I65
aI131
aI62
aI9
aa(lp121
I117
aI80
aa(lp122
I72
aI131
aI196
aI8
aa(lp123
I91
aa(lp124
I65
aI94
aa(lp125
I195
aasg13
(I4200240
I4200525
tp126
sg14
I0
sg15
g16
ssS'gnu_dev_major'
p127
(dp128
g7
g8
sg9
(lp129
sg11
(lp130
sg13
(tsg14
I1
sg15
g16
ssS'close_stdout_atexit'
p131
(dp132
g7
g8
sg9
(lp133
sg11
(lp134
sg13
(tsg14
I0
sg15
g16
ssS'usage'
p135
(dp136
g7
g8
sg9
(lp137
sg11
(lp138
sg13
(tsg14
I0
sg15
g16
ssS'query'
p139
(dp140
g7
g8
sg9
(lp141
sg11
(lp142
(lp143
I85
aa(lp144
I65
aI86
aa(lp145
I83
aa(lp146
I72
aI129
aI236
aI144
aI0
aI0
aI0
aa(lp147
I65
aI137
aI214
aa(lp148
I72
aI137
aI243
aa(lp149
I137
aI253
aa(lp150
I72
aI133
aI219
aa(lp151
I15
aI132
aI184
aI0
aI0
aI0
aa(lp152
I72
aI137
aI226
aa(lp153
I191
aI1
aI0
aI0
aI0
aa(lp154
I72
aI137
aI222
aa(lp155
I232
aI36
aI248
aI255
aI255
aa(lp156
I133
aI192
aa(lp157
I15
aI133
aI117
aI1
aI0
aI0
aa(lp158
I139
aI68
aI36
aI24
aa(lp159
I137
aI193
aa(lp160
I129
aI241
aI255
aI15
aI255
aI255
aa(lp161
I33
aI193
aa(lp162
I129
aI249
aI0
aI32
aI0
aI0
aa(lp163
I15
aI133
aI129
aI1
aI0
aI0
aa(lp164
I184
aI0
aI240
aI255
aI255
aa(lp165
I72
aI139
aI76
aI36
aI40
aa(lp166
I137
aI202
aa(lp167
I193
aI234
aI8
aa(lp168
I129
aI226
aI255
aI15
aI0
aI0
aa(lp169
I72
aI137
aI206
aa(lp170
I72
aI193
aI238
aI32
aa(lp171
I247
aI214
aa(lp172
I191
aI0
aI240
aI255
aI255
aa(lp173
I72
aI247
aI215
aa(lp174
I72
aI9
aI247
aa(lp175
I72
aI247
aI215
aa(lp176
I72
aI9
aI215
aa(lp177
I72
aI129
aI255
aI162
aI0
aI0
aI0
aa(lp178
I15
aI133
aI78
aI1
aI0
aI0
aa(lp179
I137
aI202
aa(lp180
I129
aI242
aI0
aI255
aI255
aI255
aa(lp181
I33
aI202
aa(lp182
I72
aI193
aI233
aI12
aa(lp183
I5
aI0
aI15
aI0
aI0
aa(lp184
I49
aI200
aa(lp185
I247
aI208
aa(lp186
I33
aI200
aa(lp187
I137
aI197
aa(lp188
I247
aI213
aa(lp189
I137
aI209
aa(lp190
I247
aI209
aa(lp191
I190
aI244
aI29
aI83
aI211
aa(lp192
I247
aI214
aa(lp193
I137
aI239
aa(lp194
I129
aI231
aI244
aI29
aI83
aI211
aa(lp195
I33
aI198
aa(lp196
I9
aI205
aa(lp197
I129
aI225
aI244
aI29
aI83
aI211
aa(lp198
I129
aI226
aI11
aI226
aI172
aI44
aa(lp199
I9
aI254
aa(lp200
I9
aI202
aa(lp201
I49
aI242
aa(lp202
I247
aI213
aa(lp203
I9
aI213
aa(lp204
I137
aI44
aI36
aa(lp205
I139
aI61
aI203
aI27
aI32
aI0
aa(lp206
I72
aI137
aI226
aa(lp207
I190
aI1
aI172
aI0
aI0
aa(lp208
I49
aI192
aa(lp209
I232
aI4
aI247
aI255
aI255
aa(lp210
I133
aI192
aa(lp211
I120
aI93
aa(lp212
I69
aI133
aI246
aa(lp213
I15
aI148
aI192
aa(lp214
I72
aI131
aI124
aI36
aI8
aI0
aa(lp215
I198
aI5
aI169
aI27
aI32
aI0
aI1
aa(lp216
I15
aI149
aI193
aa(lp217
I8
aI193
aa(lp218
I128
aI249
aI1
aa(lp219
I116
aI14
aa(lp220
I176
aI1
aa(lp221
I132
aI192
aa(lp222
I116
aI8
aa(lp223
I72
aI131
aI124
aI36
aI16
aI0
aa(lp224
I116
aI126
aa(lp225
I49
aI219
aa(lp226
I49
aI255
aa(lp227
I190
aI242
aI29
aI64
aI0
aa(lp228
I186
aI5
aI0
aI0
aI0
aa(lp229
I232
aI82
aI246
aI255
aI255
aa(lp230
I72
aI137
aI194
aa(lp231
I139
aI76
aI36
aI8
aa(lp232
I68
aI139
aI68
aI36
aI16
aa(lp233
I190
aI113
aI28
aI64
aI0
aa(lp234
I49
aI192
aa(lp235
I72
aI137
aI215
aa(lp236
I137
aI234
aa(lp237
I232
aI101
aI246
aI255
aI255
aa(lp238
I235
aI78
aa(lp239
I69
aI133
aI246
aa(lp240
I116
aI15
aa(lp241
I232
aI201
aI245
aI255
aI255
aa(lp242
I187
aI3
aI0
aI0
aI0
aa(lp243
I131
aI56
aI19
aa(lp244
I116
aI58
aa(lp245
I128
aI61
aI68
aI27
aI32
aI0
aI1
aa(lp246
I117
aI12
aa(lp247
I232
aI177
aI245
aI255
aI255
aa(lp248
I49
aI219
aa(lp249
I131
aI56
aI22
aa(lp250
I116
aI37
aa(lp251
I49
aI255
aa(lp252
I190
aI216
aI29
aI64
aI0
aa(lp253
I186
aI5
aI0
aI0
aI0
aa(lp254
I232
aI249
aI245
aI255
aI255
aa(lp255
I72
aI137
aI193
aa(lp256
I191
aI4
aI0
aI0
aI0
aa(lp257
I49
aI192
aa(lp258
I72
aI137
aI206
aa(lp259
I232
aI199
aI246
aI255
aI255
aa(lp260
I49
aI219
aa(lp261
I137
aI216
aa(lp262
I72
aI129
aI196
aI144
aI0
aI0
aI0
aa(lp263
I91
aa(lp264
I65
aI94
aa(lp265
I93
aa(lp266
I195
aasg13
(I4199568
I4200078
tp267
sg14
I3
sg15
g16
ssS'main'
p268
(dp269
g7
g8
sg9
(lp270
sg11
(lp271
(lp272
I85
aa(lp273
I65
aI86
aa(lp274
I83
aa(lp275
I72
aI129
aI236
aI176
aI0
aI0
aI0
aa(lp276
I72
aI137
aI243
aa(lp277
I137
aI253
aa(lp278
I191
aI6
aI0
aI0
aI0
aa(lp279
I190
aI170
aI28
aI64
aI0
aa(lp280
I232
aI177
aI254
aI255
aI255
aa(lp281
I191
aI138
aI26
aI64
aI0
aa(lp282
I190
aI149
aI26
aI64
aI0
aa(lp283
I232
aI130
aI253
aI255
aI255
aa(lp284
I191
aI138
aI26
aI64
aI0
aa(lp285
I232
aI104
aI253
aI255
aI255
aa(lp286
I191
aI48
aI23
aI64
aI0
aa(lp287
I232
aI62
aI10
aI0
aI0
aa(lp288
I235
aI18
aa(lp289
I102
aI102
aI102
aI46
aI15
aI31
aI132
aa(lp290
I0
aI0
aI0
aI0
aI0
aa(lp291
I199
aI0
aI1
aI0
aI0
aI0
aa(lp292
I186
aI167
aI26
aI64
aI0
aa(lp293
I185
aI224
aI25
aI64
aI0
aa(lp294
I69
aI49
aI192
aa(lp295
I137
aI239
aa(lp296
I72
aI137
aI222
aa(lp297
I232
aI99
aI253
aI255
aI255
aa(lp298
I141
aI72
aI170
aa(lp299
I131
aI249
aI27
aa(lp300
I119
aI19
aa(lp301
I184
aI48
aI49
aI96
aI0
aa(lp302
I255
aI36
aI205
aI0
aI25
aI64
aI0
aa(lp303
I184
aI44
aI49
aI96
aI0
aa(lp304
I235
aI200
aa(lp305
I131
aI248
aI255
aa(lp306
I15
aI133
aI222
aI2
aI0
aI0
aa(lp307
I191
aI191
aI27
aI64
aI0
aa(lp308
I190
aI2
aI0
aI0
aI0
aa(lp309
I49
aI210
aa(lp310
I49
aI192
aa(lp311
I232
aI60
aI254
aI255
aI255
aa(lp312
I137
aI5
aI62
aI34
aI32
aI0
aa(lp313
I133
aI192
aa(lp314
I121
aI33
aa(lp315
I191
aI207
aI27
aI64
aI0
aa(lp316
I190
aI2
aI0
aI0
aI0
aa(lp317
I49
aI210
aa(lp318
I49
aI192
aa(lp319
I232
aI31
aI254
aI255
aI255
aa(lp320
I137
aI5
aI33
aI34
aI32
aI0
aa(lp321
I133
aI192
aa(lp322
I15
aI136
aI66
aI4
aI0
aI0
aa(lp323
I131
aI61
aI10
aI34
aI32
aI0
aI0
aa(lp324
I72
aI99
aI5
aI227
aI33
aI32
aI0
aa(lp325
I116
aI48
aa(lp326
I57
aI232
aa(lp327
I15
aI140
aI106
aI2
aI0
aI0
aa(lp328
I187
aI1
aI0
aI0
aI0
aa(lp329
I15
aI31
aI64
aI0
aa(lp330
I49
aI246
aa(lp331
I186
aI1
aI0
aI0
aI0
aa(lp332
I137
aI223
aa(lp333
I232
aI66
aI5
aI0
aI0
aa(lp334
I255
aI195
aa(lp335
I129
aI251
aI0
aI32
aI0
aI0
aa(lp336
I117
aI232
aa(lp337
I49
aI255
aa(lp338
I232
aI241
aI253
aI255
aI255
aa(lp339
I57
aI232
aa(lp340
I15
aI141
aI58
aI2
aI0
aI0
aa(lp341
I141
aI72
aI1
aa(lp342
I137
aI13
aI160
aI33
aI32
aI0
aa(lp343
I76
aI139
aI52
aI195
aa(lp344
I190
aI3
aI27
aI64
aI0
aa(lp345
I186
aI52
aI49
aI96
aI0
aa(lp346
I49
aI192
aa(lp347
I76
aI137
aI247
aa(lp348
I232
aI136
aI253
aI255
aI255
aa(lp349
I131
aI248
aI1
aa(lp350
I15
aI133
aI16
aI2
aI0
aI0
aa(lp351
I139
aI61
aI157
aI33
aI32
aI0
aa(lp352
I133
aI255
aa(lp353
I15
aI132
aI234
aI3
aI0
aI0
aa(lp354
I131
aI61
aI134
aI33
aI32
aI0
aI0
aa(lp355
I116
aI17
aa(lp356
I49
aI210
aa(lp357
I76
aI137
aI246
aa(lp358
I232
aI222
aI4
aI0
aI0
aa(lp359
I137
aI195
aa(lp360
I233
aI218
aI1
aI0
aI0
aa(lp361
I72
aI99
aI5
aI80
aI33
aI32
aI0
aa(lp362
I129
aI197
aI237
aI157
aI140
aI233
aa(lp363
I41
aI197
aa(lp364
I129
aI197
aI19
aI98
aI115
aI22
aa(lp365
I131
aI253
aI2
aa(lp366
I15
aI132
aI6
aI1
aI0
aI0
aa(lp367
I131
aI253
aI1
aa(lp368
I15
aI133
aI193
aI1
aI0
aI0
aa(lp369
I72
aI139
aI28
aI195
aa(lp370
I72
aI141
aI84
aI36
aI32
aa(lp371
I191
aI1
aI0
aI0
aI0
aa(lp372
I72
aI137
aI222
aa(lp373
I232
aI234
aI252
aI255
aI255
aa(lp374
I133
aI192
aa(lp375
I15
aI133
aI210
aI3
aI0
aI0
aa(lp376
I139
aI68
aI36
aI56
aa(lp377
I137
aI193
aa(lp378
I129
aI241
aI255
aI15
aI255
aI255
aa(lp379
I33
aI193
aa(lp380
I129
aI249
aI0
aI96
aI0
aI0
aa(lp381
I15
aI133
aI222
aI3
aI0
aI0
aa(lp382
I72
aI139
aI68
aI36
aI72
aa(lp383
I72
aI137
aI193
aa(lp384
I72
aI193
aI233
aI8
aa(lp385
I72
aI247
aI209
aa(lp386
I72
aI186
aI0
aI112
aI215
aI18
aI225
aa(lp387
I244
aI15
aI102
aa(lp388
I72
aI9
aI202
aa(lp389
I137
aI206
aa(lp390
I247
aI214
aa(lp391
I72
aI137
aI199
aa(lp392
I72
aI193
aI239
aI32
aa(lp393
I247
aI215
aa(lp394
I185
aI0
aI240
aI255
aI255
aa(lp395
I187
aI0
aI240
aI255
aI255
aa(lp396
I72
aI247
aI211
aa(lp397
I72
aI9
aI251
aa(lp398
I72
aI137
aI223
aa(lp399
I72
aI247
aI215
aa(lp400
I72
aI189
aI154
aI122
aI215
aI18
aI225
aa(lp401
I244
aI15
aI102
aa(lp402
I72
aI33
aI234
aa(lp403
I72
aI33
aI235
aa(lp404
I72
aI247
aI213
aa(lp405
I129
aI230
aI101
aI5
aI0
aI0
aa(lp406
I72
aI33
aI253
aa(lp407
I72
aI9
aI214
aa(lp408
I72
aI9
aI221
aa(lp409
I72
aI49
aI245
aa(lp410
I72
aI137
aI198
aa(lp411
I72
aI247
aI214
aa(lp412
I137
aI242
aa(lp413
I247
aI210
aa(lp414
I72
aI129
aI206
aI0
aI255
aI255
aI255
aa(lp415
I72
aI193
aI232
aI12
aa(lp416
I72
aI129
aI193
aI0
aI15
aI0
aI0
aa(lp417
I72
aI49
aI193
aa(lp418
I72
aI247
aI209
aa(lp419
I72
aI33
aI193
aa(lp420
I72
aI187
aI30
aI217
aI173
aI52
aI106
aa(lp421
I39
aI231
aI58
aa(lp422
I72
aI137
aI223
aa(lp423
I72
aI247
aI215
aa(lp424
I72
aI33
aI207
aa(lp425
I72
aI137
aI200
aa(lp426
I72
aI247
aI208
aa(lp427
I72
aI137
aI193
aa(lp428
I72
aI33
aI217
aa(lp429
I72
aI33
aI243
aa(lp430
I129
aI226
aI225
aI0
aI0
aI0
aa(lp431
I72
aI9
aI207
aa(lp432
I72
aI9
aI218
aa(lp433
I72
aI49
aI250
aa(lp434
I72
aI9
aI240
aa(lp435
I72
aI247
aI208
aa(lp436
I72
aI9
aI208
aa(lp437
I235
aI77
aa(lp438
I72
aI139
aI44
aI195
aa(lp439
I49
aI255
aa(lp440
I190
aI166
aI27
aI64
aI0
aa(lp441
I186
aI5
aI0
aI0
aI0
aa(lp442
I232
aI30
aI251
aI255
aI255
aa(lp443
I72
aI137
aI239
aa(lp444
I72
aI137
aI198
aa(lp445
I232
aI147
aI5
aI0
aI0
aa(lp446
I72
aI137
aI197
aa(lp447
I139
aI5
aI10
aI32
aI32
aI0
aa(lp448
I255
aI192
aa(lp449
I72
aI152
aa(lp450
I72
aI139
aI28
aI195
aa(lp451
I49
aI255
aa(lp452
I190
aI166
aI27
aI64
aI0
aa(lp453
I186
aI5
aI0
aI0
aI0
aa(lp454
I232
aI241
aI250
aI255
aI255
aa(lp455
I72
aI137
aI223
aa(lp456
I72
aI137
aI198
aa(lp457
I232
aI102
aI5
aI0
aI0
aa(lp458
I139
aI13
aI4
aI32
aI32
aI0
aa(lp459
I137
aI76
aI36
aI8
aa(lp460
I72
aI99
aI205
aa(lp461
I72
aI137
aI76
aI36
aI16
aa(lp462
I72
aI152
aa(lp463
I72
aI137
aI68
aI36
aI24
aa(lp464
I139
aI61
aI239
aI31
aI32
aI0
aa(lp465
I49
aI219
aa(lp466
I72
aI141
aI84
aI36
aI8
aa(lp467
I190
aI0
aI172
aI0
aI0
aa(lp468
I49
aI192
aa(lp469
I232
aI36
aI251
aI255
aI255
aa(lp470
I49
aI255
aa(lp471
I133
aI192
aa(lp472
I15
aI136
aI73
aI2
aI0
aI0
aa(lp473
I190
aI242
aI29
aI64
aI0
aa(lp474
I186
aI5
aI0
aI0
aI0
aa(lp475
I232
aI155
aI250
aI255
aI255
aa(lp476
I72
aI137
aI199
aa(lp477
I139
aI21
aI182
aI31
aI32
aI0
aa(lp478
I139
aI76
aI36
aI16
aa(lp479
I68
aI139
aI68
aI36
aI24
aa(lp480
I190
aI113
aI28
aI64
aI0
aa(lp481
I49
aI192
aa(lp482
I232
aI173
aI250
aI255
aI255
aa(lp483
I137
aI216
aa(lp484
I72
aI129
aI196
aI176
aI0
aI0
aI0
aa(lp485
I91
aa(lp486
I65
aI94
aa(lp487
I93
aa(lp488
I195
aasg13
(I4197968
I4199452
tp489
sg14
I2
sg15
g16
ssS'gnu_dev_minor'
p490
(dp491
g7
g8
sg9
(lp492
sg11
(lp493
sg13
(tsg14
I1
sg15
g16
sssS'function_calls'
p494
(dp495
sS'binary_filename'
p496
S'raw'
p497
sS'structures'
p498
(dp499
sS'extern_functions'
p500
(dp501
sS'arch'
p502
S'amd64'
p503
sS'bin_raw_bytes'
p504
g8
s.