(dp0
S'text_addr'
p1
S'0x400c50'
p2
sS'functions'
p3
(dp4
S'flush_standard_stream'
p5
(dp6
S'ret_type'
p7
S''
p8
sS'args_type'
p9
(lp10
sS'inst_bytes'
p11
(lp12
sS'boundaries'
p13
(tsS'num_args'
p14
I1
sS'inst_strings'
p15
(lp16
ssS'donice'
p17
(dp18
g7
g8
sg9
(lp19
sg11
(lp20
sg13
(tsg14
I3
sg15
g16
ssS'close_stdout'
p21
(dp22
g7
g8
sg9
(lp23
sg11
(lp24
(lp25
I65
aI86
aa(lp26
I83
aa(lp27
I80
aa(lp28
I72
aI139
aI29
aI45
aI13
aI32
aI0
aa(lp29
I232
aI240
aI246
aI255
aI255
aa(lp30
I73
aI137
aI198
aa(lp31
I65
aI199
aI6
aI0
aI0
aI0
aI0
aa(lp32
I72
aI137
aI223
aa(lp33
I232
aI30
aI247
aI255
aI255
aa(lp34
I133
aI192
aa(lp35
I15
aI133
aI163
aI0
aI0
aI0
aa(lp36
I72
aI137
aI223
aa(lp37
I232
aI14
aI248
aI255
aI255
aa(lp38
I133
aI192
aa(lp39
I116
aI69
aa(lp40
I65
aI139
aI30
aa(lp41
I131
aI251
aI9
aa(lp42
I116
aI9
aa(lp43
I131
aI251
aI32
aa(lp44
I15
aI133
aI156
aI0
aI0
aI0
aa(lp45
I72
aI139
aI29
aI2
aI13
aI32
aI0
aa(lp46
I65
aI199
aI6
aI0
aI0
aI0
aI0
aa(lp47
I72
aI137
aI223
aa(lp48
I232
aI227
aI246
aI255
aI255
aa(lp49
I133
aI192
aa(lp50
I117
aI98
aa(lp51
I72
aI137
aI223
aa(lp52
I232
aI215
aI247
aI255
aI255
aa(lp53
I133
aI192
aa(lp54
I116
aI50
aa(lp55
I65
aI131
aI62
aI9
aa(lp56
I117
aI80
aa(lp57
I72
aI131
aI196
aI8
aa(lp58
I91
aa(lp59
I65
aI94
aa(lp60
I195
aasg13
(I4199376
I4199661
tp61
sg14
I0
sg15
g16
ssS'close_stdout_atexit'
p62
(dp63
g7
g8
sg9
(lp64
sg11
(lp65
sg13
(tsg14
I0
sg15
g16
ssS'usage'
p66
(dp67
g7
g8
sg9
(lp68
sg11
(lp69
sg13
(tsg14
I0
sg15
g16
ssS'getprio'
p70
(dp71
g7
g8
sg9
(lp72
sg11
(lp73
sg13
(tsg14
I3
sg15
g16
ssS'main'
p74
(dp75
g7
g8
sg9
(lp76
sg11
(lp77
(lp78
I85
aa(lp79
I65
aI87
aa(lp80
I65
aI86
aa(lp81
I65
aI85
aa(lp82
I65
aI84
aa(lp83
I83
aa(lp84
I72
aI131
aI236
aI40
aa(lp85
I72
aI137
aI243
aa(lp86
I65
aI137
aI254
aa(lp87
I72
aI199
aI68
aI36
aI8
aI0
aI0
aa(lp88
I0
aI0
aa(lp89
I191
aI6
aI0
aI0
aI0
aa(lp90
I190
aI189
aI23
aI64
aI0
aa(lp91
I232
aI180
aI254
aI255
aI255
aa(lp92
I191
aI148
aI21
aI64
aI0
aa(lp93
I190
aI159
aI21
aI64
aI0
aa(lp94
I232
aI181
aI253
aI255
aI255
aa(lp95
I191
aI148
aI21
aI64
aI0
aa(lp96
I232
aI155
aI253
aI255
aI255
aa(lp97
I191
aI208
aI19
aI64
aI0
aa(lp98
I232
aI225
aI7
aI0
aI0
aa(lp99
I69
aI141
aI126
aI255
aa(lp100
I72
aI139
aI107
aI8
aa(lp101
I65
aI131
aI255
aI1
aa(lp102
I117
aI105
aa(lp103
I190
aI177
aI21
aI64
aI0
aa(lp104
I72
aI137
aI239
aa(lp105
I232
aI22
aI254
aI255
aI255
aa(lp106
I133
aI192
aa(lp107
I15
aI132
aI60
aI4
aI0
aI0
aa(lp108
I190
aI89
aI24
aI64
aI0
aa(lp109
I72
aI137
aI239
aa(lp110
I232
aI1
aI254
aI255
aI255
aa(lp111
I133
aI192
aa(lp112
I15
aI132
aI39
aI4
aI0
aI0
aa(lp113
I190
aI180
aI21
aI64
aI0
aa(lp114
I72
aI137
aI239
aa(lp115
I232
aI236
aI253
aI255
aI255
aa(lp116
I133
aI192
aa(lp117
I15
aI132
aI225
aI3
aI0
aI0
aa(lp118
I190
aI183
aI21
aI64
aI0
aa(lp119
I72
aI137
aI239
aa(lp120
I232
aI215
aI253
aI255
aI255
aa(lp121
I133
aI192
aa(lp122
I15
aI132
aI204
aI3
aI0
aI0
aa(lp123
I190
aI119
aI24
aI64
aI0
aa(lp124
I72
aI137
aI239
aa(lp125
I232
aI194
aI253
aI255
aI255
aa(lp126
I133
aI192
aa(lp127
I15
aI132
aI183
aI3
aI0
aI0
aa(lp128
I76
aI141
aI99
aI8
aa(lp129
I72
aI133
aI237
aa(lp130
I116
aI48
aa(lp131
I190
aI224
aI21
aI64
aI0
aa(lp132
I72
aI137
aI239
aa(lp133
I232
aI164
aI253
aI255
aI255
aa(lp134
I133
aI192
aa(lp135
I116
aI17
aa(lp136
I190
aI227
aI21
aI64
aI0
aa(lp137
I72
aI137
aI239
aa(lp138
I232
aI147
aI253
aI255
aI255
aa(lp139
I133
aI192
aa(lp140
I117
aI14
aa(lp141
I65
aI131
aI198
aI254
aa(lp142
I72
aI131
aI195
aI16
aa(lp143
I73
aI137
aI220
aa(lp144
I69
aI137
aI247
aa(lp145
I65
aI131
aI255
aI2
aa(lp146
I15
aI140
aI81
aI3
aI0
aI0
aa(lp147
I73
aI139
aI60
aI36
aa(lp148
I72
aI133
aI255
aa(lp149
I15
aI132
aI68
aI3
aI0
aI0
aa(lp150
I72
aI141
aI116
aI36
aI8
aa(lp151
I186
aI10
aI0
aI0
aI0
aa(lp152
I232
aI139
aI253
aI255
aI255
aa(lp153
I72
aI137
aI68
aI36
aI32
aa(lp154
I72
aI139
aI68
aI36
aI8
aa(lp155
I128
aI56
aI0
aa(lp156
I15
aI133
aI241
aI4
aI0
aI0
aa(lp157
I73
aI131
aI196
aI8
aa(lp158
I76
aI141
aI108
aI36
aI8
aa(lp159
I69
aI49
aI246
aa(lp160
I49
aI237
aa(lp161
I233
aI133
aI1
aI0
aI0
aa(lp162
I68
aI137
aI116
aI36
aI28
aa(lp163
I232
aI59
aI252
aI255
aI255
aa(lp164
I73
aI137
aI198
aa(lp165
I65
aI199
aI6
aI0
aI0
aI0
aI0
aa(lp166
I137
aI239
aa(lp167
I137
aI222
aa(lp168
I232
aI56
aI252
aI255
aI255
aa(lp169
I137
aI68
aI36
aI24
aa(lp170
I131
aI248
aI255
aa(lp171
I116
aI107
aa(lp172
I137
aI239
aa(lp173
I137
aI222
aa(lp174
I72
aI139
aI84
aI36
aI32
aa(lp175
I232
aI209
aI252
aI255
aI255
aa(lp176
I133
aI192
aa(lp177
I15
aI136
aI150
aI0
aI0
aI0
aa(lp178
I65
aI199
aI6
aI0
aI0
aI0
aI0
aa(lp179
I137
aI239
aa(lp180
I137
aI222
aa(lp181
I232
aI9
aI252
aI255
aI255
aa(lp182
I137
aI68
aI36
aI20
aa(lp183
I131
aI248
aI255
aa(lp184
I15
aI132
aI227
aI0
aI0
aI0
aa(lp185
I69
aI49
aI237
aa(lp186
I49
aI255
aa(lp187
I190
aI253
aI24
aI64
aI0
aa(lp188
I186
aI5
aI0
aI0
aI0
aa(lp189
I232
aI72
aI252
aI255
aI255
aa(lp190
I72
aI137
aI193
aa(lp191
I137
aI232
aa(lp192
I72
aI139
aI20
aI197
aI80
aI25
aI64
aI0
aa(lp193
I49
aI192
aa(lp194
I72
aI137
aI207
aa(lp195
I137
aI222
aa(lp196
I139
aI76
aI36
aI24
aa(lp197
I68
aI139
aI68
aI36
aI20
aa(lp198
I232
aI54
aI252
aI255
aI255
aa(lp199
I235
aI113
aa(lp200
I65
aI131
aI62
aI0
aa(lp201
I116
aI143
aa(lp202
I49
aI255
aa(lp203
I190
aI39
aI25
aI64
aI0
aa(lp204
I186
aI5
aI0
aI0
aI0
aa(lp205
I232
aI13
aI252
aI255
aI255
aa(lp206
I72
aI137
aI193
aa(lp207
I137
aI232
aa(lp208
I72
aI139
aI20
aI197
aI80
aI25
aI64
aI0
aa(lp209
I49
aI192
aa(lp210
I72
aI137
aI207
aa(lp211
I137
aI222
aa(lp212
I232
aI180
aI251
aI255
aI255
aa(lp213
I65
aI189
aI1
aI0
aI0
aI0
aa(lp214
I65
aI131
aI62
aI0
aa(lp215
I117
aI53
aa(lp216
I233
aI84
aI255
aI255
aI255
aa(lp217
I49
aI255
aa(lp218
I190
aI218
aI24
aI64
aI0
aa(lp219
I186
aI5
aI0
aI0
aI0
aa(lp220
I232
aI210
aI251
aI255
aI255
aa(lp221
I72
aI137
aI193
aa(lp222
I137
aI232
aa(lp223
I72
aI139
aI20
aI197
aI80
aI25
aI64
aI0
aa(lp224
I49
aI192
aa(lp225
I72
aI137
aI207
aa(lp226
I137
aI222
aa(lp227
I232
aI121
aI251
aI255
aI255
aa(lp228
I65
aI189
aI1
aI0
aI0
aI0
aa(lp229
I68
aI137
aI232
aa(lp230
I247
aI208
aa(lp231
I68
aI139
aI116
aI36
aI28
aa(lp232
I68
aI137
aI241
aa(lp233
I247
aI209
aa(lp234
I9
aI200
aa(lp235
I129
aI225
aI58
aI201
aI52
aI231
aa(lp236
I65
aI129
aI230
aI197
aI54
aI203
aI24
aa(lp237
I65
aI129
aI205
aI58
aI201
aI52
aI231
aa(lp238
I65
aI9
aI206
aa(lp239
I69
aI49
aI238
aa(lp240
I247
aI208
aa(lp241
I65
aI9
aI198
aa(lp242
I76
aI141
aI108
aI36
aI8
aa(lp243
I233
aI174
aI1
aI0
aI0
aa(lp244
I65
aI131
aI62
aI0
aa(lp245
I15
aI132
aI19
aI255
aI255
aI255
aa(lp246
I49
aI255
aa(lp247
I190
aI39
aI25
aI64
aI0
aa(lp248
I186
aI5
aI0
aI0
aI0
aa(lp249
I232
aI94
aI251
aI255
aI255
aa(lp250
I72
aI137
aI193
aa(lp251
I137
aI232
aa(lp252
I72
aI139
aI20
aI197
aI80
aI25
aI64
aI0
aa(lp253
I49
aI192
aa(lp254
I72
aI137
aI207
aa(lp255
I137
aI222
aa(lp256
I232
aI5
aI251
aI255
aI255
aa(lp257
I65
aI189
aI1
aI0
aI0
aI0
aa(lp258
I65
aI131
aI62
aI0
aa(lp259
I117
aI134
aa(lp260
I233
aI216
aI254
aI255
aI255
aa(lp261
I15
aI31
aI64
aI0
aa(lp262
I65
aI255
aI207
aa(lp263
I73
aI139
aI28
aI36
aa(lp264
I190
aI64
aI22
aI64
aI0
aa(lp265
I72
aI137
aI223
aa(lp266
I232
aI156
aI251
aI255
aI255
aa(lp267
I133
aI192
aa(lp268
I15
aI132
aI132
aI0
aI0
aI0
aa(lp269
I190
aI67
aI22
aI64
aI0
aa(lp270
I72
aI137
aI223
aa(lp271
I232
aI135
aI251
aI255
aI255
aa(lp272
I133
aI192
aa(lp273
I116
aI115
aa(lp274
I190
aI74
aI22
aI64
aI0
aa(lp275
I72
aI137
aI223
aa(lp276
I232
aI118
aI251
aI255
aI255
aa(lp277
I133
aI192
aa(lp278
I15
aI132
aI30
aI1
aI0
aI0
aa(lp279
I190
aI77
aI22
aI64
aI0
aa(lp280
I72
aI137
aI223
aa(lp281
I232
aI97
aI251
aI255
aI255
aa(lp282
I133
aI192
aa(lp283
I15
aI132
aI9
aI1
aI0
aI0
aa(lp284
I190
aI84
aI22
aI64
aI0
aa(lp285
I72
aI137
aI223
aa(lp286
I232
aI76
aI251
aI255
aI255
aa(lp287
I133
aI192
aa(lp288
I116
aI66
aa(lp289
I190
aI87
aI22
aI64
aI0
aa(lp290
I72
aI137
aI223
aa(lp291
I232
aI59
aI251
aI255
aI255
aa(lp292
I133
aI192
aa(lp293
I116
aI49
aa(lp294
I131
aI253
aI2
aa(lp295
I117
aI51
aa(lp296
I72
aI137
aI223
aa(lp297
I232
aI58
aI251
aI255
aI255
aa(lp298
I72
aI133
aI192
aa(lp299
I15
aI132
aI123
aI0
aI0
aI0
aa(lp300
I139
aI88
aI16
aa(lp301
I133
aI219
aa(lp302
I15
aI137
aI136
aI0
aI0
aI0
aa(lp303
I233
aI145
aI0
aI0
aI0
aa(lp304
I144
aa(lp305
I189
aI1
aI0
aI0
aI0
aa(lp306
I233
aI187
aI0
aI0
aI0
aa(lp307
I49
aI237
aa(lp308
I233
aI180
aI0
aI0
aI0
aa(lp309
I186
aI10
aI0
aI0
aI0
aa(lp310
I72
aI137
aI223
aa(lp311
I76
aI137
aI238
aa(lp312
I232
aI31
aI251
aI255
aI255
aa(lp313
I72
aI137
aI195
aa(lp314
I133
aI219
aa(lp315
I120
aI14
aa(lp316
I72
aI139
aI68
aI36
aI8
aa(lp317
I128
aI56
aI0
aa(lp318
I15
aI132
aI165
aI253
aI255
aI255
aa(lp319
I49
aI255
aa(lp320
I190
aI109
aI22
aI64
aI0
aa(lp321
I186
aI5
aI0
aI0
aI0
aa(lp322
I232
aI73
aI250
aI255
aI255
aa(lp323
I72
aI137
aI193
aa(lp324
I137
aI232
aa(lp325
I72
aI139
aI52
aI197
aI80
aI25
aI64
aI0
aa(lp326
I73
aI139
aI20
aI36
aa(lp327
I49
aI192
aa(lp328
I72
aI137
aI207
aa(lp329
I232
aI78
aI250
aI255
aI255
aa(lp330
I65
aI190
aI1
aI0
aI0
aI0
aa(lp331
I235
aI91
aa(lp332
I73
aI139
aI60
aI36
aa(lp333
I186
aI10
aI0
aI0
aI0
aa(lp334
I76
aI137
aI238
aa(lp335
I232
aI197
aI250
aI255
aI255
aa(lp336
I72
aI137
aI195
aa(lp337
I133
aI219
aa(lp338
I120
aI14
aa(lp339
I72
aI139
aI68
aI36
aI8
aa(lp340
I128
aI56
aI0
aa(lp341
I15
aI132
aI75
aI253
aI255
aI255
aa(lp342
I49
aI255
aa(lp343
I190
aI93
aI22
aI64
aI0
aa(lp344
I186
aI5
aI0
aI0
aI0
aa(lp345
I232
aI239
aI249
aI255
aI255
aa(lp346
I72
aI137
aI193
aa(lp347
I73
aI139
aI52
aI36
aa(lp348
I49
aI192
aa(lp349
I72
aI137
aI207
aa(lp350
I232
aI254
aI249
aI255
aI255
aa(lp351
I65
aI190
aI1
aI0
aI0
aI0
aa(lp352
I15
aI31
aI132
aI0
aI0
aI0
aI0
aI0
aa(lp353
I189
aI2
aI0
aI0
aI0
aa(lp354
I73
aI131
aI196
aI8
aa(lp355
I65
aI131
aI255
aI1
aa(lp356
I15
aI143
aI141
aI254
aI255
aI255
aa(lp357
I49
aI192
aa(lp358
I69
aI133
aI246
aa(lp359
I15
aI149
aI192
aa(lp360
I72
aI131
aI196
aI40
aa(lp361
I91
aa(lp362
I65
aI92
aa(lp363
I65
aI93
aa(lp364
I65
aI94
aa(lp365
I65
aI95
aa(lp366
I93
aa(lp367
I195
aasg13
(I4197696
I4199364
tp368
sg14
I2
sg15
g16
sssS'function_calls'
p369
(dp370
sS'binary_filename'
p371
S'renice'
p372
sS'structures'
p373
(dp374
sS'extern_functions'
p375
(dp376
sS'arch'
p377
S'amd64'
p378
sS'bin_raw_bytes'
p379
g8
s.