(dp0
S'text_addr'
p1
S'0x400f20'
p2
sS'functions'
p3
(dp4
S'flush_standard_stream'
p5
(dp6
S'ret_type'
p7
S''
p8
sS'args_type'
p9
(lp10
sS'inst_bytes'
p11
(lp12
sS'boundaries'
p13
(tsS'num_args'
p14
I1
sS'inst_strings'
p15
(lp16
ssS'sig_handler'
p17
(dp18
g7
g8
sg9
(lp19
sg11
(lp20
(lp21
I80
aa(lp22
I49
aI255
aa(lp23
I232
aI88
aI248
aI255
aI255
aa(lp24
I15
aI31
aI132
aI0
aI0
aI0
aI0
aI0
aasg13
(I4199664
I4199672
tp25
sg14
I1
sg15
g16
ssS'xmalloc'
p26
(dp27
g7
g8
sg9
(lp28
sg11
(lp29
sg13
(tsg14
I1
sg15
g16
ssS'reverse_str'
p30
(dp31
g7
g8
sg9
(lp32
sg11
(lp33
sg13
(tsg14
I2
sg15
g16
ssS'xrealloc'
p34
(dp35
g7
g8
sg9
(lp36
sg11
(lp37
sg13
(tsg14
I2
sg15
g16
ssS'close_stdout'
p38
(dp39
g7
g8
sg9
(lp40
sg11
(lp41
(lp42
I65
aI86
aa(lp43
I83
aa(lp44
I80
aa(lp45
I72
aI139
aI29
aI29
aI12
aI32
aI0
aa(lp46
I232
aI48
aI248
aI255
aI255
aa(lp47
I73
aI137
aI198
aa(lp48
I65
aI199
aI6
aI0
aI0
aI0
aI0
aa(lp49
I72
aI137
aI223
aa(lp50
I232
aI94
aI248
aI255
aI255
aa(lp51
I133
aI192
aa(lp52
I15
aI133
aI163
aI0
aI0
aI0
aa(lp53
I72
aI137
aI223
aa(lp54
I232
aI142
aI249
aI255
aI255
aa(lp55
I133
aI192
aa(lp56
I116
aI69
aa(lp57
I65
aI139
aI30
aa(lp58
I131
aI251
aI9
aa(lp59
I116
aI9
aa(lp60
I131
aI251
aI32
aa(lp61
I15
aI133
aI156
aI0
aI0
aI0
aa(lp62
I72
aI139
aI29
aI242
aI11
aI32
aI0
aa(lp63
I65
aI199
aI6
aI0
aI0
aI0
aI0
aa(lp64
I72
aI137
aI223
aa(lp65
I232
aI35
aI248
aI255
aI255
aa(lp66
I133
aI192
aa(lp67
I117
aI98
aa(lp68
I72
aI137
aI223
aa(lp69
I232
aI87
aI249
aI255
aI255
aa(lp70
I133
aI192
aa(lp71
I116
aI50
aa(lp72
I65
aI131
aI62
aI9
aa(lp73
I117
aI80
aa(lp74
I72
aI131
aI196
aI8
aa(lp75
I91
aa(lp76
I65
aI94
aa(lp77
I195
aasg13
(I4199680
I4199965
tp78
sg14
I0
sg15
g16
ssS'close_stdout_atexit'
p79
(dp80
g7
g8
sg9
(lp81
sg11
(lp82
sg13
(tsg14
I0
sg15
g16
ssS'usage'
p83
(dp84
g7
g8
sg9
(lp85
sg11
(lp86
sg13
(tsg14
I0
sg15
g16
ssS'main'
p87
(dp88
g7
g8
sg9
(lp89
sg11
(lp90
(lp91
I85
aa(lp92
I65
aI87
aa(lp93
I65
aI86
aa(lp94
I65
aI85
aa(lp95
I65
aI84
aa(lp96
I83
aa(lp97
I72
aI131
aI236
aI24
aa(lp98
I73
aI137
aI247
aa(lp99
I137
aI251
aa(lp100
I76
aI139
aI45
aI6
aI17
aI32
aI0
aa(lp101
I191
aI6
aI0
aI0
aI0
aa(lp102
I190
aI143
aI23
aI64
aI0
aa(lp103
I232
aI167
aI254
aI255
aI255
aa(lp104
I191
aI202
aI22
aI64
aI0
aa(lp105
I190
aI213
aI22
aI64
aI0
aa(lp106
I232
aI104
aI253
aI255
aI255
aa(lp107
I191
aI202
aI22
aI64
aI0
aa(lp108
I232
aI62
aI253
aI255
aI255
aa(lp109
I191
aI0
aI21
aI64
aI0
aa(lp110
I232
aI68
aI6
aI0
aI0
aa(lp111
I191
aI2
aI0
aI0
aI0
aa(lp112
I190
aI240
aI20
aI64
aI0
aa(lp113
I232
aI229
aI253
aI255
aI255
aa(lp114
I191
aI15
aI0
aI0
aI0
aa(lp115
I190
aI240
aI20
aI64
aI0
aa(lp116
I232
aI214
aI253
aI255
aI255
aa(lp117
I186
aI231
aI22
aI64
aI0
aa(lp118
I185
aI48
aI24
aI64
aI0
aa(lp119
I69
aI49
aI192
aa(lp120
I137
aI223
aa(lp121
I76
aI137
aI254
aa(lp122
I232
aI63
aI253
aI255
aI255
aa(lp123
I131
aI248
aI255
aa(lp124
I15
aI133
aI224
aI2
aI0
aI0
aa(lp125
I72
aI99
aI45
aI151
aI16
aI32
aI0
aa(lp126
I191
aI0
aI128
aI0
aI0
aa(lp127
I232
aI5
aI254
aI255
aI255
aa(lp128
I73
aI137
aI198
aa(lp129
I77
aI133
aI246
aa(lp130
I15
aI132
aI2
aI3
aI0
aI0
aa(lp131
I73
aI141
aI4
aI239
aa(lp132
I73
aI139
aI60
aI239
aa(lp133
I73
aI137
aI199
aa(lp134
I184
aI196
aI22
aI64
aI0
aa(lp135
I72
aI137
aI68
aI36
aI8
aa(lp136
I65
aI188
aI0
aI32
aI0
aI0
aa(lp137
I199
aI68
aI36
aI4
aI0
aI0
aI0
aI0
aa(lp138
I76
aI137
aI235
aa(lp139
I15
aI31
aI0
aa(lp140
I72
aI133
aI255
aa(lp141
I116
aI59
aa(lp142
I190
aI80
aI23
aI64
aI0
aa(lp143
I232
aI1
aI254
aI255
aI255
aa(lp144
I72
aI137
aI195
aa(lp145
I72
aI133
aI219
aa(lp146
I15
aI132
aI21
aI2
aI0
aI0
aa(lp147
I73
aI139
aI7
aa(lp148
I72
aI137
aI68
aI36
aI8
aa(lp149
I73
aI131
aI199
aI8
aa(lp150
I235
aI23
aa(lp151
I72
aI139
aI53
aI24
aI16
aI32
aI0
aa(lp152
I76
aI137
aI247
aa(lp153
I232
aI120
aI253
aI255
aI255
aa(lp154
I15
aI31
aI132
aI0
aI0
aI0
aI0
aI0
aa(lp155
I76
aI137
aI247
aa(lp156
I68
aI137
aI230
aa(lp157
I72
aI137
aI218
aa(lp158
I232
aI50
aI252
aI255
aI255
aa(lp159
I72
aI133
aI192
aa(lp160
I15
aI132
aI153
aI1
aI0
aI0
aa(lp161
I76
aI137
aI247
aa(lp162
I232
aI193
aI252
aI255
aI255
aa(lp163
I72
aI137
aI197
aa(lp164
I72
aI133
aI237
aa(lp165
I116
aI217
aa(lp166
I76
aI137
aI124
aI36
aI16
aa(lp167
I184
aI1
aI0
aI0
aI0
aa(lp168
I72
aI41
aI232
aa(lp169
I73
aI137
aI239
aa(lp170
I73
aI247
aI223
aa(lp171
I73
aI247
aI215
aa(lp172
I72
aI193
aI224
aI2
aa(lp173
I76
aI137
aI241
aa(lp174
I72
aI41
aI193
aa(lp175
I131
aI57
aI10
aa(lp176
I15
aI132
aI126
aI0
aI0
aI0
aa(lp177
I72
aI137
aI223
aa(lp178
I232
aI248
aI252
aI255
aI255
aa(lp179
I133
aI192
aa(lp180
I117
aI107
aa(lp181
I78
aI141
aI44
aI229
aI0
aI0
aI0
aI0
aa(lp182
I76
aI137
aI247
aa(lp183
I76
aI137
aI238
aa(lp184
I232
aI65
aI253
aI255
aI255
aa(lp185
I73
aI137
aI198
aa(lp186
I77
aI133
aI246
aa(lp187
I15
aI148
aI192
aa(lp188
I77
aI133
aI237
aa(lp189
I15
aI149
aI193
aa(lp190
I48
aI193
aa(lp191
I117
aI9
aa(lp192
I77
aI133
aI237
aa(lp193
I15
aI133
aI187
aI1
aI0
aI0
aa(lp194
I73
aI141
aI60
aI174
aa(lp195
I68
aI137
aI230
aa(lp196
I79
aI141
aI36
aI36
aa(lp197
I72
aI137
aI218
aa(lp198
I232
aI162
aI251
aI255
aI255
aa(lp199
I72
aI133
aI192
aa(lp200
I116
aI36
aa(lp201
I76
aI137
aI247
aa(lp202
I232
aI53
aI252
aI255
aI255
aa(lp203
I72
aI137
aI197
aa(lp204
I72
aI185
aI107
aI199
aI93
aI64
aI164
aa(lp205
I162
aI61
aI174
aa(lp206
I72
aI41
aI200
aa(lp207
I76
aI141
aI124
aI8
aI255
aa(lp208
I67
aI131
aI60
aI190
aI10
aa(lp209
I117
aI137
aa(lp210
I67
aI131
aI60
aI190
aI10
aa(lp211
I117
aI11
aa(lp212
I65
aI199
aI4
aI174
aI0
aI0
aI0
aI0
aa(lp213
I76
aI137
aI253
aa(lp214
I72
aI137
aI232
aa(lp215
I72
aI209
aI232
aa(lp216
I76
aI139
aI124
aI36
aI16
aa(lp217
I15
aI132
aI255
aI254
aI255
aI255
aa(lp218
I73
aI137
aI218
aa(lp219
I72
aI185
aI138
aI161
aI96
aI215
aI248
aa(lp220
I128
aI255
aI110
aa(lp221
I76
aI141
aI68
aI8
aI255
aa(lp222
I73
aI41
aI200
aa(lp223
I73
aI137
aI193
aa(lp224
I73
aI131
aI241
aI252
aa(lp225
I73
aI33
aI193
aa(lp226
I116
aI50
aa(lp227
I73
aI141
aI124
aI174
aI252
aa(lp228
I49
aI201
aa(lp229
I76
aI137
aI206
aa(lp230
I102
aI102
aI46
aI15
aI31
aI132
aI0
aa(lp231
I0
aI0
aI0
aI0
aa(lp232
I65
aI139
aI28
aI142
aa(lp233
I139
aI23
aa(lp234
I65
aI137
aI20
aI142
aa(lp235
I137
aI31
aa(lp236
I72
aI255
aI193
aa(lp237
I72
aI255
aI206
aa(lp238
I72
aI131
aI199
aI252
aa(lp239
I73
aI57
aI201
aa(lp240
I117
aI229
aa(lp241
I235
aI2
aa(lp242
I49
aI201
aa(lp243
I73
aI131
aI248
aI3
aa(lp244
I76
aI137
aI211
aa(lp245
I15
aI130
aI157
aI254
aI255
aI255
aa(lp246
I72
aI41
aI200
aa(lp247
I72
aI41
aI205
aa(lp248
I73
aI141
aI84
aI174
aI252
aa(lp249
I73
aI141
aI116
aI142
aI12
aa(lp250
I15
aI31
aI64
aI0
aa(lp251
I139
aI126
aI244
aa(lp252
I139
aI42
aa(lp253
I137
aI110
aI244
aa(lp254
I137
aI58
aa(lp255
I72
aI247
aI217
aa(lp256
I139
aI126
aI248
aa(lp257
I139
aI106
aI252
aa(lp258
I137
aI110
aI248
aa(lp259
I137
aI122
aI252
aa(lp260
I139
aI126
aI252
aa(lp261
I139
aI106
aI248
aa(lp262
I137
aI110
aI252
aa(lp263
I137
aI122
aI248
aa(lp264
I139
aI62
aa(lp265
I139
aI106
aI244
aa(lp266
I137
aI46
aa(lp267
I137
aI122
aI244
aa(lp268
I191
aI4
aI0
aI0
aI0
aa(lp269
I72
aI41
aI207
aa(lp270
I72
aI131
aI194
aI240
aa(lp271
I72
aI131
aI198
aI16
aa(lp272
I72
aI131
aI192
aI252
aa(lp273
I72
aI137
aI249
aa(lp274
I117
aI184
aa(lp275
I233
aI60
aI254
aI255
aI255
aa(lp276
I15
aI31
aI0
aa(lp277
I72
aI137
aI223
aa(lp278
I232
aI168
aI250
aI255
aI255
aa(lp279
I133
aI192
aa(lp280
I116
aI25
aa(lp281
I191
aI67
aI23
aI64
aI0
aa(lp282
I49
aI192
aa(lp283
I72
aI139
aI116
aI36
aI8
aa(lp284
I232
aI131
aI250
aI255
aI255
aa(lp285
I199
aI68
aI36
aI4
aI1
aI0
aI0
aI0
aa(lp286
I72
aI59
aI29
aI52
aI14
aI32
aI0
aa(lp287
I116
aI65
aa(lp288
I72
aI137
aI223
aa(lp289
I232
aI154
aI250
aI255
aI255
aa(lp290
I235
aI55
aa(lp291
I15
aI31
aI132
aI0
aI0
aI0
aI0
aI0
aa(lp292
I49
aI255
aa(lp293
I190
aI55
aI23
aI64
aI0
aa(lp294
I186
aI5
aI0
aI0
aI0
aa(lp295
I232
aI159
aI250
aI255
aI255
aa(lp296
I72
aI137
aI193
aa(lp297
I73
aI139
aI55
aa(lp298
I49
aI192
aa(lp299
I72
aI137
aI207
aa(lp300
I232
aI63
aI250
aI255
aI255
aa(lp301
I73
aI131
aI199
aI8
aa(lp302
I199
aI68
aI36
aI4
aI1
aI0
aI0
aI0
aa(lp303
I49
aI219
aa(lp304
I73
aI139
aI63
aa(lp305
I72
aI133
aI255
aa(lp306
I15
aI133
aI149
aI253
aI255
aI255
aa(lp307
I76
aI137
aI247
aa(lp308
I232
aI221
aI249
aI255
aI255
aa(lp309
I139
aI68
aI36
aI4
aa(lp310
I72
aI131
aI196
aI24
aa(lp311
I91
aa(lp312
I65
aI92
aa(lp313
I65
aI93
aa(lp314
I65
aI94
aa(lp315
I65
aI95
aa(lp316
I93
aa(lp317
I195
aasg13
(I4198416
I4199658
tp318
sg14
I2
sg15
g16
sssS'function_calls'
p319
(dp320
sS'binary_filename'
p321
S'rev'
p322
sS'structures'
p323
(dp324
sS'extern_functions'
p325
(dp326
sS'arch'
p327
S'amd64'
p328
sS'bin_raw_bytes'
p329
g8
s.