(dp0
S'text_addr'
p1
S'0x400db0'
p2
sS'functions'
p3
(dp4
S'flush_standard_stream'
p5
(dp6
S'ret_type'
p7
S''
p8
sS'args_type'
p9
(lp10
sS'inst_bytes'
p11
(lp12
sS'boundaries'
p13
(tsS'num_args'
p14
I1
sS'inst_strings'
p15
(lp16
ssS'close_stdout'
p17
(dp18
g7
g8
sg9
(lp19
sg11
(lp20
(lp21
I65
aI86
aa(lp22
I83
aa(lp23
I80
aa(lp24
I72
aI139
aI29
aI173
aI22
aI32
aI0
aa(lp25
I232
aI128
aI240
aI255
aI255
aa(lp26
I73
aI137
aI198
aa(lp27
I65
aI199
aI6
aI0
aI0
aI0
aI0
aa(lp28
I72
aI137
aI223
aa(lp29
I232
aI174
aI240
aI255
aI255
aa(lp30
I133
aI192
aa(lp31
I15
aI133
aI163
aI0
aI0
aI0
aa(lp32
I72
aI137
aI223
aa(lp33
I232
aI174
aI241
aI255
aI255
aa(lp34
I133
aI192
aa(lp35
I116
aI69
aa(lp36
I65
aI139
aI30
aa(lp37
I131
aI251
aI9
aa(lp38
I116
aI9
aa(lp39
I131
aI251
aI32
aa(lp40
I15
aI133
aI156
aI0
aI0
aI0
aa(lp41
I72
aI139
aI29
aI130
aI22
aI32
aI0
aa(lp42
I65
aI199
aI6
aI0
aI0
aI0
aI0
aa(lp43
I72
aI137
aI223
aa(lp44
I232
aI115
aI240
aI255
aI255
aa(lp45
I133
aI192
aa(lp46
I117
aI98
aa(lp47
I72
aI137
aI223
aa(lp48
I232
aI119
aI241
aI255
aI255
aa(lp49
I133
aI192
aa(lp50
I116
aI50
aa(lp51
I65
aI131
aI62
aI9
aa(lp52
I117
aI80
aa(lp53
I72
aI131
aI196
aI8
aa(lp54
I91
aa(lp55
I65
aI94
aa(lp56
I195
aasg13
(I4201328
I4201613
tp57
sg14
I0
sg15
g16
ssS'get_arch_domain'
p58
(dp59
g7
g8
sg9
(lp60
sg11
(lp61
sg13
(tsg14
I2
sg15
g16
ssS'init_arch_domains'
p62
(dp63
g7
g8
sg9
(lp64
sg11
(lp65
sg13
(tsg14
I0
sg15
g16
ssS'list_arch_domains'
p66
(dp67
g7
g8
sg9
(lp68
sg11
(lp69
sg13
(tsg14
I1
sg15
g16
ssS'close_stdout_atexit'
p70
(dp71
g7
g8
sg9
(lp72
sg11
(lp73
sg13
(tsg14
I0
sg15
g16
ssS'usage'
p74
(dp75
g7
g8
sg9
(lp76
sg11
(lp77
sg13
(tsg14
I1
sg15
g16
ssS'main'
p78
(dp79
g7
g8
sg9
(lp80
sg11
(lp81
(lp82
I85
aa(lp83
I65
aI87
aa(lp84
I65
aI86
aa(lp85
I65
aI85
aa(lp86
I65
aI84
aa(lp87
I83
aa(lp88
I72
aI129
aI236
aI168
aI1
aI0
aI0
aa(lp89
I73
aI137
aI244
aa(lp90
I65
aI137
aI254
aa(lp91
I191
aI6
aI0
aI0
aI0
aa(lp92
I190
aI238
aI41
aI64
aI0
aa(lp93
I232
aI154
aI254
aI255
aI255
aa(lp94
I191
aI36
aI36
aI64
aI0
aa(lp95
I190
aI47
aI36
aI64
aI0
aa(lp96
I232
aI139
aI253
aI255
aI255
aa(lp97
I191
aI36
aI36
aI64
aI0
aa(lp98
I232
aI113
aI253
aI255
aI255
aa(lp99
I191
aI112
aI27
aI64
aI0
aa(lp100
I232
aI39
aI14
aI0
aI0
aa(lp101
I69
aI133
aI246
aa(lp102
I15
aI142
aI35
aI9
aI0
aI0
aa(lp103
I72
aI139
aI29
aI39
aI35
aI32
aI0
aa(lp104
I190
aI125
aI36
aI64
aI0
aa(lp105
I72
aI137
aI223
aa(lp106
I232
aI10
aI254
aI255
aI255
aa(lp107
I137
aI197
aa(lp108
I133
aI237
aa(lp109
I116
aI23
aa(lp110
I190
aI133
aI36
aI64
aI0
aa(lp111
I72
aI137
aI223
aa(lp112
I232
aI247
aI253
aI255
aI255
aa(lp113
I133
aI192
aa(lp114
I116
aI30
aa(lp115
I137
aI108
aI36
aI4
aa(lp116
I235
aI85
aa(lp117
I65
aI131
aI254
aI2
aa(lp118
I137
aI108
aI36
aI4
aa(lp119
I124
aI45
aa(lp120
I73
aI139
aI92
aI36
aI8
aa(lp121
I128
aI59
aI45
aa(lp122
I117
aI45
aa(lp123
I49
aI219
aa(lp124
I235
aI61
aa(lp125
I184
aI238
aI41
aI64
aI0
aa(lp126
I72
aI137
aI68
aI36
aI8
aa(lp127
I184
aI145
aI36
aI64
aI0
aa(lp128
I72
aI137
aI68
aI36
aI16
aa(lp129
I69
aI49
aI255
aa(lp130
I69
aI49
aI237
aa(lp131
I233
aI120
aI4
aI0
aI0
aa(lp132
I65
aI190
aI1
aI0
aI0
aI0
aa(lp133
I49
aI219
aa(lp134
I235
aI20
aa(lp135
I73
aI139
aI4
aI36
aa(lp136
I73
aI137
aI68
aI36
aI8
aa(lp137
I77
aI141
aI100
aI36
aI8
aa(lp138
I65
aI247
aI222
aa(lp139
I65
aI247
aI214
aa(lp140
I72
aI189
aI46
aI96
aI218
aI252
aI4
aa(lp141
I49
aI34
aI65
aa(lp142
I72
aI247
aI213
aa(lp143
I69
aI49
aI255
aa(lp144
I49
aI201
aa(lp145
I235
aI17
aa(lp146
I15
aI31
aI64
aI0
aa(lp147
I49
aI192
aa(lp148
I72
aI137
aI207
aa(lp149
I232
aI6
aI253
aI255
aI255
aa(lp150
I68
aI137
aI233
aa(lp151
I65
aI137
aI205
aa(lp152
I186
aI155
aI36
aI64
aI0
aa(lp153
I185
aI96
aI33
aI64
aI0
aa(lp154
I69
aI49
aI192
aa(lp155
I68
aI137
aI247
aa(lp156
I76
aI137
aI230
aa(lp157
I232
aI200
aI252
aI255
aI255
aa(lp158
I255
aI192
aa(lp159
I61
aI131
aI0
aI0
aI0
aa(lp160
I15
aI135
aI99
aI11
aI0
aI0
aa(lp161
I68
aI137
aI233
aa(lp162
I255
aI36
aI197
aI64
aI29
aI64
aI0
aa(lp163
I76
aI137
aI248
aa(lp164
I72
aI247
aI208
aa(lp165
I137
aI193
aa(lp166
I247
aI209
aa(lp167
I72
aI186
aI46
aI96
aI218
aI252
aI4
aa(lp168
I49
aI34
aI65
aa(lp169
I72
aI33
aI208
aa(lp170
I73
aI33
aI239
aa(lp171
I73
aI9
aI199
aa(lp172
I76
aI137
aI248
aa(lp173
I72
aI186
aI46
aI96
aI218
aI244
aI4
aa(lp174
I49
aI34
aI65
aa(lp175
I72
aI49
aI208
aa(lp176
I129
aI225
aI0
aI0
aI0
aI8
aa(lp177
I73
aI137
aI207
aa(lp178
I73
aI9
aI199
aa(lp179
I69
aI133
aI237
aa(lp180
I185
aI0
aI0
aI0
aI0
aa(lp181
I116
aI139
aa(lp182
I49
aI255
aa(lp183
I190
aI170
aI36
aI64
aI0
aa(lp184
I186
aI5
aI0
aI0
aI0
aa(lp185
I232
aI77
aI252
aI255
aI255
aa(lp186
I72
aI137
aI193
aa(lp187
I190
aI76
aI37
aI64
aI0
aa(lp188
I233
aI96
aI255
aI255
aI255
aa(lp189
I72
aI184
aI35
aI68
aI122
aI3
aI41
aa(lp190
I6
aI115
aI241
aa(lp191
I72
aI137
aI194
aa(lp192
I72
aI247
aI208
aa(lp193
I76
aI33
aI248
aa(lp194
I73
aI247
aI215
aa(lp195
I68
aI137
aI249
aa(lp196
I247
aI209
aa(lp197
I73
aI33
aI215
aa(lp198
I76
aI9
aI248
aa(lp199
I72
aI141
aI146
aI0
aI0
aI128
aI0
aa(lp200
I72
aI49
aI194
aa(lp201
I129
aI225
aI0
aI0
aI128
aI0
aa(lp202
I73
aI137
aI207
aa(lp203
I73
aI9
aI215
aa(lp204
I69
aI133
aI237
aa(lp205
I185
aI0
aI0
aI0
aI0
aa(lp206
I15
aI132
aI40
aI255
aI255
aI255
aa(lp207
I49
aI255
aa(lp208
I190
aI170
aI36
aI64
aI0
aa(lp209
I186
aI5
aI0
aI0
aI0
aa(lp210
I232
aI234
aI251
aI255
aI255
aa(lp211
I72
aI137
aI193
aa(lp212
I190
aI17
aI37
aI64
aI0
aa(lp213
I233
aI253
aI254
aI255
aI255
aa(lp214
I72
aI184
aI232
aI55
aI170
aI105
aI186
aa(lp215
I232
aI245
aI137
aa(lp216
I72
aI137
aI194
aa(lp217
I72
aI247
aI208
aa(lp218
I76
aI33
aI248
aa(lp219
I73
aI247
aI215
aa(lp220
I68
aI137
aI249
aa(lp221
I247
aI209
aa(lp222
I73
aI33
aI215
aa(lp223
I76
aI9
aI248
aa(lp224
I72
aI186
aI232
aI55
aI162
aI105
aI186
aa(lp225
I232
aI245
aI137
aa(lp226
I72
aI49
aI208
aa(lp227
I129
aI225
aI0
aI0
aI8
aI0
aa(lp228
I73
aI137
aI207
aa(lp229
I73
aI9
aI199
aa(lp230
I69
aI133
aI237
aa(lp231
I185
aI0
aI0
aI0
aI0
aa(lp232
I15
aI132
aI194
aI254
aI255
aI255
aa(lp233
I49
aI255
aa(lp234
I190
aI170
aI36
aI64
aI0
aa(lp235
I186
aI5
aI0
aI0
aI0
aa(lp236
I232
aI132
aI251
aI255
aI255
aa(lp237
I72
aI137
aI193
aa(lp238
I190
aI206
aI36
aI64
aI0
aa(lp239
I233
aI151
aI254
aI255
aI255
aa(lp240
I68
aI137
aI248
aa(lp241
I37
aI0
aI0
aI0
aI1
aa(lp242
I73
aI129
aI247
aI0
aI0
aI0
aI1
aa(lp243
I73
aI9
aI199
aa(lp244
I69
aI133
aI237
aa(lp245
I185
aI0
aI0
aI0
aI0
aa(lp246
I15
aI132
aI132
aI254
aI255
aI255
aa(lp247
I49
aI255
aa(lp248
I190
aI170
aI36
aI64
aI0
aa(lp249
I186
aI5
aI0
aI0
aI0
aa(lp250
I232
aI70
aI251
aI255
aI255
aa(lp251
I72
aI137
aI193
aa(lp252
I190
aI34
aI37
aI64
aI0
aa(lp253
I233
aI89
aI254
aI255
aI255
aa(lp254
I68
aI137
aI248
aa(lp255
I37
aI0
aI0
aI32
aI0
aa(lp256
I73
aI129
aI247
aI0
aI0
aI32
aI0
aa(lp257
I73
aI9
aI199
aa(lp258
I69
aI133
aI237
aa(lp259
I185
aI0
aI0
aI0
aI0
aa(lp260
I15
aI132
aI70
aI254
aI255
aI255
aa(lp261
I49
aI255
aa(lp262
I190
aI170
aI36
aI64
aI0
aa(lp263
I186
aI5
aI0
aI0
aI0
aa(lp264
I232
aI8
aI251
aI255
aI255
aa(lp265
I72
aI137
aI193
aa(lp266
I190
aI236
aI36
aI64
aI0
aa(lp267
I233
aI27
aI254
aI255
aI255
aa(lp268
I68
aI137
aI248
aa(lp269
I37
aI0
aI0
aI4
aI0
aa(lp270
I73
aI129
aI247
aI0
aI0
aI4
aI0
aa(lp271
I73
aI9
aI199
aa(lp272
I69
aI133
aI237
aa(lp273
I185
aI0
aI0
aI0
aI0
aa(lp274
I15
aI132
aI8
aI254
aI255
aI255
aa(lp275
I49
aI255
aa(lp276
I190
aI170
aI36
aI64
aI0
aa(lp277
I186
aI5
aI0
aI0
aI0
aa(lp278
I232
aI202
aI250
aI255
aI255
aa(lp279
I72
aI137
aI193
aa(lp280
I190
aI188
aI36
aI64
aI0
aa(lp281
I233
aI221
aI253
aI255
aI255
aa(lp282
I68
aI137
aI248
aa(lp283
I37
aI0
aI0
aI0
aI2
aa(lp284
I73
aI129
aI247
aI0
aI0
aI0
aI2
aa(lp285
I73
aI9
aI199
aa(lp286
I69
aI133
aI237
aa(lp287
I185
aI0
aI0
aI0
aI0
aa(lp288
I15
aI132
aI202
aI253
aI255
aI255
aa(lp289
I49
aI255
aa(lp290
I190
aI170
aI36
aI64
aI0
aa(lp291
I186
aI5
aI0
aI0
aI0
aa(lp292
I232
aI140
aI250
aI255
aI255
aa(lp293
I72
aI137
aI193
aa(lp294
I190
aI46
aI37
aI64
aI0
aa(lp295
I233
aI159
aI253
aI255
aI255
aa(lp296
I72
aI184
aI95
aI252
aI86
aI164
aI147
aa(lp297
I198
aI204
aI43
aa(lp298
I72
aI137
aI194
aa(lp299
I72
aI247
aI208
aa(lp300
I76
aI33
aI248
aa(lp301
I73
aI247
aI215
aa(lp302
I68
aI137
aI249
aa(lp303
I247
aI209
aa(lp304
I73
aI33
aI215
aa(lp305
I76
aI9
aI248
aa(lp306
I72
aI186
aI95
aI252
aI86
aI160
aI147
aa(lp307
I198
aI204
aI43
aa(lp308
I72
aI49
aI208
aa(lp309
I129
aI225
aI0
aI0
aI0
aI4
aa(lp310
I73
aI137
aI207
aa(lp311
I73
aI9
aI199
aa(lp312
I69
aI133
aI237
aa(lp313
I185
aI0
aI0
aI0
aI0
aa(lp314
I15
aI132
aI100
aI253
aI255
aI255
aa(lp315
I49
aI255
aa(lp316
I190
aI170
aI36
aI64
aI0
aa(lp317
I186
aI5
aI0
aI0
aI0
aa(lp318
I232
aI38
aI250
aI255
aI255
aa(lp319
I72
aI137
aI193
aa(lp320
I190
aI60
aI37
aI64
aI0
aa(lp321
I233
aI57
aI253
aI255
aI255
aa(lp322
I72
aI184
aI42
aI37
aI122
aI36
aI160
aa(lp323
I131
aI227
aI179
aa(lp324
I72
aI137
aI194
aa(lp325
I72
aI247
aI208
aa(lp326
I76
aI33
aI248
aa(lp327
I73
aI247
aI215
aa(lp328
I68
aI137
aI249
aa(lp329
I247
aI209
aa(lp330
I73
aI33
aI215
aa(lp331
I76
aI9
aI248
aa(lp332
I72
aI186
aI42
aI37
aI58
aI36
aI160
aa(lp333
I131
aI227
aI179
aa(lp334
I72
aI49
aI208
aa(lp335
I129
aI225
aI0
aI0
aI64
aI0
aa(lp336
I73
aI137
aI207
aa(lp337
I73
aI9
aI199
aa(lp338
I69
aI133
aI237
aa(lp339
I185
aI0
aI0
aI0
aI0
aa(lp340
I15
aI132
aI254
aI252
aI255
aI255
aa(lp341
I49
aI255
aa(lp342
I190
aI170
aI36
aI64
aI0
aa(lp343
I186
aI5
aI0
aI0
aI0
aa(lp344
I232
aI192
aI249
aI255
aI255
aa(lp345
I72
aI137
aI193
aa(lp346
I190
aI255
aI36
aI64
aI0
aa(lp347
I233
aI211
aI252
aI255
aI255
aa(lp348
I72
aI184
aI185
aI228
aI53
aI14
aI47
aa(lp349
I211
aI10
aI125
aa(lp350
I72
aI137
aI194
aa(lp351
I72
aI247
aI208
aa(lp352
I76
aI33
aI248
aa(lp353
I73
aI247
aI215
aa(lp354
I68
aI137
aI249
aa(lp355
I247
aI209
aa(lp356
I73
aI33
aI215
aa(lp357
I76
aI9
aI248
aa(lp358
I72
aI186
aI185
aI228
aI37
aI14
aI47
aa(lp359
I211
aI10
aI125
aa(lp360
I72
aI49
aI208
aa(lp361
I129
aI225
aI0
aI0
aI16
aI0
aa(lp362
I73
aI137
aI207
aa(lp363
I73
aI9
aI199
aa(lp364
I69
aI133
aI237
aa(lp365
I185
aI0
aI0
aI0
aI0
aa(lp366
I15
aI132
aI152
aI252
aI255
aI255
aa(lp367
I49
aI255
aa(lp368
I190
aI170
aI36
aI64
aI0
aa(lp369
I186
aI5
aI0
aI0
aI0
aa(lp370
I232
aI90
aI249
aI255
aI255
aa(lp371
I72
aI137
aI193
aa(lp372
I190
aI221
aI36
aI64
aI0
aa(lp373
I233
aI109
aI252
aI255
aI255
aa(lp374
I185
aI1
aI0
aI0
aI0
aa(lp375
I233
aI112
aI252
aI255
aI255
aa(lp376
I72
aI184
aI20
aI42
aI125
aI74
aI207
aa(lp377
I119
aI127
aI1
aa(lp378
I72
aI137
aI194
aa(lp379
I72
aI247
aI208
aa(lp380
I76
aI33
aI248
aa(lp381
I73
aI247
aI215
aa(lp382
I68
aI137
aI249
aa(lp383
I247
aI209
aa(lp384
I73
aI33
aI215
aa(lp385
I76
aI9
aI248
aa(lp386
I72
aI141
aI146
aI0
aI0
aI2
aI0
aa(lp387
I72
aI49
aI194
aa(lp388
I129
aI225
aI0
aI0
aI2
aI0
aa(lp389
I73
aI137
aI207
aa(lp390
I73
aI9
aI215
aa(lp391
I69
aI133
aI237
aa(lp392
I185
aI0
aI0
aI0
aI0
aa(lp393
I15
aI132
aI43
aI252
aI255
aI255
aa(lp394
I49
aI255
aa(lp395
I190
aI170
aI36
aI64
aI0
aa(lp396
I186
aI5
aI0
aI0
aI0
aa(lp397
I232
aI237
aI248
aI255
aI255
aa(lp398
I72
aI137
aI193
aa(lp399
I190
aI91
aI37
aI64
aI0
aa(lp400
I233
aI0
aI252
aI255
aI255
aa(lp401
I72
aI133
aI219
aa(lp402
I15
aI149
aI192
aa(lp403
I77
aI133
aI255
aa(lp404
I15
aI149
aI193
aa(lp405
I132
aI193
aa(lp406
I117
aI8
aa(lp407
I48
aI193
aa(lp408
I15
aI132
aI63
aI7
aI0
aI0
aa(lp409
I72
aI99
aI5
aI129
aI30
aI32
aI0
aa(lp410
I65
aI129
aI198
aI85
aI77
aI52
aI175
aa(lp411
I65
aI41
aI198
aa(lp412
I65
aI129
aI198
aI171
aI178
aI203
aI80
aa(lp413
I77
aI141
aI36
aI196
aa(lp414
I49
aI192
aa(lp415
I72
aI137
aI68
aI36
aI16
aa(lp416
I49
aI192
aa(lp417
I72
aI137
aI68
aI36
aI8
aa(lp418
I68
aI137
aI44
aI36
aa(lp419
I72
aI133
aI219
aa(lp420
I76
aI137
aI100
aI36
aI24
aa(lp421
I68
aI137
aI116
aI36
aI4
aa(lp422
I15
aI132
aI244
aI6
aI0
aI0
aa(lp423
I191
aI73
aI50
aI96
aI0
aa(lp424
I232
aI205
aI248
aI255
aI255
aa(lp425
I139
aI45
aI23
aI29
aI32
aI0
aa(lp426
I65
aI190
aI16
aI49
aI96
aI0
aa(lp427
I69
aI49
aI237
aa(lp428
I133
aI237
aa(lp429
I120
aI47
aa(lp430
I73
aI188
aI112
aI190
aI180
aI131
aI156
aa(lp431
I171
aI135
aI106
aa(lp432
I73
aI139
aI118
aI8
aa(lp433
I191
aI77
aI51
aI96
aI0
aa(lp434
I232
aI242
aI248
aI255
aI255
aa(lp435
I133
aI192
aa(lp436
I116
aI61
aa(lp437
I77
aI41
aI229
aa(lp438
I79
aI141
aI108
aI37
aI1
aa(lp439
I65
aI131
aI126
aI24
aI0
aa(lp440
I77
aI141
aI118
aI24
aa(lp441
I121
aI219
aa(lp442
I65
aI199
aI6
aI0
aI0
aI0
aI0
aa(lp443
I75
aI141
aI68
aI109
aI0
aa(lp444
I185
aI77
aI51
aI96
aI0
aa(lp445
I102
aI72
aI15
aI110
aI193
aa(lp446
I102
aI15
aI112
aI192
aI68
aa(lp447
I243
aI15
aI127
aI4
aI197
aI24
aI49
aa(lp448
I96
aI0
aa(lp449
I139
aI45
aI177
aI28
aI32
aI0
aa(lp450
I65
aI189
aI16
aI49
aI96
aI0
aa(lp451
I133
aI237
aa(lp452
I121
aI19
aa(lp453
I235
aI33
aa(lp454
I15
aI31
aI68
aI0
aI0
aa(lp455
I65
aI139
aI109
aI24
aa(lp456
I73
aI131
aI197
aI24
aa(lp457
I133
aI237
aa(lp458
I120
aI16
aa(lp459
I73
aI139
aI117
aI8
aa(lp460
I72
aI137
aI223
aa(lp461
I232
aI136
aI248
aI255
aI255
aa(lp462
I133
aI192
aa(lp463
I117
aI228
aa(lp464
I69
aI49
aI246
aa(lp465
I133
aI237
aa(lp466
I77
aI15
aI73
aI245
aa(lp467
I77
aI133
aI246
aa(lp468
I15
aI133
aI143
aI0
aI0
aI0
aa(lp469
I49
aI255
aa(lp470
I190
aI222
aI37
aI64
aI0
aa(lp471
I186
aI5
aI0
aI0
aI0
aa(lp472
I232
aI193
aI247
aI255
aI255
aa(lp473
I72
aI137
aI193
aa(lp474
I191
aI1
aI0
aI0
aI0
aa(lp475
I49
aI192
aa(lp476
I72
aI137
aI206
aa(lp477
I72
aI137
aI218
aa(lp478
I232
aI204
aI247
aI255
aI255
aa(lp479
I131
aI124
aI36
aI4
aI0
aa(lp480
I15
aI133
aI59
aI6
aI0
aI0
aa(lp481
I191
aI73
aI50
aI96
aI0
aa(lp482
I232
aI231
aI247
aI255
aI255
aa(lp483
I131
aI61
aI48
aI28
aI32
aI0
aI0
aa(lp484
I15
aI136
aI175
aI1
aI0
aI0
aa(lp485
I187
aI16
aI49
aI96
aI0
aa(lp486
I49
aI237
aa(lp487
I73
aI190
aI222
aI170
aI74
aI22
aI219
aa(lp488
I136
aI41
aI179
aa(lp489
I102
aI15
aI31
aI132
aI0
aI0
aI0
aa(lp490
I0
aI0
aa(lp491
I72
aI139
aI115
aI8
aa(lp492
I191
aI77
aI51
aI96
aI0
aa(lp493
I232
aI2
aI248
aI255
aI255
aa(lp494
I133
aI192
aa(lp495
I15
aI132
aI169
aI1
aI0
aI0
aa(lp496
I74
aI141
aI108
aI53
aI1
aa(lp497
I76
aI41
aI245
aa(lp498
I131
aI123
aI24
aI0
aa(lp499
I72
aI141
aI91
aI24
aa(lp500
I121
aI216
aa(lp501
I233
aI111
aI1
aI0
aI0
aa(lp502
I73
aI99
aI6
aa(lp503
I72
aI185
aI167
aI118
aI58
aI95
aI156
aa(lp504
I111
aI83
aI116
aa(lp505
I72
aI137
aI194
aa(lp506
I72
aI247
aI210
aa(lp507
I76
aI137
aI254
aa(lp508
I72
aI247
aI214
aa(lp509
I72
aI137
aI205
aa(lp510
I72
aI247
aI213
aa(lp511
I72
aI137
aI215
aa(lp512
I72
aI33
aI207
aa(lp513
I72
aI33
aI232
aa(lp514
I72
aI9
aI242
aa(lp515
I72
aI33
aI206
aa(lp516
I73
aI33
aI239
aa(lp517
I72
aI9
aI248
aa(lp518
I73
aI9
aI247
aa(lp519
I73
aI49
aI199
aa(lp520
I72
aI247
aI210
aa(lp521
I72
aI9
aI205
aa(lp522
I72
aI33
aI213
aa(lp523
I76
aI9
aI253
aa(lp524
I72
aI137
aI239
aa(lp525
I232
aI117
aI246
aI255
aI255
aa(lp526
I133
aI192
aa(lp527
I68
aI139
aI124
aI36
aI4
aa(lp528
I121
aI50
aa(lp529
I72
aI137
aI239
aa(lp530
I232
aI100
aI246
aI255
aI255
aa(lp531
I133
aI192
aa(lp532
I121
aI38
aa(lp533
I49
aI255
aa(lp534
I190
aI252
aI37
aI64
aI0
aa(lp535
I186
aI5
aI0
aI0
aI0
aa(lp536
I232
aI207
aI246
aI255
aI255
aa(lp537
I72
aI137
aI193
aa(lp538
I191
aI1
aI0
aI0
aI0
aa(lp539
I49
aI192
aa(lp540
I72
aI137
aI206
aa(lp541
I72
aI137
aI218
aa(lp542
I232
aI138
aI247
aI255
aI255
aa(lp543
I72
aI133
aI219
aa(lp544
I139
aI12
aI36
aa(lp545
I116
aI56
aa(lp546
I77
aI133
aI246
aa(lp547
I116
aI51
aa(lp548
I73
aI131
aI126
aI16
aI0
aa(lp549
I116
aI44
aa(lp550
I72
aI141
aI124
aI36
aI32
aa(lp551
I232
aI236
aI246
aI255
aI255
aa(lp552
I76
aI141
aI164
aI36
aI36
aI1
aI0
aI0
aa(lp553
I73
aI139
aI110
aI16
aa(lp554
I76
aI137
aI231
aa(lp555
I72
aI137
aI238
aa(lp556
I232
aI37
aI247
aI255
aI255
aa(lp557
I139
aI12
aI36
aa(lp558
I133
aI192
aa(lp559
I15
aI133
aI65
aI1
aI0
aI0
aa(lp560
I69
aI133
aI255
aa(lp561
I184
aI28
aI38
aI64
aI0
aa(lp562
I72
aI139
aI108
aI36
aI16
aa(lp563
I72
aI15
aI68
aI232
aa(lp564
I184
aI36
aI38
aI64
aI0
aa(lp565
I72
aI139
aI92
aI36
aI8
aa(lp566
I72
aI15
aI68
aI216
aa(lp567
I133
aI201
aa(lp568
I76
aI139
aI116
aI36
aI24
aa(lp569
I116
aI48
aa(lp570
I49
aI255
aa(lp571
I190
aI40
aI38
aI64
aI0
aa(lp572
I186
aI5
aI0
aI0
aI0
aa(lp573
I232
aI65
aI246
aI255
aI255
aa(lp574
I72
aI137
aI193
aa(lp575
I72
aI133
aI237
aa(lp576
I72
aI137
aI238
aa(lp577
I117
aI3
aa(lp578
I73
aI139
aI54
aa(lp579
I49
aI192
aa(lp580
I72
aI137
aI207
aa(lp581
I232
aI89
aI246
aI255
aI255
aa(lp582
I49
aI255
aa(lp583
I232
aI2
aI247
aI255
aI255
aa(lp584
I72
aI133
aI237
aa(lp585
I15
aI133
aI158
aI0
aI0
aI0
aa(lp586
I73
aI139
aI62
aa(lp587
I76
aI137
aI246
aa(lp588
I232
aI14
aI247
aI255
aI255
aa(lp589
I232
aI153
aI245
aI255
aI255
aa(lp590
I49
aI219
aa(lp591
I131
aI56
aI2
aa(lp592
I15
aI148
aI195
aa(lp593
I131
aI203
aI126
aa(lp594
I49
aI255
aa(lp595
I190
aI63
aI38
aI64
aI0
aa(lp596
I186
aI5
aI0
aI0
aI0
aa(lp597
I232
aI237
aI245
aI255
aI255
aa(lp598
I72
aI137
aI193
aa(lp599
I73
aI139
aI22
aa(lp600
I49
aI192
aa(lp601
I137
aI223
aa(lp602
I72
aI137
aI206
aa(lp603
I232
aI171
aI246
aI255
aI255
aa(lp604
I187
aI16
aI49
aI96
aI0
aa(lp605
I49
aI237
aa(lp606
I199
aI3
aI0
aI0
aI0
aI0
aa(lp607
I72
aI141
aI68
aI109
aI0
aa(lp608
I185
aI77
aI51
aI96
aI0
aa(lp609
I102
aI72
aI15
aI110
aI193
aa(lp610
I102
aI15
aI112
aI192
aI68
aa(lp611
I243
aI15
aI127
aI4
aI197
aI24
aI49
aa(lp612
I96
aI0
aa(lp613
I72
aI139
aI61
aI82
aI26
aI32
aI0
aa(lp614
I72
aI133
aI255
aa(lp615
I116
aI22
aa(lp616
I187
aI48
aI49
aI96
aI0
aa(lp617
I232
aI91
aI245
aI255
aI255
aa(lp618
I72
aI139
aI59
aa(lp619
I72
aI131
aI195
aI24
aa(lp620
I72
aI133
aI255
aa(lp621
I117
aI239
aa(lp622
I49
aI192
aa(lp623
I72
aI129
aI196
aI168
aI1
aI0
aI0
aa(lp624
I91
aa(lp625
I65
aI92
aa(lp626
I65
aI93
aa(lp627
I65
aI94
aa(lp628
I65
aI95
aa(lp629
I93
aa(lp630
I195
aasg13
(I4198048
I4201313
tp631
sg14
I2
sg15
g16
ssS'verify_arch_domain'
p632
(dp633
g7
g8
sg9
(lp634
sg11
(lp635
sg13
(tsg14
I2
sg15
g16
sssS'function_calls'
p636
(dp637
sS'binary_filename'
p638
S'setarch'
p639
sS'structures'
p640
(dp641
sS'extern_functions'
p642
(dp643
sS'arch'
p644
S'amd64'
p645
sS'bin_raw_bytes'
p646
g8
s.