(dp0
S'text_addr'
p1
S'0x400ba0'
p2
sS'functions'
p3
(dp4
S'usage'
p5
(dp6
S'ret_type'
p7
S''
p8
sS'args_type'
p9
(lp10
sS'inst_bytes'
p11
(lp12
sS'boundaries'
p13
(tsS'num_args'
p14
I0
sS'inst_strings'
p15
(lp16
ssS'flush_standard_stream'
p17
(dp18
g7
g8
sg9
(lp19
sg11
(lp20
sg13
(tsg14
I1
sg15
g16
ssS'close_stdout'
p21
(dp22
g7
g8
sg9
(lp23
sg11
(lp24
(lp25
I65
aI86
aa(lp26
I83
aa(lp27
I80
aa(lp28
I72
aI139
aI29
aI13
aI18
aI32
aI0
aa(lp29
I232
aI96
aI251
aI255
aI255
aa(lp30
I73
aI137
aI198
aa(lp31
I65
aI199
aI6
aI0
aI0
aI0
aI0
aa(lp32
I72
aI137
aI223
aa(lp33
I232
aI126
aI251
aI255
aI255
aa(lp34
I133
aI192
aa(lp35
I15
aI133
aI163
aI0
aI0
aI0
aa(lp36
I72
aI137
aI223
aa(lp37
I232
aI94
aI252
aI255
aI255
aa(lp38
I133
aI192
aa(lp39
I116
aI69
aa(lp40
I65
aI139
aI30
aa(lp41
I131
aI251
aI9
aa(lp42
I116
aI9
aa(lp43
I131
aI251
aI32
aa(lp44
I15
aI133
aI156
aI0
aI0
aI0
aa(lp45
I72
aI139
aI29
aI226
aI17
aI32
aI0
aa(lp46
I65
aI199
aI6
aI0
aI0
aI0
aI0
aa(lp47
I72
aI137
aI223
aa(lp48
I232
aI67
aI251
aI255
aI255
aa(lp49
I133
aI192
aa(lp50
I117
aI98
aa(lp51
I72
aI137
aI223
aa(lp52
I232
aI39
aI252
aI255
aI255
aa(lp53
I133
aI192
aa(lp54
I116
aI50
aa(lp55
I65
aI131
aI62
aI9
aa(lp56
I117
aI80
aa(lp57
I72
aI131
aI196
aI8
aa(lp58
I91
aa(lp59
I65
aI94
aa(lp60
I195
aasg13
(I4198096
I4198381
tp61
sg14
I0
sg15
g16
ssS'main'
p62
(dp63
g7
g8
sg9
(lp64
sg11
(lp65
(lp66
I85
aa(lp67
I83
aa(lp68
I80
aa(lp69
I72
aI137
aI243
aa(lp70
I137
aI253
aa(lp71
I191
aI6
aI0
aI0
aI0
aa(lp72
I190
aI240
aI17
aI64
aI0
aa(lp73
I232
aI201
aI254
aI255
aI255
aa(lp74
I191
aI0
aI17
aI64
aI0
aa(lp75
I190
aI11
aI17
aI64
aI0
aa(lp76
I232
aI218
aI253
aI255
aI255
aa(lp77
I191
aI0
aI17
aI64
aI0
aa(lp78
I232
aI192
aI253
aI255
aI255
aa(lp79
I191
aI208
aI14
aI64
aI0
aa(lp80
I232
aI166
aI3
aI0
aI0
aa(lp81
I186
aI29
aI17
aI64
aI0
aa(lp82
I185
aI160
aI16
aI64
aI0
aa(lp83
I69
aI49
aI192
aa(lp84
I137
aI239
aa(lp85
I72
aI137
aI222
aa(lp86
I232
aI207
aI253
aI255
aI255
aa(lp87
I131
aI248
aI255
aa(lp88
I117
aI43
aa(lp89
I131
aI253
aI3
aa(lp90
I117
aI101
aa(lp91
I72
aI139
aI115
aI8
aa(lp92
I72
aI139
aI83
aI16
aa(lp93
I191
aI155
aI0
aI0
aI0
aa(lp94
I49
aI192
aa(lp95
I232
aI49
aI254
aI255
aI255
aa(lp96
I72
aI133
aI192
aa(lp97
I15
aI136
aI159
aI0
aI0
aI0
aa(lp98
I49
aI192
aa(lp99
I72
aI131
aI196
aI8
aa(lp100
I91
aa(lp101
I93
aa(lp102
I195
aasg13
(I4197520
I4198093
tp103
sg14
I2
sg15
g16
ssS'close_stdout_atexit'
p104
(dp105
g7
g8
sg9
(lp106
sg11
(lp107
sg13
(tsg14
I0
sg15
g16
sssS'function_calls'
p108
(dp109
sS'binary_filename'
p110
S'pivot_root'
p111
sS'structures'
p112
(dp113
sS'extern_functions'
p114
(dp115
sS'arch'
p116
S'amd64'
p117
sS'bin_raw_bytes'
p118
g8
s.