(dp0
S'text_addr'
p1
S'0x10b0'
p2
sS'functions'
p3
(dp4
S'View_showBoard'
p5
(dp6
S'ret_type'
p7
S''
p8
sS'args_type'
p9
(lp10
sS'inst_bytes'
p11
(lp12
(lp13
I85
aa(lp14
I72
aI137
aI229
aa(lp15
I72
aI131
aI236
aI16
aa(lp16
I191
aI10
aI0
aI0
aI0
aa(lp17
I232
aI62
aI252
aI255
aI255
aa(lp18
I199
aI69
aI252
aI0
aI0
aI0
aI0
aa(lp19
I233
aI187
aI0
aI0
aI0
aa(lp20
I199
aI69
aI248
aI0
aI0
aI0
aI0
aa(lp21
I233
aI161
aI0
aI0
aI0
aa(lp22
I139
aI69
aI248
aa(lp23
I72
aI152
aa(lp24
I139
aI85
aI252
aa(lp25
I72
aI99
aI210
aa(lp26
I72
aI193
aI226
aI2
aa(lp27
I72
aI1
aI208
aa(lp28
I72
aI141
aI20
aI133
aI0
aI0
aI0
aI0
aa(lp29
I72
aI141
aI5
aI117
aI44
aI0
aI0
aa(lp30
I139
aI4
aI2
aa(lp31
I133
aI192
aa(lp32
I116
aI75
aa(lp33
I139
aI69
aI248
aa(lp34
I72
aI152
aa(lp35
I139
aI85
aI252
aa(lp36
I72
aI99
aI210
aa(lp37
I72
aI193
aI226
aI2
aa(lp38
I72
aI1
aI208
aa(lp39
I72
aI141
aI20
aI133
aI0
aI0
aI0
aI0
aa(lp40
I72
aI141
aI5
aI77
aI44
aI0
aI0
aa(lp41
I139
aI20
aI2
aa(lp42
I131
aI125
aI248
aI3
aa(lp43
I116
aI9
aa(lp44
I72
aI141
aI5
aI165
aI11
aI0
aI0
aa(lp45
I235
aI7
aa(lp46
I72
aI141
aI5
aI162
aI11
aI0
aI0
aa(lp47
I137
aI214
aa(lp48
I72
aI137
aI199
aa(lp49
I184
aI0
aI0
aI0
aI0
aa(lp50
I232
aI197
aI251
aI255
aI255
aa(lp51
I235
aI42
aa(lp52
I131
aI125
aI248
aI3
aa(lp53
I116
aI9
aa(lp54
I72
aI141
aI5
aI139
aI11
aI0
aI0
aa(lp55
I235
aI7
aa(lp56
I72
aI141
aI5
aI136
aI11
aI0
aI0
aa(lp57
I72
aI141
aI53
aI136
aI11
aI0
aI0
aa(lp58
I72
aI137
aI199
aa(lp59
I184
aI0
aI0
aI0
aI0
aa(lp60
I232
aI153
aI251
aI255
aI255
aa(lp61
I131
aI69
aI248
aI1
aa(lp62
I131
aI125
aI248
aI3
aa(lp63
I15
aI142
aI85
aI255
aI255
aI255
aa(lp64
I131
aI69
aI252
aI1
aa(lp65
I131
aI125
aI252
aI3
aa(lp66
I15
aI142
aI59
aI255
aI255
aI255
aa(lp67
I191
aI10
aI0
aI0
aI0
aa(lp68
I232
aI99
aI251
aI255
aI255
aa(lp69
I144
aa(lp70
I201
aa(lp71
I195
aasS'boundaries'
p72
(I5088
I5328
tp73
sS'num_args'
p74
I0
sS'inst_strings'
p75
(lp76
ssS'Controller_getMove'
p77
(dp78
g7
g8
sg9
(lp79
sg11
(lp80
(lp81
I85
aa(lp82
I72
aI137
aI229
aa(lp83
I72
aI131
aI236
aI16
aa(lp84
I72
aI141
aI53
aI34
aI11
aI0
aI0
aa(lp85
I72
aI141
aI61
aI44
aI11
aI0
aI0
aa(lp86
I184
aI0
aI0
aI0
aI0
aa(lp87
I232
aI41
aI251
aI255
aI255
aa(lp88
I232
aI68
aI251
aI255
aI255
aa(lp89
I137
aI69
aI252
aa(lp90
I144
aa(lp91
I232
aI59
aI251
aI255
aI255
aa(lp92
I131
aI248
aI10
aa(lp93
I117
aI246
aa(lp94
I131
aI125
aI252
aI117
aa(lp95
I116
aI61
aa(lp96
I131
aI125
aI252
aI117
aa(lp97
I127
aI201
aa(lp98
I131
aI125
aI252
aI114
aa(lp99
I116
aI56
aa(lp100
I131
aI125
aI252
aI114
aa(lp101
I127
aI189
aa(lp102
I131
aI125
aI252
aI108
aa(lp103
I116
aI51
aa(lp104
I131
aI125
aI252
aI108
aa(lp105
I127
aI177
aa(lp106
I131
aI125
aI252
aI27
aa(lp107
I116
aI8
aa(lp108
I131
aI125
aI252
aI100
aa(lp109
I116
aI12
aa(lp110
I235
aI38
aa(lp111
I191
aI0
aI0
aI0
aI0
aa(lp112
I232
aI26
aI251
aI255
aI255
aa(lp113
I184
aI0
aI0
aI0
aI0
aa(lp114
I235
aI26
aa(lp115
I184
aI1
aI0
aI0
aI0
aa(lp116
I235
aI19
aa(lp117
I184
aI2
aI0
aI0
aI0
aa(lp118
I235
aI12
aa(lp119
I184
aI3
aI0
aI0
aI0
aa(lp120
I235
aI5
aa(lp121
I233
aI120
aI255
aI255
aI255
aa(lp122
I201
aa(lp123
I195
aasg72
(I5367
I5513
tp124
sg74
I0
sg75
g76
ssS'Game_update'
p125
(dp126
g7
g8
sg9
(lp127
sg11
(lp128
(lp129
I85
aa(lp130
I72
aI137
aI229
aa(lp131
I137
aI125
aI204
aa(lp132
I199
aI69
aI224
aI0
aI0
aI0
aI0
aa(lp133
I199
aI69
aI228
aI0
aI0
aI0
aI0
aa(lp134
I199
aI69
aI232
aI255
aI255
aI255
aI255
aa(lp135
I199
aI69
aI236
aI1
aI0
aI0
aI0
aa(lp136
I199
aI69
aI208
aI255
aI255
aI255
aI255
aa(lp137
I199
aI69
aI212
aI1
aI0
aI0
aI0
aa(lp138
I199
aI69
aI216
aI0
aI0
aI0
aI0
aa(lp139
I199
aI69
aI220
aI0
aI0
aI0
aI0
aa(lp140
I139
aI69
aI204
aa(lp141
I139
aI84
aI133
aI208
aa(lp142
I139
aI5
aI159
aI46
aI0
aI0
aa(lp143
I1
aI208
aa(lp144
I137
aI69
aI252
aa(lp145
I139
aI69
aI204
aa(lp146
I139
aI84
aI133
aI224
aa(lp147
I139
aI5
aI237
aI46
aI0
aI0
aa(lp148
I1
aI208
aa(lp149
I137
aI69
aI248
aa(lp150
I131
aI125
aI252
aI0
aa(lp151
I15
aI136
aI174
aI0
aI0
aI0
aa(lp152
I131
aI125
aI252
aI3
aa(lp153
I15
aI143
aI164
aI0
aI0
aI0
aa(lp154
I131
aI125
aI248
aI0
aa(lp155
I15
aI136
aI154
aI0
aI0
aI0
aa(lp156
I131
aI125
aI248
aI3
aa(lp157
I15
aI143
aI144
aI0
aI0
aI0
aa(lp158
I139
aI13
aI90
aI46
aI0
aI0
aa(lp159
I139
aI21
aI180
aI46
aI0
aI0
aa(lp160
I139
aI69
aI248
aa(lp161
I72
aI152
aa(lp162
I139
aI117
aI252
aa(lp163
I72
aI99
aI246
aa(lp164
I72
aI193
aI230
aI2
aa(lp165
I72
aI1
aI240
aa(lp166
I72
aI141
aI52
aI133
aI0
aI0
aI0
aI0
aa(lp167
I72
aI141
aI5
aI83
aI46
aI0
aI0
aa(lp168
I139
aI4
aI6
aa(lp169
I72
aI99
aI210
aa(lp170
I72
aI99
aI201
aa(lp171
I72
aI193
aI225
aI2
aa(lp172
I72
aI1
aI202
aa(lp173
I72
aI141
aI12
aI149
aI0
aI0
aI0
aI0
aa(lp174
I72
aI141
aI21
aI52
aI46
aI0
aI0
aa(lp175
I137
aI4
aI17
aa(lp176
I139
aI69
aI248
aa(lp177
I72
aI152
aa(lp178
I139
aI85
aI252
aa(lp179
I72
aI99
aI210
aa(lp180
I72
aI193
aI226
aI2
aa(lp181
I72
aI1
aI208
aa(lp182
I72
aI141
aI20
aI133
aI0
aI0
aI0
aI0
aa(lp183
I72
aI141
aI5
aI16
aI46
aI0
aI0
aa(lp184
I199
aI4
aI2
aI0
aI0
aI0
aI0
aa(lp185
I139
aI69
aI252
aa(lp186
I137
aI5
aI224
aI45
aI0
aI0
aa(lp187
I139
aI69
aI248
aa(lp188
I137
aI5
aI55
aI46
aI0
aI0
aa(lp189
I184
aI1
aI0
aI0
aI0
aa(lp190
I235
aI5
aa(lp191
I184
aI0
aI0
aI0
aI0
aa(lp192
I93
aa(lp193
I195
aasg72
(I4501
I4791
tp194
sg74
I1
sg75
g76
ssS'Controller_pause'
p195
(dp196
g7
g8
sg9
(lp197
sg11
(lp198
(lp199
I85
aa(lp200
I72
aI137
aI229
aa(lp201
I232
aI206
aI250
aI255
aI255
aa(lp202
I144
aa(lp203
I93
aa(lp204
I195
aasg72
(I5513
I5525
tp205
sg74
I0
sg75
g76
ssS'Game_isFinished'
p206
(dp207
g7
g8
sg9
(lp208
sg11
(lp209
(lp210
I85
aa(lp211
I72
aI137
aI229
aa(lp212
I199
aI69
aI244
aI1
aI0
aI0
aI0
aa(lp213
I199
aI69
aI252
aI0
aI0
aI0
aI0
aa(lp214
I235
aI85
aa(lp215
I199
aI69
aI248
aI0
aI0
aI0
aI0
aa(lp216
I235
aI66
aa(lp217
I131
aI125
aI244
aI15
aa(lp218
I127
aI56
aa(lp219
I139
aI69
aI248
aa(lp220
I72
aI152
aa(lp221
I139
aI85
aI252
aa(lp222
I72
aI99
aI210
aa(lp223
I72
aI193
aI226
aI2
aa(lp224
I72
aI1
aI208
aa(lp225
I72
aI141
aI20
aI133
aI0
aI0
aI0
aI0
aa(lp226
I72
aI141
aI5
aI242
aI44
aI0
aI0
aa(lp227
I139
aI12
aI2
aa(lp228
I139
aI69
aI244
aa(lp229
I141
aI80
aI1
aa(lp230
I137
aI85
aI244
aa(lp231
I57
aI193
aa(lp232
I116
aI7
aa(lp233
I184
aI0
aI0
aI0
aI0
aa(lp234
I235
aI25
aa(lp235
I131
aI69
aI248
aI1
aa(lp236
I131
aI125
aI248
aI3
aa(lp237
I126
aI184
aa(lp238
I131
aI69
aI252
aI1
aa(lp239
I131
aI125
aI252
aI3
aa(lp240
I126
aI165
aa(lp241
I184
aI1
aI0
aI0
aI0
aa(lp242
I93
aa(lp243
I195
aasg72
(I4970
I5088
tp244
sg74
I0
sg75
g76
ssS'Game_setup'
p245
(dp246
g7
g8
sg9
(lp247
sg11
(lp248
(lp249
I85
aa(lp250
I72
aI137
aI229
aa(lp251
I72
aI131
aI236
aI16
aa(lp252
I199
aI69
aI252
aI0
aI0
aI0
aI0
aa(lp253
I235
aI77
aa(lp254
I199
aI69
aI248
aI0
aI0
aI0
aI0
aa(lp255
I235
aI58
aa(lp256
I139
aI69
aI252
aa(lp257
I141
aI20
aI133
aI0
aI0
aI0
aI0
aa(lp258
I139
aI69
aI248
aa(lp259
I1
aI208
aa(lp260
I141
aI72
aI1
aa(lp261
I139
aI69
aI248
aa(lp262
I72
aI152
aa(lp263
I139
aI85
aI252
aa(lp264
I72
aI99
aI210
aa(lp265
I72
aI193
aI226
aI2
aa(lp266
I72
aI1
aI208
aa(lp267
I72
aI141
aI20
aI133
aI0
aI0
aI0
aI0
aa(lp268
I72
aI141
aI5
aI156
aI45
aI0
aI0
aa(lp269
I137
aI12
aI2
aa(lp270
I131
aI69
aI248
aI1
aa(lp271
I131
aI125
aI248
aI3
aa(lp272
I126
aI192
aa(lp273
I131
aI69
aI252
aI1
aa(lp274
I131
aI125
aI252
aI3
aa(lp275
I126
aI173
aa(lp276
I199
aI5
aI183
aI45
aI0
aI0
aI0
aa(lp277
I0
aI0
aI0
aa(lp278
I199
aI5
aI81
aI45
aI0
aI0
aI3
aa(lp279
I0
aI0
aI0
aa(lp280
I199
aI5
aI167
aI45
aI0
aI0
aI3
aa(lp281
I0
aI0
aI0
aa(lp282
I199
aI69
aI244
aI0
aI0
aI0
aI0
aa(lp283
I235
aI26
aa(lp284
I232
aI73
aI253
aI255
aI255
aa(lp285
I153
aa(lp286
I193
aI234
aI30
aa(lp287
I1
aI208
aa(lp288
I131
aI224
aI3
aa(lp289
I41
aI208
aa(lp290
I137
aI199
aa(lp291
I232
aI60
aI254
aI255
aI255
aa(lp292
I1
aI69
aI244
aa(lp293
I184
aI100
aI0
aI0
aI0
aa(lp294
I57
aI69
aI244
aa(lp295
I124
aI220
aa(lp296
I144
aa(lp297
I144
aa(lp298
I201
aa(lp299
I195
aasg72
(I4791
I4970
tp300
sg74
I0
sg75
g76
ssS'main'
p301
(dp302
g7
g8
sg9
(lp303
sg11
(lp304
(lp305
I85
aa(lp306
I72
aI137
aI229
aa(lp307
I191
aI0
aI0
aI0
aI0
aa(lp308
I232
aI205
aI250
aI255
aI255
aa(lp309
I137
aI199
aa(lp310
I232
aI166
aI250
aI255
aI255
aa(lp311
I232
aI8
aI253
aI255
aI255
aa(lp312
I232
aI182
aI253
aI255
aI255
aa(lp313
I133
aI192
aa(lp314
I117
aI242
aa(lp315
I184
aI0
aI0
aI0
aI0
aa(lp316
I232
aI30
aI254
aI255
aI255
aa(lp317
I235
aI22
aa(lp318
I232
aI46
aI255
aI255
aI255
aa(lp319
I137
aI199
aa(lp320
I232
aI197
aI251
aI255
aI255
aa(lp321
I184
aI0
aI0
aI0
aI0
aa(lp322
I232
aI6
aI254
aI255
aI255
aa(lp323
I232
aI139
aI253
aI255
aI255
aa(lp324
I133
aI192
aa(lp325
I116
aI225
aa(lp326
I72
aI141
aI61
aI82
aI10
aI0
aI0
aa(lp327
I232
aI225
aI254
aI255
aI255
aa(lp328
I232
aI149
aI255
aI255
aI255
aa(lp329
I184
aI0
aI0
aI0
aI0
aa(lp330
I93
aa(lp331
I195
aasg72
(I5525
I5627
tp332
sg74
I0
sg75
g76
ssS'View_displayMessage'
p333
(dp334
g7
g8
sg9
(lp335
sg11
(lp336
(lp337
I85
aa(lp338
I72
aI137
aI229
aa(lp339
I72
aI131
aI236
aI16
aa(lp340
I72
aI137
aI125
aI248
aa(lp341
I72
aI139
aI69
aI248
aa(lp342
I72
aI137
aI198
aa(lp343
I72
aI141
aI61
aI57
aI11
aI0
aI0
aa(lp344
I184
aI0
aI0
aI0
aI0
aa(lp345
I232
aI76
aI251
aI255
aI255
aa(lp346
I144
aa(lp347
I201
aa(lp348
I195
aasg72
(I5328
I5367
tp349
sg74
I1
sg75
g76
sssS'function_calls'
p350
(dp351
sS'binary_filename'
p352
S'15puzzlegcc'
p353
sS'structures'
p354
(dp355
sS'extern_functions'
p356
(dp357
sS'arch'
p358
S'amd64'
p359
sS'bin_raw_bytes'
p360
g8
s.