(dp0
S'text_addr'
p1
S'0x10c0'
p2
sS'functions'
p3
(dp4
S'walk_board'
p5
(dp6
S'ret_type'
p7
S''
p8
sS'args_type'
p9
(lp10
sS'inst_bytes'
p11
(lp12
(lp13
I85
aa(lp14
I72
aI137
aI229
aa(lp15
I72
aI131
aI236
aI64
aa(lp16
I137
aI125
aI220
aa(lp17
I137
aI117
aI216
aa(lp18
I137
aI85
aI212
aa(lp19
I137
aI77
aI208
aa(lp20
I76
aI137
aI69
aI200
aa(lp21
I199
aI69
aI236
aI0
aI0
aI0
aI0
aa(lp22
I139
aI69
aI212
aa(lp23
I1
aI192
aa(lp24
I141
aI80
aI1
aa(lp25
I139
aI69
aI208
aa(lp26
I131
aI192
aI1
aa(lp27
I137
aI198
aa(lp28
I72
aI141
aI61
aI225
aI11
aI0
aI0
aa(lp29
I184
aI0
aI0
aI0
aI0
aa(lp30
I232
aI15
aI252
aI255
aI255
aa(lp31
I139
aI69
aI208
aa(lp32
I72
aI152
aa(lp33
I72
aI141
aI20
aI197
aI0
aI0
aI0
aI0
aa(lp34
I72
aI139
aI69
aI200
aa(lp35
I72
aI1
aI208
aa(lp36
I72
aI139
aI16
aa(lp37
I139
aI69
aI212
aa(lp38
I72
aI152
aa(lp39
I72
aI1
aI208
aa(lp40
I198
aI0
aI255
aa(lp41
I199
aI69
aI252
aI0
aI0
aI0
aI0
aa(lp42
I235
aI93
aa(lp43
I139
aI69
aI252
aa(lp44
I72
aI152
aa(lp45
I72
aI141
aI20
aI133
aI0
aI0
aI0
aI0
aa(lp46
I72
aI141
aI5
aI48
aI44
aI0
aI0
aa(lp47
I139
aI20
aI2
aa(lp48
I139
aI69
aI208
aa(lp49
I1
aI208
aa(lp50
I72
aI152
aa(lp51
I72
aI141
aI20
aI197
aI0
aI0
aI0
aI0
aa(lp52
I72
aI139
aI69
aI200
aa(lp53
I72
aI1
aI208
aa(lp54
I72
aI139
aI16
aa(lp55
I139
aI69
aI252
aa(lp56
I72
aI152
aa(lp57
I72
aI141
aI12
aI133
aI0
aI0
aI0
aI0
aa(lp58
I72
aI141
aI5
aI224
aI43
aI0
aI0
aa(lp59
I139
aI12
aI1
aa(lp60
I139
aI69
aI212
aa(lp61
I1
aI200
aa(lp62
I72
aI152
aa(lp63
I72
aI1
aI208
aa(lp64
I15
aI182
aI16
aa(lp65
I131
aI234
aI1
aa(lp66
I136
aI16
aa(lp67
I131
aI69
aI252
aI1
aa(lp68
I131
aI125
aI252
aI7
aa(lp69
I126
aI157
aa(lp70
I199
aI69
aI240
aI255
aI0
aI0
aI0
aa(lp71
I199
aI69
aI252
aI0
aI0
aI0
aI0
aa(lp72
I233
aI198
aI0
aI0
aI0
aa(lp73
I139
aI69
aI252
aa(lp74
I72
aI152
aa(lp75
I72
aI141
aI20
aI133
aI0
aI0
aI0
aI0
aa(lp76
I72
aI141
aI5
aI186
aI43
aI0
aI0
aa(lp77
I139
aI20
aI2
aa(lp78
I139
aI69
aI208
aa(lp79
I1
aI208
aa(lp80
I72
aI152
aa(lp81
I72
aI141
aI20
aI197
aI0
aI0
aI0
aI0
aa(lp82
I72
aI139
aI69
aI200
aa(lp83
I72
aI1
aI208
aa(lp84
I72
aI139
aI16
aa(lp85
I139
aI69
aI252
aa(lp86
I72
aI152
aa(lp87
I72
aI141
aI12
aI133
aI0
aI0
aI0
aI0
aa(lp88
I72
aI141
aI5
aI106
aI43
aI0
aI0
aa(lp89
I139
aI12
aI1
aa(lp90
I139
aI69
aI212
aa(lp91
I1
aI200
aa(lp92
I72
aI152
aa(lp93
I72
aI1
aI208
aa(lp94
I15
aI182
aI0
aa(lp95
I15
aI182
aI192
aa(lp96
I57
aI69
aI240
aa(lp97
I126
aI102
aa(lp98
I139
aI69
aI252
aa(lp99
I72
aI152
aa(lp100
I72
aI141
aI20
aI133
aI0
aI0
aI0
aI0
aa(lp101
I72
aI141
aI5
aI62
aI43
aI0
aI0
aa(lp102
I139
aI20
aI2
aa(lp103
I139
aI69
aI212
aa(lp104
I1
aI208
aa(lp105
I137
aI69
aI248
aa(lp106
I139
aI69
aI252
aa(lp107
I72
aI152
aa(lp108
I72
aI141
aI20
aI133
aI0
aI0
aI0
aI0
aa(lp109
I72
aI141
aI5
aI63
aI43
aI0
aI0
aa(lp110
I139
aI20
aI2
aa(lp111
I139
aI69
aI208
aa(lp112
I1
aI208
aa(lp113
I137
aI69
aI244
aa(lp114
I139
aI69
aI244
aa(lp115
I72
aI152
aa(lp116
I72
aI141
aI20
aI197
aI0
aI0
aI0
aI0
aa(lp117
I72
aI139
aI69
aI200
aa(lp118
I72
aI1
aI208
aa(lp119
I72
aI139
aI16
aa(lp120
I139
aI69
aI248
aa(lp121
I72
aI152
aa(lp122
I72
aI1
aI208
aa(lp123
I15
aI182
aI0
aa(lp124
I15
aI182
aI192
aa(lp125
I137
aI69
aI240
aa(lp126
I131
aI69
aI252
aI1
aa(lp127
I131
aI125
aI252
aI7
aa(lp128
I15
aI142
aI48
aI255
aI255
aI255
aa(lp129
I131
aI125
aI240
aI7
aa(lp130
I126
aI46
aa(lp131
I139
aI69
aI216
aa(lp132
I131
aI192
aI2
aa(lp133
I137
aI198
aa(lp134
I72
aI141
aI61
aI106
aI10
aI0
aI0
aa(lp135
I184
aI0
aI0
aI0
aI0
aa(lp136
I232
aI127
aI250
aI255
aI255
aa(lp137
I139
aI69
aI220
aa(lp138
I15
aI175
aI69
aI216
aa(lp139
I131
aI232
aI1
aa(lp140
I57
aI69
aI236
aa(lp141
I15
aI148
aI192
aa(lp142
I15
aI182
aI192
aa(lp143
I235
aI121
aa(lp144
I139
aI69
aI236
aa(lp145
I141
aI80
aI1
aa(lp146
I137
aI85
aI236
aa(lp147
I133
aI192
aa(lp148
I116
aI33
aa(lp149
I139
aI69
aI212
aa(lp150
I1
aI192
aa(lp151
I141
aI80
aI1
aa(lp152
I139
aI69
aI208
aa(lp153
I131
aI192
aI1
aa(lp154
I137
aI198
aa(lp155
I72
aI141
aI61
aI45
aI10
aI0
aI0
aa(lp156
I184
aI0
aI0
aI0
aI0
aa(lp157
I232
aI60
aI250
aI255
aI255
aa(lp158
I139
aI69
aI248
aa(lp159
I137
aI69
aI212
aa(lp160
I139
aI69
aI244
aa(lp161
I137
aI69
aI208
aa(lp162
I139
aI69
aI212
aa(lp163
I1
aI192
aa(lp164
I141
aI80
aI1
aa(lp165
I139
aI69
aI208
aa(lp166
I131
aI192
aI1
aa(lp167
I137
aI198
aa(lp168
I72
aI141
aI61
aI11
aI10
aI0
aI0
aa(lp169
I184
aI0
aI0
aI0
aI0
aa(lp170
I232
aI15
aI250
aI255
aI255
aa(lp171
I72
aI139
aI5
aI136
aI42
aI0
aI0
aa(lp172
I72
aI137
aI199
aa(lp173
I232
aI64
aI250
aI255
aI255
aa(lp174
I191
aI192
aI212
aI1
aI0
aa(lp175
I232
aI86
aI250
aI255
aI255
aa(lp176
I233
aI226
aI253
aI255
aI255
aa(lp177
I201
aa(lp178
I195
aasS'boundaries'
p179
(I5105
I5713
tp180
sS'num_args'
p181
I5
sS'inst_strings'
p182
(lp183
ssS'main'
p184
(dp185
g7
g8
sg9
(lp186
sg11
(lp187
(lp188
I85
aa(lp189
I72
aI137
aI229
aa(lp190
I72
aI131
aI236
aI32
aa(lp191
I137
aI125
aI236
aa(lp192
I72
aI137
aI117
aI224
aa(lp193
I131
aI125
aI236
aI1
aa(lp194
I126
aI28
aa(lp195
I72
aI139
aI69
aI224
aa(lp196
I72
aI131
aI192
aI8
aa(lp197
I72
aI139
aI0
aa(lp198
I72
aI137
aI199
aa(lp199
I232
aI29
aI249
aI255
aI255
aa(lp200
I137
aI69
aI252
aa(lp201
I131
aI125
aI252
aI0
aa(lp202
I127
aI7
aa(lp203
I199
aI69
aI252
aI8
aI0
aI0
aI0
aa(lp204
I131
aI125
aI236
aI2
aa(lp205
I126
aI28
aa(lp206
I72
aI139
aI69
aI224
aa(lp207
I72
aI131
aI192
aI16
aa(lp208
I72
aI139
aI0
aa(lp209
I72
aI137
aI199
aa(lp210
I232
aI244
aI248
aI255
aI255
aa(lp211
I137
aI69
aI248
aa(lp212
I131
aI125
aI248
aI0
aa(lp213
I127
aI6
aa(lp214
I139
aI69
aI252
aa(lp215
I137
aI69
aI248
aa(lp216
I139
aI85
aI248
aa(lp217
I139
aI69
aI252
aa(lp218
I137
aI214
aa(lp219
I137
aI199
aa(lp220
I232
aI151
aI254
aI255
aI255
aa(lp221
I184
aI0
aI0
aI0
aI0
aa(lp222
I201
aa(lp223
I195
aasg179
(I5963
I6081
tp224
sg181
I2
sg182
g183
ssS'solve'
p225
(dp226
g7
g8
sg9
(lp227
sg11
(lp228
(lp229
I85
aa(lp230
I72
aI137
aI229
aa(lp231
I72
aI131
aI236
aI48
aa(lp232
I137
aI125
aI220
aa(lp233
I137
aI117
aI216
aa(lp234
I199
aI69
aI252
aI0
aI0
aI0
aI0
aa(lp235
I199
aI69
aI248
aI0
aI0
aI0
aI0
aa(lp236
I139
aI69
aI220
aa(lp237
I141
aI80
aI4
aa(lp238
I139
aI69
aI216
aa(lp239
I131
aI192
aI4
aa(lp240
I15
aI175
aI194
aa(lp241
I72
aI152
aa(lp242
I139
aI85
aI216
aa(lp243
I131
aI194
aI4
aa(lp244
I72
aI99
aI210
aa(lp245
I72
aI193
aI226
aI3
aa(lp246
I72
aI1
aI208
aa(lp247
I72
aI137
aI199
aa(lp248
I232
aI218
aI249
aI255
aI255
aa(lp249
I72
aI137
aI69
aI240
aa(lp250
I139
aI69
aI216
aa(lp251
I131
aI192
aI4
aa(lp252
I72
aI152
aa(lp253
I72
aI193
aI224
aI3
aa(lp254
I72
aI137
aI199
aa(lp255
I232
aI194
aI249
aI255
aI255
aa(lp256
I72
aI137
aI69
aI232
aa(lp257
I72
aI139
aI77
aI232
aa(lp258
I72
aI139
aI85
aI240
aa(lp259
I139
aI117
aI216
aa(lp260
I139
aI69
aI220
aa(lp261
I137
aI199
aa(lp262
I232
aI222
aI250
aI255
aI255
aa(lp263
I72
aI139
aI69
aI232
aa(lp264
I72
aI141
aI120
aI16
aa(lp265
I139
aI77
aI248
aa(lp266
I139
aI85
aI252
aa(lp267
I139
aI117
aI216
aa(lp268
I139
aI69
aI220
aa(lp269
I73
aI137
aI248
aa(lp270
I137
aI199
aa(lp271
I232
aI12
aI253
aI255
aI255
aa(lp272
I133
aI192
aa(lp273
I116
aI19
aa(lp274
I72
aI141
aI61
aI85
aI9
aI0
aI0
aa(lp275
I232
aI59
aI249
aI255
aI255
aa(lp276
I184
aI1
aI0
aI0
aI0
aa(lp277
I235
aI77
aa(lp278
I131
aI69
aI252
aI1
aa(lp279
I139
aI69
aI252
aa(lp280
I59
aI69
aI220
aa(lp281
I124
aI11
aa(lp282
I199
aI69
aI252
aI0
aI0
aI0
aI0
aa(lp283
I131
aI69
aI248
aI1
aa(lp284
I139
aI69
aI248
aa(lp285
I59
aI69
aI216
aa(lp286
I124
aI19
aa(lp287
I72
aI141
aI61
aI44
aI9
aI0
aI0
aa(lp288
I232
aI9
aI249
aI255
aI255
aa(lp289
I184
aI0
aI0
aI0
aI0
aa(lp290
I235
aI27
aa(lp291
I72
aI141
aI61
aI51
aI9
aI0
aI0
aa(lp292
I184
aI0
aI0
aI0
aI0
aa(lp293
I232
aI1
aI249
aI255
aI255
aa(lp294
I232
aI28
aI249
aI255
aI255
aa(lp295
I233
aI105
aI255
aI255
aI255
aa(lp296
I201
aa(lp297
I195
aasg179
(I5713
I5963
tp298
sg181
I2
sg182
g183
ssS'init_board'
p299
(dp300
g7
g8
sg9
(lp301
sg11
(lp302
(lp303
I85
aa(lp304
I72
aI137
aI229
aa(lp305
I72
aI131
aI236
aI64
aa(lp306
I137
aI125
aI220
aa(lp307
I137
aI117
aI216
aa(lp308
I72
aI137
aI85
aI208
aa(lp309
I72
aI137
aI77
aI200
aa(lp310
I139
aI69
aI220
aa(lp311
I131
aI192
aI4
aa(lp312
I137
aI69
aI240
aa(lp313
I139
aI69
aI216
aa(lp314
I131
aI192
aI4
aa(lp315
I137
aI69
aI236
aa(lp316
I139
aI69
aI236
aa(lp317
I72
aI152
aa(lp318
I72
aI141
aI20
aI197
aI0
aI0
aI0
aI0
aa(lp319
I72
aI139
aI69
aI208
aa(lp320
I72
aI1
aI194
aa(lp321
I72
aI139
aI69
aI208
aa(lp322
I72
aI137
aI16
aa(lp323
I72
aI139
aI69
aI208
aa(lp324
I72
aI139
aI0
aa(lp325
I72
aI141
aI80
aI2
aa(lp326
I72
aI139
aI69
aI200
aa(lp327
I72
aI137
aI16
aa(lp328
I199
aI69
aI252
aI1
aI0
aI0
aI0
aa(lp329
I235
aI109
aa(lp330
I139
aI69
aI252
aa(lp331
I72
aI152
aa(lp332
I72
aI193
aI224
aI3
aa(lp333
I72
aI141
aI80
aI248
aa(lp334
I72
aI139
aI69
aI208
aa(lp335
I72
aI1
aI208
aa(lp336
I72
aI139
aI8
aa(lp337
I139
aI69
aI240
aa(lp338
I72
aI99
aI208
aa(lp339
I139
aI69
aI252
aa(lp340
I72
aI152
aa(lp341
I72
aI141
aI52
aI197
aI0
aI0
aI0
aI0
aa(lp342
I72
aI139
aI69
aI208
aa(lp343
I72
aI1
aI240
aa(lp344
I72
aI1
aI202
aa(lp345
I72
aI137
aI16
aa(lp346
I139
aI69
aI252
aa(lp347
I72
aI152
aa(lp348
I72
aI141
aI20
aI197
aI0
aI0
aI0
aI0
aa(lp349
I72
aI139
aI69
aI208
aa(lp350
I72
aI1
aI208
aa(lp351
I72
aI139
aI16
aa(lp352
I139
aI69
aI252
aa(lp353
I72
aI152
aa(lp354
I72
aI141
aI12
aI197
aI0
aI0
aI0
aI0
aa(lp355
I72
aI139
aI69
aI200
aa(lp356
I72
aI1
aI200
aa(lp357
I72
aI131
aI194
aI2
aa(lp358
I72
aI137
aI16
aa(lp359
I131
aI69
aI252
aI1
aa(lp360
I139
aI69
aI252
aa(lp361
I59
aI69
aI236
aa(lp362
I124
aI139
aa(lp363
I139
aI69
aI240
aa(lp364
I15
aI175
aI69
aI236
aa(lp365
I72
aI99
aI208
aa(lp366
I72
aI139
aI69
aI208
aa(lp367
I72
aI139
aI0
aa(lp368
I190
aI255
aI0
aI0
aI0
aa(lp369
I72
aI137
aI199
aa(lp370
I232
aI186
aI253
aI255
aI255
aa(lp371
I199
aI69
aI252
aI0
aI0
aI0
aI0
aa(lp372
I233
aI63
aI1
aI0
aI0
aa(lp373
I199
aI69
aI248
aI0
aI0
aI0
aI0
aa(lp374
I233
aI35
aI1
aI0
aI0
aa(lp375
I199
aI69
aI244
aI0
aI0
aI0
aI0
aa(lp376
I233
aI9
aI1
aI0
aI0
aa(lp377
I139
aI69
aI244
aa(lp378
I72
aI152
aa(lp379
I72
aI141
aI20
aI133
aI0
aI0
aI0
aI0
aa(lp380
I72
aI141
aI5
aI178
aI45
aI0
aI0
aa(lp381
I139
aI20
aI2
aa(lp382
I139
aI69
aI248
aa(lp383
I1
aI208
aa(lp384
I137
aI69
aI232
aa(lp385
I139
aI69
aI244
aa(lp386
I72
aI152
aa(lp387
I72
aI141
aI20
aI133
aI0
aI0
aI0
aI0
aa(lp388
I72
aI141
aI5
aI179
aI45
aI0
aI0
aa(lp389
I139
aI20
aI2
aa(lp390
I139
aI69
aI252
aa(lp391
I1
aI208
aa(lp392
I137
aI69
aI228
aa(lp393
I139
aI69
aI252
aa(lp394
I72
aI152
aa(lp395
I72
aI131
aI192
aI2
aa(lp396
I72
aI141
aI20
aI197
aI0
aI0
aI0
aI0
aa(lp397
I72
aI139
aI69
aI200
aa(lp398
I72
aI1
aI208
aa(lp399
I72
aI139
aI16
aa(lp400
I139
aI69
aI248
aa(lp401
I72
aI152
aa(lp402
I72
aI1
aI208
aa(lp403
I15
aI182
aI0
aa(lp404
I60
aI255
aa(lp405
I117
aI38
aa(lp406
I139
aI69
aI252
aa(lp407
I72
aI152
aa(lp408
I72
aI131
aI192
aI2
aa(lp409
I72
aI141
aI20
aI197
aI0
aI0
aI0
aI0
aa(lp410
I72
aI139
aI69
aI200
aa(lp411
I72
aI1
aI208
aa(lp412
I72
aI139
aI16
aa(lp413
I139
aI69
aI248
aa(lp414
I72
aI152
aa(lp415
I72
aI1
aI208
aa(lp416
I198
aI0
aI0
aa(lp417
I139
aI69
aI252
aa(lp418
I72
aI152
aa(lp419
I72
aI131
aI192
aI2
aa(lp420
I72
aI141
aI20
aI197
aI0
aI0
aI0
aI0
aa(lp421
I72
aI139
aI69
aI200
aa(lp422
I72
aI1
aI208
aa(lp423
I72
aI139
aI16
aa(lp424
I139
aI69
aI248
aa(lp425
I72
aI152
aa(lp426
I72
aI1
aI208
aa(lp427
I15
aI182
aI16
aa(lp428
I131
aI125
aI232
aI0
aa(lp429
I120
aI29
aa(lp430
I139
aI69
aI232
aa(lp431
I59
aI69
aI220
aa(lp432
I125
aI21
aa(lp433
I131
aI125
aI228
aI0
aa(lp434
I120
aI15
aa(lp435
I139
aI69
aI228
aa(lp436
I59
aI69
aI216
aa(lp437
I125
aI7
aa(lp438
I184
aI1
aI0
aI0
aI0
aa(lp439
I235
aI5
aa(lp440
I184
aI0
aI0
aI0
aI0
aa(lp441
I137
aI198
aa(lp442
I139
aI69
aI252
aa(lp443
I72
aI152
aa(lp444
I72
aI131
aI192
aI2
aa(lp445
I72
aI141
aI12
aI197
aI0
aI0
aI0
aI0
aa(lp446
I72
aI139
aI69
aI200
aa(lp447
I72
aI1
aI200
aa(lp448
I72
aI139
aI8
aa(lp449
I139
aI69
aI248
aa(lp450
I72
aI152
aa(lp451
I72
aI1
aI200
aa(lp452
I1
aI242
aa(lp453
I136
aI16
aa(lp454
I131
aI69
aI244
aI1
aa(lp455
I131
aI125
aI244
aI7
aa(lp456
I15
aI142
aI237
aI254
aI255
aI255
aa(lp457
I131
aI69
aI248
aI1
aa(lp458
I139
aI69
aI248
aa(lp459
I59
aI69
aI220
aa(lp460
I15
aI140
aI209
aI254
aI255
aI255
aa(lp461
I131
aI69
aI252
aI1
aa(lp462
I139
aI69
aI252
aa(lp463
I59
aI69
aI216
aa(lp464
I15
aI140
aI181
aI254
aI255
aI255
aa(lp465
I144
aa(lp466
I144
aa(lp467
I201
aa(lp468
I195
aasg179
(I4517
I5105
tp469
sg181
I4
sg182
g183
sssS'function_calls'
p470
(dp471
sS'binary_filename'
p472
S'knightgcc'
p473
sS'structures'
p474
(dp475
sS'extern_functions'
p476
(dp477
sS'arch'
p478
S'amd64'
p479
sS'bin_raw_bytes'
p480
g8
s.