(dp0
S'text_addr'
p1
S'0x10c0'
p2
sS'functions'
p3
(dp4
S'printseq'
p5
(dp6
S'ret_type'
p7
S''
p8
sS'args_type'
p9
(lp10
sS'inst_bytes'
p11
(lp12
(lp13
I85
aa(lp14
I72
aI137
aI229
aa(lp15
I72
aI131
aI236
aI32
aa(lp16
I137
aI125
aI236
aa(lp17
I199
aI69
aI252
aI2
aI0
aI0
aI0
aa(lp18
I235
aI42
aa(lp19
I139
aI69
aI252
aa(lp20
I139
aI85
aI236
aa(lp21
I137
aI193
aa(lp22
I211
aI250
aa(lp23
I137
aI208
aa(lp24
I131
aI224
aI1
aa(lp25
I133
aI192
aa(lp26
I116
aI7
aa(lp27
I184
aI104
aI0
aI0
aI0
aa(lp28
I235
aI5
aa(lp29
I184
aI116
aI0
aI0
aI0
aa(lp30
I137
aI199
aa(lp31
I232
aI222
aI253
aI255
aI255
aa(lp32
I131
aI109
aI252
aI1
aa(lp33
I131
aI125
aI252
aI0
aa(lp34
I121
aI208
aa(lp35
I144
aa(lp36
I144
aa(lp37
I201
aa(lp38
I195
aasS'boundaries'
p39
(I4632
I4704
tp40
sS'num_args'
p41
I1
sS'inst_strings'
p42
(lp43
ssS'getai'
p44
(dp45
g7
g8
sg9
(lp46
sg11
(lp47
(lp48
I85
aa(lp49
I72
aI137
aI229
aa(lp50
I72
aI131
aI236
aI32
aa(lp51
I137
aI125
aI236
aa(lp52
I190
aI3
aI0
aI0
aI0
aa(lp53
I72
aI141
aI61
aI104
aI13
aI0
aI0
aa(lp54
I184
aI0
aI0
aI0
aI0
aa(lp55
I232
aI91
aI253
aI255
aI255
aa(lp56
I131
aI125
aI236
aI255
aa(lp57
I117
aI13
aa(lp58
I232
aI160
aI253
aI255
aI255
aa(lp59
I131
aI224
aI7
aa(lp60
I137
aI69
aI252
aa(lp61
I235
aI22
aa(lp62
I139
aI69
aI236
aa(lp63
I209
aI248
aa(lp64
I137
aI194
aa(lp65
I139
aI69
aI236
aa(lp66
I247
aI208
aa(lp67
I1
aI192
aa(lp68
I131
aI224
aI4
aa(lp69
I9
aI208
aa(lp70
I137
aI69
aI252
aa(lp71
I139
aI69
aI252
aa(lp72
I137
aI199
aa(lp73
I232
aI240
aI254
aI255
aI255
aa(lp74
I191
aI10
aI0
aI0
aI0
aa(lp75
I232
aI254
aI252
aI255
aI255
aa(lp76
I139
aI69
aI252
aa(lp77
I201
aa(lp78
I195
aasg39
(I4820
I4919
tp79
sg41
I1
sg42
g43
ssS'getuser'
p80
(dp81
g7
g8
sg9
(lp82
sg11
(lp83
(lp84
I85
aa(lp85
I72
aI137
aI229
aa(lp86
I72
aI131
aI236
aI16
aa(lp87
I190
aI3
aI0
aI0
aI0
aa(lp88
I72
aI141
aI61
aI148
aI13
aI0
aI0
aa(lp89
I184
aI0
aI0
aI0
aI0
aa(lp90
I232
aI210
aI253
aI255
aI255
aa(lp91
I72
aI141
aI69
aI248
aa(lp92
I72
aI137
aI198
aa(lp93
I72
aI141
aI61
aI158
aI13
aI0
aI0
aa(lp94
I184
aI0
aI0
aI0
aI0
aa(lp95
I232
aI234
aI253
aI255
aI255
aa(lp96
I131
aI248
aI1
aa(lp97
I116
aI10
aa(lp98
I191
aI1
aI0
aI0
aI0
aa(lp99
I232
aI235
aI253
aI255
aI255
aa(lp100
I72
aI141
aI69
aI248
aa(lp101
I72
aI137
aI199
aa(lp102
I232
aI244
aI254
aI255
aI255
aa(lp103
I137
aI69
aI252
aa(lp104
I131
aI125
aI252
aI255
aa(lp105
I116
aI5
aa(lp106
I139
aI69
aI252
aa(lp107
I235
aI19
aa(lp108
I72
aI141
aI61
aI106
aI13
aI0
aI0
aa(lp109
I184
aI0
aI0
aI0
aI0
aa(lp110
I232
aI128
aI253
aI255
aI255
aa(lp111
I235
aI172
aa(lp112
I201
aa(lp113
I195
aasg39
(I4704
I4820
tp114
sg41
I0
sg42
g43
ssS'rungame'
p115
(dp116
g7
g8
sg9
(lp117
sg11
(lp118
(lp119
I85
aa(lp120
I72
aI137
aI229
aa(lp121
I83
aa(lp122
I72
aI131
aI236
aI40
aa(lp123
I137
aI125
aI220
aa(lp124
I137
aI117
aI216
aa(lp125
I232
aI85
aI253
aI255
aI255
aa(lp126
I131
aI224
aI7
aa(lp127
I137
aI69
aI236
aa(lp128
I72
aI141
aI61
aI25
aI13
aI0
aI0
aa(lp129
I184
aI0
aI0
aI0
aI0
aa(lp130
I232
aI238
aI252
aI255
aI255
aa(lp131
I139
aI69
aI236
aa(lp132
I137
aI199
aa(lp133
I232
aI172
aI254
aI255
aI255
aa(lp134
I139
aI69
aI220
aa(lp135
I59
aI69
aI236
aa(lp136
I117
aI19
aa(lp137
I72
aI141
aI61
aI8
aI13
aI0
aI0
aa(lp138
I232
aI192
aI252
aI255
aI255
aa(lp139
I184
aI1
aI0
aI0
aI0
aa(lp140
I235
aI81
aa(lp141
I139
aI69
aI216
aa(lp142
I59
aI69
aI236
aa(lp143
I117
aI19
aa(lp144
I72
aI141
aI61
aI249
aI12
aI0
aI0
aa(lp145
I232
aI165
aI252
aI255
aI255
aa(lp146
I184
aI0
aI0
aI0
aI0
aa(lp147
I235
aI54
aa(lp148
I139
aI69
aI236
aa(lp149
I1
aI192
aa(lp150
I131
aI224
aI6
aa(lp151
I137
aI195
aa(lp152
I232
aI239
aI252
aI255
aI255
aa(lp153
I131
aI224
aI1
aa(lp154
I9
aI216
aa(lp155
I137
aI69
aI236
aa(lp156
I139
aI69
aI236
aa(lp157
I131
aI224
aI1
aa(lp158
I133
aI192
aa(lp159
I116
aI7
aa(lp160
I184
aI104
aI0
aI0
aI0
aa(lp161
I235
aI5
aa(lp162
I184
aI116
aI0
aI0
aI0
aa(lp163
I137
aI199
aa(lp164
I232
aI90
aI252
aI255
aI255
aa(lp165
I235
aI148
aa(lp166
I72
aI131
aI196
aI40
aa(lp167
I91
aa(lp168
I93
aa(lp169
I195
aasg39
(I4919
I5087
tp170
sg41
I2
sg42
g43
ssS'main'
p171
(dp172
g7
g8
sg9
(lp173
sg11
(lp174
(lp175
I85
aa(lp176
I72
aI137
aI229
aa(lp177
I72
aI131
aI236
aI16
aa(lp178
I199
aI69
aI252
aI0
aI0
aI0
aI0
aa(lp179
I199
aI69
aI248
aI0
aI0
aI0
aI0
aa(lp180
I191
aI0
aI0
aI0
aI0
aa(lp181
I232
aI113
aI252
aI255
aI255
aa(lp182
I137
aI199
aa(lp183
I232
aI90
aI252
aI255
aI255
aa(lp184
I199
aI69
aI244
aI255
aI255
aI255
aI255
aa(lp185
I199
aI69
aI240
aI255
aI255
aI255
aI255
aa(lp186
I191
aI10
aI0
aI0
aI0
aa(lp187
I232
aI18
aI252
aI255
aI255
aa(lp188
I232
aI125
aI252
aI255
aI255
aa(lp189
I131
aI224
aI1
aa(lp190
I133
aI192
aa(lp191
I116
aI23
aa(lp192
I139
aI69
aI244
aa(lp193
I137
aI199
aa(lp194
I232
aI160
aI254
aI255
aI255
aa(lp195
I137
aI69
aI240
aa(lp196
I232
aI36
aI254
aI255
aI255
aa(lp197
I137
aI69
aI244
aa(lp198
I235
aI21
aa(lp199
I232
aI26
aI254
aI255
aI255
aa(lp200
I137
aI69
aI244
aa(lp201
I139
aI69
aI244
aa(lp202
I137
aI199
aa(lp203
I232
aI129
aI254
aI255
aI255
aa(lp204
I137
aI69
aI240
aa(lp205
I139
aI85
aI240
aa(lp206
I139
aI69
aI244
aa(lp207
I137
aI214
aa(lp208
I137
aI199
aa(lp209
I232
aI210
aI254
aI255
aI255
aa(lp210
I1
aI69
aI252
aa(lp211
I131
aI69
aI248
aI1
aa(lp212
I139
aI85
aI248
aa(lp213
I139
aI69
aI252
aa(lp214
I137
aI198
aa(lp215
I72
aI141
aI61
aI37
aI12
aI0
aI0
aa(lp216
I184
aI0
aI0
aI0
aI0
aa(lp217
I232
aI203
aI251
aI255
aI255
aa(lp218
I72
aI141
aI61
aI60
aI12
aI0
aI0
aa(lp219
I232
aI175
aI251
aI255
aI255
aa(lp220
I233
aI112
aI255
aI255
aI255
aa(lp221
I102
aI46
aI15
aI31
aI132
aI0
aI0
aa(lp222
I0
aI0
aI0
aasg39
(I5087
I5270
tp223
sg41
I0
sg42
g43
ssS'getseq'
p224
(dp225
g7
g8
sg9
(lp226
sg11
(lp227
(lp228
I85
aa(lp229
I72
aI137
aI229
aa(lp230
I72
aI137
aI125
aI232
aa(lp231
I199
aI69
aI252
aI0
aI0
aI0
aI0
aa(lp232
I199
aI69
aI248
aI4
aI0
aI0
aI0
aa(lp233
I235
aI69
aa(lp234
I72
aI139
aI69
aI232
aa(lp235
I72
aI141
aI80
aI1
aa(lp236
I72
aI137
aI85
aI232
aa(lp237
I15
aI182
aI0
aa(lp238
I15
aI190
aI192
aa(lp239
I131
aI248
aI116
aa(lp240
I116
aI42
aa(lp241
I131
aI248
aI116
aa(lp242
I127
aI30
aa(lp243
I131
aI248
aI104
aa(lp244
I116
aI17
aa(lp245
I131
aI248
aI104
aa(lp246
I127
aI20
aa(lp247
I131
aI248
aI72
aa(lp248
I116
aI7
aa(lp249
I131
aI248
aI84
aa(lp250
I116
aI17
aa(lp251
I235
aI8
aa(lp252
I139
aI69
aI248
aa(lp253
I9
aI69
aI252
aa(lp254
I235
aI8
aa(lp255
I184
aI255
aI255
aI255
aI255
aa(lp256
I235
aI24
aa(lp257
I144
aa(lp258
I209
aI125
aI248
aa(lp259
I72
aI139
aI69
aI232
aa(lp260
I15
aI182
aI0
aa(lp261
I132
aI192
aa(lp262
I116
aI6
aa(lp263
I131
aI125
aI248
aI0
aa(lp264
I117
aI170
aa(lp265
I139
aI69
aI252
aa(lp266
I93
aa(lp267
I195
aasg39
(I4517
I4632
tp268
sg41
I1
sg42
g43
sssS'function_calls'
p269
(dp270
sS'binary_filename'
p271
S'pennygcc'
p272
sS'structures'
p273
(dp274
sS'extern_functions'
p275
(dp276
sS'arch'
p277
S'amd64'
p278
sS'bin_raw_bytes'
p279
g8
s.