(dp0
S'text_addr'
p1
S'0x1060'
p2
sS'functions'
p3
(dp4
S'convertKelvin'
p5
(dp6
S'ret_type'
p7
S''
p8
sS'args_type'
p9
(lp10
sS'inst_bytes'
p11
(lp12
(lp13
I85
aa(lp14
I72
aI137
aI229
aa(lp15
I72
aI131
aI236
aI16
aa(lp16
I242
aI15
aI17
aI69
aI248
aa(lp17
I72
aI139
aI69
aI248
aa(lp18
I102
aI72
aI15
aI110
aI192
aa(lp19
I72
aI141
aI61
aI70
aI14
aI0
aI0
aa(lp20
I184
aI1
aI0
aI0
aI0
aa(lp21
I232
aI116
aI254
aI255
aI255
aa(lp22
I72
aI139
aI69
aI248
aa(lp23
I102
aI72
aI15
aI110
aI192
aa(lp24
I232
aI107
aI255
aI255
aI255
aa(lp25
I72
aI141
aI61
aI47
aI14
aI0
aI0
aa(lp26
I184
aI1
aI0
aI0
aI0
aa(lp27
I232
aI85
aI254
aI255
aI255
aa(lp28
I72
aI139
aI69
aI248
aa(lp29
I102
aI72
aI15
aI110
aI192
aa(lp30
I232
aI104
aI255
aI255
aI255
aa(lp31
I72
aI141
aI61
aI24
aI14
aI0
aI0
aa(lp32
I184
aI1
aI0
aI0
aI0
aa(lp33
I232
aI54
aI254
aI255
aI255
aa(lp34
I72
aI139
aI69
aI248
aa(lp35
I102
aI72
aI15
aI110
aI192
aa(lp36
I232
aI113
aI255
aI255
aI255
aa(lp37
I72
aI141
aI61
aI1
aI14
aI0
aI0
aa(lp38
I184
aI1
aI0
aI0
aI0
aa(lp39
I232
aI23
aI254
aI255
aI255
aa(lp40
I144
aa(lp41
I201
aa(lp42
I195
aasS'boundaries'
p43
(I4517
I4652
tp44
sS'num_args'
p45
I1
sS'inst_strings'
p46
(lp47
ssS'main'
p48
(dp49
g7
g8
sg9
(lp50
sg11
(lp51
(lp52
I85
aa(lp53
I72
aI137
aI229
aa(lp54
I72
aI131
aI236
aI32
aa(lp55
I137
aI125
aI236
aa(lp56
I72
aI137
aI117
aI224
aa(lp57
I131
aI125
aI236
aI1
aa(lp58
I126
aI42
aa(lp59
I72
aI139
aI69
aI224
aa(lp60
I72
aI131
aI192
aI8
aa(lp61
I72
aI139
aI0
aa(lp62
I72
aI137
aI199
aa(lp63
I232
aI220
aI253
aI255
aI255
aa(lp64
I102
aI72
aI15
aI126
aI192
aa(lp65
I72
aI137
aI69
aI248
aa(lp66
I72
aI139
aI69
aI248
aa(lp67
I102
aI72
aI15
aI110
aI192
aa(lp68
I232
aI58
aI255
aI255
aI255
aa(lp69
I184
aI0
aI0
aI0
aI0
aa(lp70
I201
aa(lp71
I195
aasg43
(I4652
I4722
tp72
sg45
I2
sg46
g47
ssS'kelvinToFahrenheit'
p73
(dp74
g7
g8
sg9
(lp75
sg11
(lp76
(lp77
I85
aa(lp78
I72
aI137
aI229
aa(lp79
I242
aI15
aI17
aI69
aI248
aa(lp80
I242
aI15
aI16
aI77
aI248
aa(lp81
I242
aI15
aI16
aI5
aI185
aI14
aI0
aI0
aa(lp82
I242
aI15
aI89
aI193
aa(lp83
I242
aI15
aI16
aI13
aI181
aI14
aI0
aI0
aa(lp84
I242
aI15
aI92
aI193
aa(lp85
I93
aa(lp86
I195
aasg43
(I4449
I4489
tp87
sg45
I1
sg46
g47
ssS'kelvinToCelsius'
p88
(dp89
g7
g8
sg9
(lp90
sg11
(lp91
(lp92
I85
aa(lp93
I72
aI137
aI229
aa(lp94
I242
aI15
aI17
aI69
aI248
aa(lp95
I242
aI15
aI16
aI69
aI248
aa(lp96
I242
aI15
aI16
aI13
aI205
aI14
aI0
aI0
aa(lp97
I242
aI15
aI92
aI193
aa(lp98
I93
aa(lp99
I195
aasg43
(I4421
I4449
tp100
sg45
I1
sg46
g47
ssS'kelvinToRankine'
p101
(dp102
g7
g8
sg9
(lp103
sg11
(lp104
(lp105
I85
aa(lp106
I72
aI137
aI229
aa(lp107
I242
aI15
aI17
aI69
aI248
aa(lp108
I242
aI15
aI16
aI77
aI248
aa(lp109
I242
aI15
aI16
aI5
aI145
aI14
aI0
aI0
aa(lp110
I242
aI15
aI89
aI193
aa(lp111
I93
aa(lp112
I195
aasg43
(I4489
I4517
tp113
sg45
I1
sg46
g47
sssS'function_calls'
p114
(dp115
sS'binary_filename'
p116
S'tempgcc'
p117
sS'structures'
p118
(dp119
sS'extern_functions'
p120
(dp121
sS'arch'
p122
S'amd64'
p123
sS'bin_raw_bytes'
p124
g8
s.