(dp0
S'text_addr'
p1
S'0x1060'
p2
sS'functions'
p3
(dp4
S'unbiased'
p5
(dp6
S'ret_type'
p7
S''
p8
sS'args_type'
p9
(lp10
sS'inst_bytes'
p11
(lp12
(lp13
I85
aa(lp14
I72
aI137
aI229
aa(lp15
I72
aI131
aI236
aI32
aa(lp16
I137
aI125
aI236
aa(lp17
I144
aa(lp18
I139
aI69
aI236
aa(lp19
I137
aI199
aa(lp20
I232
aI165
aI255
aI255
aI255
aa(lp21
I137
aI69
aI252
aa(lp22
I139
aI69
aI236
aa(lp23
I137
aI199
aa(lp24
I232
aI152
aI255
aI255
aI255
aa(lp25
I57
aI69
aI252
aa(lp26
I116
aI228
aa(lp27
I139
aI69
aI252
aa(lp28
I201
aa(lp29
I195
aasS'boundaries'
p30
(I4490
I4535
tp31
sS'num_args'
p32
I1
sS'inst_strings'
p33
(lp34
ssS'biased'
p35
(dp36
g7
g8
sg9
(lp37
sg11
(lp38
(lp39
I85
aa(lp40
I72
aI137
aI229
aa(lp41
I72
aI131
aI236
aI32
aa(lp42
I137
aI125
aI236
aa(lp43
I184
aI255
aI255
aI255
aI127
aa(lp44
I153
aa(lp45
I247
aI125
aI236
aa(lp46
I137
aI208
aa(lp47
I186
aI255
aI255
aI255
aI127
aa(lp48
I41
aI194
aa(lp49
I137
aI208
aa(lp50
I137
aI69
aI252
aa(lp51
I144
aa(lp52
I232
aI211
aI254
aI255
aI255
aa(lp53
I137
aI69
aI248
aa(lp54
I139
aI69
aI248
aa(lp55
I59
aI69
aI252
aa(lp56
I127
aI240
aa(lp57
I139
aI69
aI252
aa(lp58
I153
aa(lp59
I247
aI125
aI236
aa(lp60
I57
aI69
aI248
aa(lp61
I15
aI156
aI192
aa(lp62
I15
aI182
aI192
aa(lp63
I201
aa(lp64
I195
aasg30
(I4421
I4490
tp65
sg32
I1
sg33
g34
ssS'main'
p66
(dp67
g7
g8
sg9
(lp68
sg11
(lp69
(lp70
I85
aa(lp71
I72
aI137
aI229
aa(lp72
I72
aI131
aI236
aI32
aa(lp73
I199
aI69
aI236
aI16
aI39
aI0
aI0
aa(lp74
I199
aI69
aI252
aI3
aI0
aI0
aI0
aa(lp75
I233
aI145
aI0
aI0
aI0
aa(lp76
I199
aI69
aI244
aI0
aI0
aI0
aI0
aa(lp77
I139
aI69
aI244
aa(lp78
I137
aI69
aI248
aa(lp79
I139
aI69
aI248
aa(lp80
I137
aI69
aI240
aa(lp81
I235
aI30
aa(lp82
I139
aI69
aI252
aa(lp83
I137
aI199
aa(lp84
I232
aI84
aI255
aI255
aI255
aa(lp85
I1
aI69
aI248
aa(lp86
I139
aI69
aI252
aa(lp87
I137
aI199
aa(lp88
I232
aI140
aI255
aI255
aI255
aa(lp89
I1
aI69
aI244
aa(lp90
I131
aI69
aI240
aI1
aa(lp91
I139
aI69
aI240
aa(lp92
I59
aI69
aI236
aa(lp93
I124
aI218
aa(lp94
I242
aI15
aI42
aI77
aI244
aa(lp95
I242
aI15
aI16
aI5
aI14
aI14
aI0
aI0
aa(lp96
I242
aI15
aI89
aI193
aa(lp97
I242
aI15
aI42
aI77
aI236
aa(lp98
I102
aI15
aI40
aI208
aa(lp99
I242
aI15
aI94
aI209
aa(lp100
I242
aI15
aI42
aI77
aI248
aa(lp101
I242
aI15
aI16
aI5
aI240
aI13
aI0
aI0
aa(lp102
I242
aI15
aI89
aI193
aa(lp103
I242
aI15
aI42
aI77
aI236
aa(lp104
I242
aI15
aI94
aI193
aa(lp105
I139
aI69
aI252
aa(lp106
I102
aI15
aI40
aI202
aa(lp107
I137
aI198
aa(lp108
I72
aI141
aI61
aI179
aI13
aI0
aI0
aa(lp109
I184
aI2
aI0
aI0
aI0
aa(lp110
I232
aI209
aI253
aI255
aI255
aa(lp111
I131
aI69
aI252
aI1
aa(lp112
I131
aI125
aI252
aI6
aa(lp113
I15
aI142
aI101
aI255
aI255
aI255
aa(lp114
I184
aI0
aI0
aI0
aI0
aa(lp115
I201
aa(lp116
I195
aasg30
(I4535
I4724
tp117
sg32
I0
sg33
g34
sssS'function_calls'
p118
(dp119
sS'binary_filename'
p120
S'unbiasgcc'
p121
sS'structures'
p122
(dp123
sS'extern_functions'
p124
(dp125
sS'arch'
p126
S'amd64'
p127
sS'bin_raw_bytes'
p128
g8
s.