(dp0
S'text_addr'
p1
S'0x400d10'
p2
sS'functions'
p3
(dp4
S'flush_standard_stream'
p5
(dp6
S'ret_type'
p7
S''
p8
sS'args_type'
p9
(lp10
sS'inst_bytes'
p11
(lp12
sS'boundaries'
p13
(tsS'num_args'
p14
I1
sS'inst_strings'
p15
(lp16
ssS'err_exclusive_options'
p17
(dp18
g7
g8
sg9
(lp19
sg11
(lp20
sg13
(tsg14
I4
sg15
g16
ssS'c_isgraph'
p21
(dp22
g7
g8
sg9
(lp23
sg11
(lp24
sg13
(tsg14
I1
sg15
g16
ssS'close_stdout'
p25
(dp26
g7
g8
sg9
(lp27
sg11
(lp28
(lp29
I65
aI86
aa(lp30
I83
aa(lp31
I80
aa(lp32
I72
aI139
aI29
aI221
aI13
aI32
aI0
aa(lp33
I232
aI80
aI248
aI255
aI255
aa(lp34
I73
aI137
aI198
aa(lp35
I65
aI199
aI6
aI0
aI0
aI0
aI0
aa(lp36
I72
aI137
aI223
aa(lp37
I232
aI110
aI248
aI255
aI255
aa(lp38
I133
aI192
aa(lp39
I15
aI133
aI163
aI0
aI0
aI0
aa(lp40
I72
aI137
aI223
aa(lp41
I232
aI94
aI249
aI255
aI255
aa(lp42
I133
aI192
aa(lp43
I116
aI69
aa(lp44
I65
aI139
aI30
aa(lp45
I131
aI251
aI9
aa(lp46
I116
aI9
aa(lp47
I131
aI251
aI32
aa(lp48
I15
aI133
aI156
aI0
aI0
aI0
aa(lp49
I72
aI139
aI29
aI178
aI13
aI32
aI0
aa(lp50
I65
aI199
aI6
aI0
aI0
aI0
aI0
aa(lp51
I72
aI137
aI223
aa(lp52
I232
aI51
aI248
aI255
aI255
aa(lp53
I133
aI192
aa(lp54
I117
aI98
aa(lp55
I72
aI137
aI223
aa(lp56
I232
aI39
aI249
aI255
aI255
aa(lp57
I133
aI192
aa(lp58
I116
aI50
aa(lp59
I65
aI131
aI62
aI9
aa(lp60
I117
aI80
aa(lp61
I72
aI131
aI196
aI8
aa(lp62
I91
aa(lp63
I65
aI94
aa(lp64
I195
aasg13
(I4199200
I4199485
tp65
sg14
I0
sg15
g16
ssS'close_stdout_atexit'
p66
(dp67
g7
g8
sg9
(lp68
sg11
(lp69
sg13
(tsg14
I0
sg15
g16
ssS'usage'
p70
(dp71
g7
g8
sg9
(lp72
sg11
(lp73
sg13
(tsg14
I0
sg15
g16
ssS'main'
p74
(dp75
g7
g8
sg9
(lp76
sg11
(lp77
(lp78
I85
aa(lp79
I65
aI87
aa(lp80
I65
aI86
aa(lp81
I65
aI84
aa(lp82
I83
aa(lp83
I72
aI129
aI236
aI144
aI0
aI0
aI0
aa(lp84
I73
aI137
aI246
aa(lp85
I65
aI137
aI255
aa(lp86
I191
aI6
aI0
aI0
aI0
aa(lp87
I190
aI194
aI25
aI64
aI0
aa(lp88
I232
aI172
aI254
aI255
aI255
aa(lp89
I191
aI25
aI24
aI64
aI0
aa(lp90
I190
aI36
aI24
aI64
aI0
aa(lp91
I232
aI157
aI253
aI255
aI255
aa(lp92
I191
aI25
aI24
aI64
aI0
aa(lp93
I232
aI131
aI253
aI255
aI255
aa(lp94
I191
aI32
aI19
aI64
aI0
aa(lp95
I232
aI121
aI6
aI0
aI0
aa(lp96
I49
aI237
aa(lp97
I186
aI54
aI24
aI64
aI0
aa(lp98
I185
aI240
aI22
aI64
aI0
aa(lp99
I69
aI49
aI192
aa(lp100
I68
aI137
aI255
aa(lp101
I76
aI137
aI246
aa(lp102
I232
aI143
aI253
aI255
aI255
aa(lp103
I131
aI248
aI255
aa(lp104
I117
aI74
aa(lp105
I49
aI255
aa(lp106
I190
aI136
aI24
aI64
aI0
aa(lp107
I233
aI12
aI4
aI0
aI0
aa(lp108
I102
aI102
aI102
aI102
aI102
aI46
aI15
aa(lp109
I31
aI132
aI0
aI0
aI0
aI0
aI0
aa(lp110
I117
aI30
aa(lp111
I133
aI237
aa(lp112
I137
aI195
aa(lp113
I116
aI47
aa(lp114
I57
aI197
aa(lp115
I137
aI195
aa(lp116
I116
aI41
aa(lp117
I233
aI16
aI1
aI0
aI0
aa(lp118
I102
aI102
aI102
aI102
aI46
aI15
aI31
aa(lp119
I132
aI0
aI0
aI0
aI0
aI0
aa(lp120
I131
aI248
aI117
aa(lp121
I124
aI16
aa(lp122
I116
aI219
aa(lp123
I235
aI12
aa(lp124
I15
aI31
aI128
aI0
aI0
aI0
aI0
aa(lp125
I131
aI248
aI102
aa(lp126
I125
aI203
aa(lp127
I137
aI235
aa(lp128
I131
aI192
aI170
aa(lp129
I131
aI248
aI31
aa(lp130
I15
aI135
aI245
aI3
aI0
aI0
aa(lp131
I65
aI180
aI1
aa(lp132
I255
aI36
aI197
aI240
aI21
aI64
aI0
aa(lp133
I65
aI180
aI2
aa(lp134
I186
aI54
aI24
aI64
aI0
aa(lp135
I185
aI240
aI22
aI64
aI0
aa(lp136
I69
aI49
aI192
aa(lp137
I68
aI137
aI255
aa(lp138
I76
aI137
aI246
aa(lp139
I232
aI8
aI253
aI255
aI255
aa(lp140
I131
aI248
aI255
aa(lp141
I137
aI221
aa(lp142
I117
aI193
aa(lp143
I72
aI99
aI5
aI26
aI18
aI32
aI0
aa(lp144
I68
aI57
aI248
aa(lp145
I15
aI132
aI120
aI3
aI0
aI0
aa(lp146
I141
aI72
aI1
aa(lp147
I137
aI13
aI8
aI18
aI32
aI0
aa(lp148
I68
aI57
aI249
aa(lp149
I15
aI133
aI137
aI3
aI0
aI0
aa(lp150
I77
aI139
aI52
aI198
aa(lp151
I49
aI246
aa(lp152
I49
aI192
aa(lp153
I76
aI137
aI247
aa(lp154
I232
aI191
aI253
aI255
aI255
aa(lp155
I65
aI137
aI199
aa(lp156
I69
aI133
aI255
aa(lp157
I15
aI136
aI196
aI3
aI0
aI0
aa(lp158
I189
aI1
aI0
aI0
aI0
aa(lp159
I72
aI137
aI226
aa(lp160
I191
aI1
aI0
aI0
aI0
aa(lp161
I68
aI137
aI254
aa(lp162
I232
aI126
aI253
aI255
aI255
aa(lp163
I131
aI248
aI255
aa(lp164
I15
aI132
aI29
aI1
aI0
aI0
aa(lp165
I184
aI0
aI240
aI0
aI0
aa(lp166
I35
aI68
aI36
aI24
aa(lp167
I61
aI0
aI64
aI0
aI0
aa(lp168
I15
aI133
aI44
aI1
aI0
aI0
aa(lp169
I190
aI119
aI88
aI4
aI192
aa(lp170
I65
aI128
aI228
aI3
aa(lp171
I65
aI128
aI252
aI2
aa(lp172
I15
aI132
aI60
aI1
aI0
aI0
aa(lp173
I65
aI128
aI252
aI1
aa(lp174
I15
aI133
aI155
aI3
aI0
aI0
aa(lp175
I49
aI237
aa(lp176
I190
aI119
aI88
aI4
aI192
aa(lp177
I49
aI210
aa(lp178
I49
aI192
aa(lp179
I68
aI137
aI255
aa(lp180
I232
aI193
aI252
aI255
aI255
aa(lp181
I133
aI192
aa(lp182
I15
aI132
aI82
aI1
aI0
aI0
aa(lp183
I49
aI255
aa(lp184
I190
aI30
aI25
aI64
aI0
aa(lp185
I233
aI39
aI1
aI0
aI0
aa(lp186
I72
aI139
aI29
aI118
aI17
aI32
aI0
aa(lp187
I49
aI255
aa(lp188
I190
aI80
aI25
aI64
aI0
aa(lp189
I186
aI5
aI0
aI0
aI0
aa(lp190
I232
aI37
aI252
aI255
aI255
aa(lp191
I72
aI137
aI193
aa(lp192
I72
aI139
aI21
aI59
aI17
aI32
aI0
aa(lp193
I49
aI192
aa(lp194
I72
aI137
aI223
aa(lp195
I72
aI137
aI206
aa(lp196
I232
aI174
aI252
aI255
aI255
aa(lp197
I187
aI1
aI0
aI0
aI0
aa(lp198
I235
aI39
aa(lp199
I133
aI210
aa(lp200
I116
aI112
aa(lp201
I141
aI66
aI223
aa(lp202
I131
aI248
aI93
aa(lp203
I119
aI95
aa(lp204
I72
aI139
aI61
aI52
aI17
aI32
aI0
aa(lp205
I190
aI120
aI25
aI64
aI0
aa(lp206
I49
aI192
aa(lp207
I232
aI136
aI252
aI255
aI255
aa(lp208
I235
aI74
aa(lp209
I102
aI15
aI31
aI68
aI0
aI0
aa(lp210
I139
aI20
aI157
aI140
aI23
aI64
aI0
aa(lp211
I141
aI66
aI170
aa(lp212
I131
aI248
aI31
aa(lp213
I119
aI202
aa(lp214
I185
aI78
aI26
aI64
aI0
aa(lp215
I255
aI36
aI197
aI240
aI20
aI64
aI0
aa(lp216
I185
aI106
aI26
aI64
aI0
aa(lp217
I235
aI12
aa(lp218
I185
aI16
aI24
aI64
aI0
aa(lp219
I235
aI5
aa(lp220
I185
aI18
aI24
aI64
aI0
aa(lp221
I72
aI139
aI61
aI235
aI16
aI32
aI0
aa(lp222
I190
aI114
aI25
aI64
aI0
aa(lp223
I49
aI192
aa(lp224
I72
aI137
aI202
aa(lp225
I232
aI60
aI252
aI255
aI255
aa(lp226
I72
aI255
aI195
aa(lp227
I72
aI131
aI251
aI16
aa(lp228
I114
aI179
aa(lp229
I72
aI139
aI53
aI204
aI16
aI32
aI0
aa(lp230
I191
aI10
aI0
aI0
aI0
aa(lp231
I232
aI18
aI252
aI255
aI255
aa(lp232
I191
aI1
aI0
aI0
aI0
aa(lp233
I232
aI152
aI252
aI255
aI255
aa(lp234
I49
aI255
aa(lp235
I190
aI245
aI24
aI64
aI0
aa(lp236
I186
aI5
aI0
aI0
aI0
aa(lp237
I232
aI103
aI251
aI255
aI255
aa(lp238
I72
aI137
aI193
aa(lp239
I49
aI192
aa(lp240
I72
aI137
aI207
aa(lp241
I76
aI137
aI246
aa(lp242
I232
aI23
aI251
aI255
aI255
aa(lp243
I235
aI94
aa(lp244
I49
aI255
aa(lp245
I190
aI7
aI25
aI64
aI0
aa(lp246
I186
aI5
aI0
aI0
aI0
aa(lp247
I232
aI68
aI251
aI255
aI255
aa(lp248
I72
aI137
aI193
aa(lp249
I49
aI192
aa(lp250
I72
aI137
aI207
aa(lp251
I76
aI137
aI246
aa(lp252
I232
aI116
aI251
aI255
aI255
aa(lp253
I235
aI54
aa(lp254
I72
aI255
aI198
aa(lp255
I49
aI237
aa(lp256
I49
aI210
aa(lp257
I49
aI192
aa(lp258
I68
aI137
aI255
aa(lp259
I232
aI145
aI251
aI255
aI255
aa(lp260
I133
aI192
aa(lp261
I116
aI38
aa(lp262
I49
aI255
aa(lp263
I190
aI48
aI25
aI64
aI0
aa(lp264
I186
aI5
aI0
aI0
aI0
aa(lp265
I232
aI12
aI251
aI255
aI255
aa(lp266
I72
aI137
aI193
aa(lp267
I49
aI192
aa(lp268
I72
aI137
aI207
aa(lp269
I76
aI137
aI246
aa(lp270
I232
aI188
aI250
aI255
aI255
aa(lp271
I189
aI1
aI0
aI0
aI0
aa(lp272
I68
aI137
aI255
aa(lp273
I232
aI111
aI251
aI255
aI255
aa(lp274
I137
aI232
aa(lp275
I72
aI129
aI196
aI144
aI0
aI0
aI0
aa(lp276
I91
aa(lp277
I65
aI92
aa(lp278
I65
aI94
aa(lp279
I65
aI95
aa(lp280
I93
aa(lp281
I195
aasg13
(I4197888
I4199196
tp282
sg14
I2
sg15
g16
ssS'fstat'
p283
(dp284
g7
g8
sg9
(lp285
sg11
(lp286
sg13
(tsg14
I2
sg15
g16
sssS'function_calls'
p287
(dp288
sS'binary_filename'
p289
S'fsfreeze'
p290
sS'structures'
p291
(dp292
sS'extern_functions'
p293
(dp294
sS'arch'
p295
S'amd64'
p296
sS'bin_raw_bytes'
p297
g8
s.