(dp0
S'text_addr'
p1
S'0x401030'
p2
sS'functions'
p3
(dp4
S'flush_standard_stream'
p5
(dp6
S'ret_type'
p7
S''
p8
sS'args_type'
p9
(lp10
sS'inst_bytes'
p11
(lp12
sS'boundaries'
p13
(tsS'num_args'
p14
I1
sS'inst_strings'
p15
(lp16
ssS'get_env_int'
p17
(dp18
g7
g8
sg9
(lp19
sg11
(lp20
sg13
(tsg14
I1
sg15
g16
ssS'get_terminal_dimension'
p21
(dp22
g7
g8
sg9
(lp23
sg11
(lp24
(lp25
I85
aa(lp26
I65
aI87
aa(lp27
I65
aI86
aa(lp28
I65
aI85
aa(lp29
I65
aI84
aa(lp30
I83
aa(lp31
I72
aI131
aI236
aI24
aa(lp32
I73
aI137
aI246
aa(lp33
I73
aI137
aI252
aa(lp34
I49
aI219
aa(lp35
I72
aI141
aI84
aI36
aI16
aa(lp36
I191
aI1
aI0
aI0
aI0
aa(lp37
I190
aI19
aI84
aI0
aI0
aa(lp38
I49
aI192
aa(lp39
I232
aI132
aI248
aI255
aI255
aa(lp40
I133
aI192
aa(lp41
I65
aI191
aI0
aI0
aI0
aI0
aa(lp42
I117
aI11
aa(lp43
I15
aI183
aI92
aI36
aI18
aa(lp44
I68
aI15
aI183
aI124
aI36
aI16
aa(lp45
I77
aI133
aI228
aa(lp46
I116
aI103
aa(lp47
I133
aI219
aa(lp48
I117
aI95
aa(lp49
I72
aI141
aI61
aI134
aI6
aI0
aI0
aa(lp50
I232
aI58
aI247
aI255
aI255
aa(lp51
I73
aI137
aI197
aa(lp52
I77
aI133
aI237
aa(lp53
I116
aI70
aa(lp54
I72
aI199
aI68
aI36
aI8
aI0
aI0
aa(lp55
I0
aI0
aa(lp56
I232
aI68
aI247
aI255
aI255
aa(lp57
I72
aI137
aI197
aa(lp58
I199
aI69
aI0
aI0
aI0
aI0
aI0
aa(lp59
I72
aI141
aI116
aI36
aI8
aa(lp60
I186
aI10
aI0
aI0
aI0
aa(lp61
I76
aI137
aI239
aa(lp62
I232
aI120
aI248
aI255
aI255
aa(lp63
I72
aI137
aI195
aa(lp64
I131
aI125
aI0
aI0
aa(lp65
I117
aI19
aa(lp66
I72
aI139
aI68
aI36
aI8
aa(lp67
I72
aI133
aI192
aa(lp68
I116
aI9
aa(lp69
I128
aI56
aI0
aa(lp70
I15
aI132
aI131
aI0
aI0
aI0
aa(lp71
I187
aI255
aI255
aI255
aI255
aa(lp72
I65
aI137
aI28
aI36
aa(lp73
I77
aI133
aI246
aa(lp74
I116
aI100
aa(lp75
I69
aI133
aI255
aa(lp76
I117
aI92
aa(lp77
I72
aI141
aI61
aI33
aI6
aI0
aI0
aa(lp78
I232
aI205
aI246
aI255
aI255
aa(lp79
I72
aI137
aI195
aa(lp80
I72
aI133
aI219
aa(lp81
I116
aI66
aa(lp82
I72
aI199
aI68
aI36
aI8
aI0
aI0
aa(lp83
I0
aI0
aa(lp84
I232
aI215
aI246
aI255
aI255
aa(lp85
I72
aI137
aI197
aa(lp86
I199
aI69
aI0
aI0
aI0
aI0
aI0
aa(lp87
I72
aI141
aI116
aI36
aI8
aa(lp88
I186
aI10
aI0
aI0
aI0
aa(lp89
I72
aI137
aI223
aa(lp90
I232
aI11
aI248
aI255
aI255
aa(lp91
I73
aI137
aI199
aa(lp92
I131
aI125
aI0
aI0
aa(lp93
I117
aI15
aa(lp94
I72
aI139
aI68
aI36
aI8
aa(lp95
I72
aI133
aI192
aa(lp96
I116
aI5
aa(lp97
I128
aI56
aI0
aa(lp98
I116
aI57
aa(lp99
I65
aI191
aI255
aI255
aI255
aI255
aa(lp100
I69
aI137
aI62
aa(lp101
I49
aI192
aa(lp102
I72
aI131
aI196
aI24
aa(lp103
I91
aa(lp104
I65
aI92
aa(lp105
I65
aI93
aa(lp106
I65
aI94
aa(lp107
I65
aI95
aa(lp108
I93
aa(lp109
I195
aasg13
(I4200048
I4200394
tp110
sg14
I2
sg15
g16
ssS'get_terminal_stdfd'
p111
(dp112
g7
g8
sg9
(lp113
sg11
(lp114
(lp115
I85
aa(lp116
I83
aa(lp117
I80
aa(lp118
I49
aI219
aa(lp119
I49
aI255
aa(lp120
I232
aI116
aI246
aI255
aI255
aa(lp121
I133
aI192
aa(lp122
I117
aI44
aa(lp123
I187
aI1
aI0
aI0
aI0
aa(lp124
I191
aI1
aI0
aI0
aI0
aa(lp125
I232
aI97
aI246
aI255
aI255
aa(lp126
I133
aI192
aa(lp127
I117
aI25
aa(lp128
I189
aI2
aI0
aI0
aI0
aa(lp129
I191
aI2
aI0
aI0
aI0
aa(lp130
I232
aI78
aI246
aI255
aI255
aa(lp131
I133
aI192
aa(lp132
I187
aI234
aI255
aI255
aI255
aa(lp133
I15
aI69
aI221
aa(lp134
I137
aI216
aa(lp135
I72
aI131
aI196
aI8
aa(lp136
I91
aa(lp137
I93
aa(lp138
I195
aasg13
(tsg14
I0
sg15
g16
ssS'close_stdout'
p139
(dp140
g7
g8
sg9
(lp141
sg11
(lp142
(lp143
I65
aI86
aa(lp144
I83
aa(lp145
I80
aa(lp146
I72
aI139
aI29
aI237
aI27
aI32
aI0
aa(lp147
I232
aI192
aI248
aI255
aI255
aa(lp148
I73
aI137
aI198
aa(lp149
I65
aI199
aI6
aI0
aI0
aI0
aI0
aa(lp150
I72
aI137
aI223
aa(lp151
I232
aI254
aI248
aI255
aI255
aa(lp152
I133
aI192
aa(lp153
I15
aI133
aI163
aI0
aI0
aI0
aa(lp154
I72
aI137
aI223
aa(lp155
I232
aI30
aI250
aI255
aI255
aa(lp156
I133
aI192
aa(lp157
I116
aI69
aa(lp158
I65
aI139
aI30
aa(lp159
I131
aI251
aI9
aa(lp160
I116
aI9
aa(lp161
I131
aI251
aI32
aa(lp162
I15
aI133
aI156
aI0
aI0
aI0
aa(lp163
I72
aI139
aI29
aI194
aI27
aI32
aI0
aa(lp164
I65
aI199
aI6
aI0
aI0
aI0
aI0
aa(lp165
I72
aI137
aI223
aa(lp166
I232
aI195
aI248
aI255
aI255
aa(lp167
I133
aI192
aa(lp168
I117
aI98
aa(lp169
I72
aI137
aI223
aa(lp170
I232
aI231
aI249
aI255
aI255
aa(lp171
I133
aI192
aa(lp172
I116
aI50
aa(lp173
I65
aI131
aI62
aI9
aa(lp174
I117
aI80
aa(lp175
I72
aI131
aI196
aI8
aa(lp176
I91
aa(lp177
I65
aI94
aa(lp178
I195
aasg13
(I4199760
I4200045
tp179
sg14
I0
sg15
g16
ssS'get_terminal_type'
p180
(dp181
g7
g8
sg9
(lp182
sg11
(lp183
(lp184
I83
aa(lp185
I72
aI137
aI251
aa(lp186
I72
aI141
aI61
aI224
aI3
aI0
aI0
aa(lp187
I232
aI128
aI244
aI255
aI255
aa(lp188
I72
aI137
aI3
aa(lp189
I49
aI201
aa(lp190
I72
aI133
aI192
aa(lp191
I184
aI234
aI255
aI255
aI255
aa(lp192
I15
aI68
aI193
aa(lp193
I91
aa(lp194
I195
aasg13
(I4200816
I4200850
tp195
sg14
I1
sg15
g16
ssS'get_terminal_width'
p196
(dp197
g7
g8
sg9
(lp198
sg11
(lp199
(lp200
I83
aa(lp201
I72
aI131
aI236
aI16
aa(lp202
I137
aI251
aa(lp203
I199
aI68
aI36
aI12
aI0
aI0
aI0
aI0
aa(lp204
I72
aI141
aI124
aI36
aI12
aa(lp205
I49
aI246
aa(lp206
I232
aI133
aI254
aI255
aI255
aa(lp207
I139
aI68
aI36
aI12
aa(lp208
I133
aI192
aa(lp209
I15
aI78
aI195
aa(lp210
I72
aI131
aI196
aI16
aa(lp211
I91
aa(lp212
I195
aasg13
(I4200400
I4200442
tp213
sg14
I1
sg15
g16
ssS'close_stdout_atexit'
p214
(dp215
g7
g8
sg9
(lp216
sg11
(lp217
sg13
(tsg14
I0
sg15
g16
ssS'get_terminal_name'
p218
(dp219
g7
g8
sg9
(lp220
sg11
(lp221
(lp222
I85
aa(lp223
I65
aI87
aa(lp224
I65
aI86
aa(lp225
I65
aI84
aa(lp226
I83
aa(lp227
I73
aI137
aI214
aa(lp228
I73
aI137
aI247
aa(lp229
I73
aI137
aI252
aa(lp230
I77
aI133
aI255
aa(lp231
I116
aI7
aa(lp232
I73
aI199
aI7
aI0
aI0
aI0
aI0
aa(lp233
I77
aI133
aI228
aa(lp234
I116
aI8
aa(lp235
I73
aI199
aI4
aI36
aI0
aI0
aI0
aI0
aa(lp236
I77
aI133
aI246
aa(lp237
I116
aI7
aa(lp238
I73
aI199
aI6
aI0
aI0
aI0
aI0
aa(lp239
I49
aI219
aa(lp240
I49
aI255
aa(lp241
I232
aI241
aI245
aI255
aI255
aa(lp242
I133
aI192
aa(lp243
I117
aI42
aa(lp244
I187
aI1
aI0
aI0
aI0
aa(lp245
I191
aI1
aI0
aI0
aI0
aa(lp246
I232
aI222
aI245
aI255
aI255
aa(lp247
I133
aI192
aa(lp248
I117
aI23
aa(lp249
I187
aI2
aI0
aI0
aI0
aa(lp250
I191
aI2
aI0
aI0
aI0
aa(lp251
I232
aI203
aI245
aI255
aI255
aa(lp252
I133
aI192
aa(lp253
I15
aI132
aI152
aI0
aI0
aI0
aa(lp254
I137
aI223
aa(lp255
I232
aI252
aI246
aI255
aI255
aa(lp256
I72
aI137
aI197
aa(lp257
I72
aI133
aI237
aa(lp258
I116
aI124
aa(lp259
I77
aI133
aI228
aa(lp260
I116
aI4
aa(lp261
I73
aI137
aI44
aI36
aa(lp262
I76
aI137
aI248
aa(lp263
I76
aI9
aI240
aa(lp264
I116
aI30
aa(lp265
I72
aI141
aI53
aI113
aI4
aI0
aI0
aa(lp266
I186
aI5
aI0
aI0
aI0
aa(lp267
I72
aI137
aI239
aa(lp268
I232
aI63
aI245
aI255
aI255
aa(lp269
I72
aI141
aI77
aI5
aa(lp270
I133
aI192
aa(lp271
I72
aI15
aI68
aI233
aa(lp272
I77
aI133
aI255
aa(lp273
I116
aI3
aa(lp274
I73
aI137
aI47
aa(lp275
I77
aI133
aI246
aa(lp276
I15
aI148
aI192
aa(lp277
I69
aI49
aI255
aa(lp278
I72
aI133
aI237
aa(lp279
I116
aI74
aa(lp280
I132
aI192
aa(lp281
I117
aI70
aa(lp282
I138
aI93
aI0
aa(lp283
I132
aI219
aa(lp284
I116
aI63
aa(lp285
I232
aI255
aI246
aI255
aI255
aa(lp286
I72
aI139
aI0
aa(lp287
I102
aI102
aI102
aI46
aI15
aI31
aI132
aa(lp288
I0
aI0
aI0
aI0
aI0
aa(lp289
I72
aI15
aI190
aI203
aa(lp290
I246
aI68
aI72
aI1
aI8
aa(lp291
I117
aI21
aa(lp292
I15
aI182
aI93
aI1
aa(lp293
I72
aI255
aI197
aa(lp294
I132
aI219
aa(lp295
I117
aI234
aa(lp296
I235
aI19
aa(lp297
I65
aI191
aI255
aI255
aI255
aI255
aa(lp298
I235
aI11
aa(lp299
I73
aI137
aI46
aa(lp300
I235
aI6
aa(lp301
I65
aI191
aI234
aI255
aI255
aI255
aa(lp302
I68
aI137
aI248
aa(lp303
I91
aa(lp304
I65
aI92
aa(lp305
I65
aI94
aa(lp306
I65
aI95
aa(lp307
I93
aa(lp308
I195
aasg13
(I4200528
I4200807
tp309
sg14
I3
sg15
g16
ssS'usage'
p310
(dp311
g7
g8
sg9
(lp312
sg11
(lp313
sg13
(tsg14
I0
sg15
g16
ssS'main'
p314
(dp315
g7
g8
sg9
(lp316
sg11
(lp317
(lp318
I85
aa(lp319
I65
aI87
aa(lp320
I65
aI86
aa(lp321
I65
aI84
aa(lp322
I83
aa(lp323
I72
aI129
aI236
aI176
aI0
aI0
aI0
aa(lp324
I73
aI137
aI246
aa(lp325
I137
aI251
aa(lp326
I191
aI6
aI0
aI0
aI0
aa(lp327
I190
aI158
aI28
aI64
aI0
aa(lp328
I232
aI141
aI254
aI255
aI255
aa(lp329
I191
aI216
aI26
aI64
aI0
aa(lp330
I190
aI227
aI26
aI64
aI0
aa(lp331
I232
aI78
aI253
aI255
aI255
aa(lp332
I191
aI216
aI26
aI64
aI0
aa(lp333
I232
aI52
aI253
aI255
aI255
aa(lp334
I191
aI80
aI21
aI64
aI0
aa(lp335
I232
aI186
aI8
aI0
aI0
aa(lp336
I69
aI49
aI255
aa(lp337
I186
aI245
aI26
aI64
aI0
aa(lp338
I185
aI80
aI26
aI64
aI0
aa(lp339
I69
aI49
aI192
aa(lp340
I137
aI223
aa(lp341
I76
aI137
aI246
aa(lp342
I232
aI64
aI253
aI255
aI255
aa(lp343
I131
aI248
aI103
aa(lp344
I15
aI142
aI46
aI1
aI0
aI0
aa(lp345
I65
aI191
aI1
aI0
aI0
aI0
aa(lp346
I131
aI248
aI118
aa(lp347
I116
aI213
aa(lp348
I131
aI248
aI104
aa(lp349
I15
aI133
aI65
aI3
aI0
aI0
aa(lp350
I72
aI139
aI29
aI164
aI31
aI32
aI0
aa(lp351
I49
aI255
aa(lp352
I190
aI72
aI28
aI64
aI0
aa(lp353
I186
aI5
aI0
aI0
aI0
aa(lp354
I232
aI251
aI252
aI255
aI255
aa(lp355
I72
aI137
aI199
aa(lp356
I72
aI137
aI222
aa(lp357
I232
aI80
aI253
aI255
aI255
aa(lp358
I49
aI255
aa(lp359
I190
aI81
aI28
aI64
aI0
aa(lp360
I186
aI5
aI0
aI0
aI0
aa(lp361
I232
aI223
aI252
aI255
aI255
aa(lp362
I72
aI137
aI193
aa(lp363
I72
aI139
aI21
aI101
aI31
aI32
aI0
aa(lp364
I49
aI192
aa(lp365
I72
aI137
aI223
aa(lp366
I72
aI137
aI206
aa(lp367
I232
aI104
aI253
aI255
aI255
aa(lp368
I191
aI10
aI0
aI0
aI0
aa(lp369
I72
aI137
aI222
aa(lp370
I232
aI75
aI253
aI255
aI255
aa(lp371
I49
aI255
aa(lp372
I190
aI104
aI28
aI64
aI0
aa(lp373
I186
aI5
aI0
aI0
aI0
aa(lp374
I232
aI170
aI252
aI255
aI255
aa(lp375
I72
aI137
aI199
aa(lp376
I72
aI137
aI222
aa(lp377
I232
aI255
aI252
aI255
aI255
aa(lp378
I49
aI255
aa(lp379
I190
aI159
aI28
aI64
aI0
aa(lp380
I186
aI5
aI0
aI0
aI0
aa(lp381
I232
aI142
aI252
aI255
aI255
aa(lp382
I72
aI137
aI199
aa(lp383
I72
aI137
aI222
aa(lp384
I232
aI227
aI252
aI255
aI255
aa(lp385
I49
aI255
aa(lp386
I190
aI170
aI28
aI64
aI0
aa(lp387
I186
aI5
aI0
aI0
aI0
aa(lp388
I232
aI114
aI252
aI255
aI255
aa(lp389
I72
aI137
aI199
aa(lp390
I72
aI137
aI222
aa(lp391
I232
aI199
aI252
aI255
aI255
aa(lp392
I49
aI255
aa(lp393
I190
aI243
aI28
aI64
aI0
aa(lp394
I186
aI5
aI0
aI0
aI0
aa(lp395
I232
aI86
aI252
aI255
aI255
aa(lp396
I72
aI137
aI195
aa(lp397
I49
aI255
aa(lp398
I190
aI20
aI29
aI64
aI0
aa(lp399
I186
aI5
aI0
aI0
aI0
aa(lp400
I232
aI66
aI252
aI255
aI255
aa(lp401
I72
aI137
aI197
aa(lp402
I191
aI214
aI28
aI64
aI0
aa(lp403
I190
aI231
aI28
aI64
aI0
aa(lp404
I185
aI5
aI29
aI64
aI0
aa(lp405
I49
aI192
aa(lp406
I72
aI137
aI218
aa(lp407
I73
aI137
aI232
aa(lp408
I232
aI67
aI252
aI255
aI255
aa(lp409
I49
aI255
aa(lp410
I190
aI36
aI29
aI64
aI0
aa(lp411
I186
aI5
aI0
aI0
aI0
aa(lp412
I232
aI18
aI252
aI255
aI255
aa(lp413
I72
aI137
aI193
aa(lp414
I190
aI63
aI29
aI64
aI0
aa(lp415
I49
aI192
aa(lp416
I72
aI137
aI207
aa(lp417
I232
aI32
aI252
aI255
aI255
aa(lp418
I49
aI255
aa(lp419
I232
aI89
aI253
aI255
aI255
aa(lp420
I131
aI248
aI255
aa(lp421
I15
aI133
aI122
aI1
aI0
aI0
aa(lp422
I76
aI99
aI37
aI137
aI30
aI32
aI0
aa(lp423
I232
aI52
aI5
aI0
aI0
aa(lp424
I137
aI197
aa(lp425
I133
aI237
aa(lp426
I15
aI136
aI158
aI1
aI0
aI0
aa(lp427
I137
aI239
aa(lp428
I232
aI227
aI252
aI255
aI255
aa(lp429
I72
aI137
aI195
aa(lp430
I72
aI133
aI219
aa(lp431
I117
aI72
aa(lp432
I72
aI137
aI227
aa(lp433
I190
aI25
aI0
aI0
aI0
aa(lp434
I186
aI77
aI27
aI64
aI0
aa(lp435
I185
aI83
aI27
aI64
aI0
aa(lp436
I49
aI192
aa(lp437
I72
aI137
aI223
aa(lp438
I65
aI137
aI232
aa(lp439
I232
aI236
aI251
aI255
aI255
aa(lp440
I69
aI133
aI255
aa(lp441
I116
aI36
aa(lp442
I72
aI137
aI227
aa(lp443
I49
aI255
aa(lp444
I190
aI97
aI27
aI64
aI0
aa(lp445
I186
aI5
aI0
aI0
aI0
aa(lp446
I232
aI147
aI251
aI255
aI255
aa(lp447
I72
aI137
aI193
aa(lp448
I49
aI192
aa(lp449
I72
aI137
aI207
aa(lp450
I72
aI137
aI222
aa(lp451
I232
aI179
aI251
aI255
aI255
aa(lp452
I49
aI246
aa(lp453
I49
aI192
aa(lp454
I72
aI137
aI223
aa(lp455
I232
aI183
aI252
aI255
aI255
aa(lp456
I137
aI197
aa(lp457
I133
aI237
aa(lp458
I15
aI136
aI94
aI1
aI0
aI0
aa(lp459
I72
aI141
aI84
aI36
aI32
aa(lp460
I191
aI1
aI0
aI0
aI0
aa(lp461
I137
aI238
aa(lp462
I232
aI92
aI252
aI255
aI255
aa(lp463
I133
aI192
aa(lp464
I15
aI133
aI78
aI1
aI0
aI0
aa(lp465
I75
aI139
aI60
aI230
aa(lp466
I72
aI133
aI255
aa(lp467
I116
aI56
aa(lp468
I232
aI246
aI251
aI255
aI255
aa(lp469
I133
aI192
aa(lp470
I116
aI90
aa(lp471
I131
aI248
aI1
aa(lp472
I15
aI133
aI60
aI1
aI0
aI0
aa(lp473
I139
aI116
aI36
aI56
aa(lp474
I131
aI206
aI16
aa(lp475
I137
aI239
aa(lp476
I232
aI91
aI252
aI255
aI255
aa(lp477
I133
aI192
aa(lp478
I15
aI136
aI138
aI1
aI0
aI0
aa(lp479
I49
aI219
aa(lp480
I69
aI133
aI255
aa(lp481
I116
aI109
aa(lp482
I49
aI255
aa(lp483
I190
aI214
aI27
aI64
aI0
aa(lp484
I235
aI82
aa(lp485
I137
aI239
aa(lp486
I232
aI140
aI251
aI255
aI255
aa(lp487
I246
aI68
aI36
aI56
aI18
aa(lp488
I116
aI111
aa(lp489
I49
aI219
aa(lp490
I49
aI255
aa(lp491
I190
aI182
aI27
aI64
aI0
aa(lp492
I186
aI5
aI0
aI0
aI0
aa(lp493
I232
aI242
aI250
aI255
aI255
aa(lp494
I72
aI137
aI199
aa(lp495
I232
aI154
aI250
aI255
aI255
aa(lp496
I235
aI64
aa(lp497
I139
aI116
aI36
aI56
aa(lp498
I131
aI230
aI237
aa(lp499
I137
aI239
aa(lp500
I232
aI10
aI252
aI255
aI255
aa(lp501
I133
aI192
aa(lp502
I15
aI136
aI57
aI1
aI0
aI0
aa(lp503
I187
aI1
aI0
aI0
aI0
aa(lp504
I69
aI133
aI255
aa(lp505
I116
aI25
aa(lp506
I49
aI255
aa(lp507
I190
aI255
aI27
aI64
aI0
aa(lp508
I186
aI5
aI0
aI0
aI0
aa(lp509
I232
aI183
aI250
aI255
aI255
aa(lp510
I72
aI137
aI199
aa(lp511
I232
aI95
aI250
aI255
aI255
aa(lp512
I137
aI239
aa(lp513
I232
aI40
aI251
aI255
aI255
aa(lp514
I137
aI216
aa(lp515
I72
aI129
aI196
aI176
aI0
aI0
aI0
aa(lp516
I91
aa(lp517
I65
aI92
aa(lp518
I65
aI94
aa(lp519
I65
aI95
aa(lp520
I93
aa(lp521
I195
aasg13
(I4198688
I4199746
tp522
sg14
I2
sg15
g16
ssS'fstat'
p523
(dp524
g7
g8
sg9
(lp525
sg11
(lp526
sg13
(tsg14
I2
sg15
g16
sssS'function_calls'
p527
(dp528
sS'binary_filename'
p529
S'mesg'
p530
sS'structures'
p531
(dp532
sS'extern_functions'
p533
(dp534
sS'arch'
p535
S'amd64'
p536
sS'bin_raw_bytes'
p537
g8
s.