(dp0
S'text_addr'
p1
S'0x400c50'
p2
sS'functions'
p3
(dp4
S'flush_standard_stream'
p5
(dp6
S'ret_type'
p7
S''
p8
sS'args_type'
p9
(lp10
sS'inst_bytes'
p11
(lp12
sS'boundaries'
p13
(tsS'num_args'
p14
I1
sS'inst_strings'
p15
(lp16
ssS'donice'
p17
(dp18
g7
g8
sg9
(lp19
sg11
(lp20
sg13
(tsg14
I3
sg15
g16
ssS'close_stdout'
p21
(dp22
g7
g8
sg9
(lp23
sg11
(lp24
(lp25
I65
aI86
aa(lp26
I83
aa(lp27
I80
aa(lp28
I72
aI139
aI29
aI77
aI13
aI32
aI0
aa(lp29
I232
aI16
aI247
aI255
aI255
aa(lp30
I73
aI137
aI198
aa(lp31
I65
aI199
aI6
aI0
aI0
aI0
aI0
aa(lp32
I72
aI137
aI223
aa(lp33
I232
aI62
aI247
aI255
aI255
aa(lp34
I133
aI192
aa(lp35
I15
aI133
aI163
aI0
aI0
aI0
aa(lp36
I72
aI137
aI223
aa(lp37
I232
aI46
aI248
aI255
aI255
aa(lp38
I133
aI192
aa(lp39
I116
aI69
aa(lp40
I65
aI139
aI30
aa(lp41
I131
aI251
aI9
aa(lp42
I116
aI9
aa(lp43
I131
aI251
aI32
aa(lp44
I15
aI133
aI156
aI0
aI0
aI0
aa(lp45
I72
aI139
aI29
aI34
aI13
aI32
aI0
aa(lp46
I65
aI199
aI6
aI0
aI0
aI0
aI0
aa(lp47
I72
aI137
aI223
aa(lp48
I232
aI3
aI247
aI255
aI255
aa(lp49
I133
aI192
aa(lp50
I117
aI98
aa(lp51
I72
aI137
aI223
aa(lp52
I232
aI247
aI247
aI255
aI255
aa(lp53
I133
aI192
aa(lp54
I116
aI50
aa(lp55
I65
aI131
aI62
aI9
aa(lp56
I117
aI80
aa(lp57
I72
aI131
aI196
aI8
aa(lp58
I91
aa(lp59
I65
aI94
aa(lp60
I195
aasg13
(I4199344
I4199629
tp61
sg14
I0
sg15
g16
ssS'close_stdout_atexit'
p62
(dp63
g7
g8
sg9
(lp64
sg11
(lp65
sg13
(tsg14
I0
sg15
g16
ssS'usage'
p66
(dp67
g7
g8
sg9
(lp68
sg11
(lp69
sg13
(tsg14
I0
sg15
g16
ssS'getprio'
p70
(dp71
g7
g8
sg9
(lp72
sg11
(lp73
sg13
(tsg14
I3
sg15
g16
ssS'main'
p74
(dp75
g7
g8
sg9
(lp76
sg11
(lp77
(lp78
I85
aa(lp79
I65
aI87
aa(lp80
I65
aI86
aa(lp81
I65
aI85
aa(lp82
I65
aI84
aa(lp83
I83
aa(lp84
I72
aI131
aI236
aI40
aa(lp85
I72
aI137
aI243
aa(lp86
I65
aI137
aI254
aa(lp87
I72
aI199
aI68
aI36
aI8
aI0
aI0
aa(lp88
I0
aI0
aa(lp89
I191
aI6
aI0
aI0
aI0
aa(lp90
I190
aI157
aI23
aI64
aI0
aa(lp91
I232
aI180
aI254
aI255
aI255
aa(lp92
I191
aI116
aI21
aI64
aI0
aa(lp93
I190
aI127
aI21
aI64
aI0
aa(lp94
I232
aI181
aI253
aI255
aI255
aa(lp95
I191
aI116
aI21
aI64
aI0
aa(lp96
I232
aI155
aI253
aI255
aI255
aa(lp97
I191
aI176
aI19
aI64
aI0
aa(lp98
I232
aI193
aI7
aI0
aI0
aa(lp99
I69
aI141
aI126
aI255
aa(lp100
I72
aI139
aI107
aI8
aa(lp101
I65
aI131
aI255
aI1
aa(lp102
I117
aI105
aa(lp103
I190
aI145
aI21
aI64
aI0
aa(lp104
I72
aI137
aI239
aa(lp105
I232
aI22
aI254
aI255
aI255
aa(lp106
I133
aI192
aa(lp107
I15
aI132
aI28
aI4
aI0
aI0
aa(lp108
I190
aI57
aI24
aI64
aI0
aa(lp109
I72
aI137
aI239
aa(lp110
I232
aI1
aI254
aI255
aI255
aa(lp111
I133
aI192
aa(lp112
I15
aI132
aI7
aI4
aI0
aI0
aa(lp113
I190
aI148
aI21
aI64
aI0
aa(lp114
I72
aI137
aI239
aa(lp115
I232
aI236
aI253
aI255
aI255
aa(lp116
I133
aI192
aa(lp117
I15
aI132
aI193
aI3
aI0
aI0
aa(lp118
I190
aI151
aI21
aI64
aI0
aa(lp119
I72
aI137
aI239
aa(lp120
I232
aI215
aI253
aI255
aI255
aa(lp121
I133
aI192
aa(lp122
I15
aI132
aI172
aI3
aI0
aI0
aa(lp123
I190
aI87
aI24
aI64
aI0
aa(lp124
I72
aI137
aI239
aa(lp125
I232
aI194
aI253
aI255
aI255
aa(lp126
I133
aI192
aa(lp127
I15
aI132
aI151
aI3
aI0
aI0
aa(lp128
I76
aI141
aI99
aI8
aa(lp129
I72
aI133
aI237
aa(lp130
I116
aI48
aa(lp131
I190
aI192
aI21
aI64
aI0
aa(lp132
I72
aI137
aI239
aa(lp133
I232
aI164
aI253
aI255
aI255
aa(lp134
I133
aI192
aa(lp135
I116
aI17
aa(lp136
I190
aI195
aI21
aI64
aI0
aa(lp137
I72
aI137
aI239
aa(lp138
I232
aI147
aI253
aI255
aI255
aa(lp139
I133
aI192
aa(lp140
I117
aI14
aa(lp141
I65
aI131
aI198
aI254
aa(lp142
I72
aI131
aI195
aI16
aa(lp143
I73
aI137
aI220
aa(lp144
I69
aI137
aI247
aa(lp145
I65
aI131
aI255
aI2
aa(lp146
I15
aI140
aI49
aI3
aI0
aI0
aa(lp147
I73
aI139
aI60
aI36
aa(lp148
I72
aI133
aI255
aa(lp149
I15
aI132
aI36
aI3
aI0
aI0
aa(lp150
I72
aI141
aI116
aI36
aI8
aa(lp151
I186
aI10
aI0
aI0
aI0
aa(lp152
I232
aI139
aI253
aI255
aI255
aa(lp153
I72
aI137
aI68
aI36
aI32
aa(lp154
I72
aI139
aI68
aI36
aI8
aa(lp155
I128
aI56
aI0
aa(lp156
I15
aI133
aI209
aI4
aI0
aI0
aa(lp157
I73
aI131
aI196
aI8
aa(lp158
I76
aI141
aI116
aI36
aI8
aa(lp159
I69
aI49
aI237
aa(lp160
I49
aI237
aa(lp161
I233
aI101
aI1
aI0
aI0
aa(lp162
I68
aI137
aI108
aI36
aI28
aa(lp163
I232
aI59
aI252
aI255
aI255
aa(lp164
I73
aI137
aI197
aa(lp165
I65
aI199
aI69
aI0
aI0
aI0
aI0
aI0
aa(lp166
I137
aI239
aa(lp167
I137
aI222
aa(lp168
I232
aI55
aI252
aI255
aI255
aa(lp169
I137
aI68
aI36
aI24
aa(lp170
I131
aI248
aI255
aa(lp171
I116
aI108
aa(lp172
I137
aI239
aa(lp173
I137
aI222
aa(lp174
I72
aI139
aI84
aI36
aI32
aa(lp175
I232
aI208
aI252
aI255
aI255
aa(lp176
I133
aI192
aa(lp177
I15
aI136
aI153
aI0
aI0
aI0
aa(lp178
I65
aI199
aI69
aI0
aI0
aI0
aI0
aI0
aa(lp179
I137
aI239
aa(lp180
I137
aI222
aa(lp181
I232
aI7
aI252
aI255
aI255
aa(lp182
I137
aI68
aI36
aI20
aa(lp183
I131
aI248
aI255
aa(lp184
I15
aI132
aI189
aI0
aI0
aI0
aa(lp185
I69
aI49
aI246
aa(lp186
I49
aI255
aa(lp187
I190
aI221
aI24
aI64
aI0
aa(lp188
I186
aI5
aI0
aI0
aI0
aa(lp189
I232
aI70
aI252
aI255
aI255
aa(lp190
I72
aI137
aI193
aa(lp191
I137
aI232
aa(lp192
I72
aI139
aI20
aI197
aI48
aI25
aI64
aI0
aa(lp193
I49
aI192
aa(lp194
I72
aI137
aI207
aa(lp195
I137
aI222
aa(lp196
I139
aI76
aI36
aI24
aa(lp197
I68
aI139
aI68
aI36
aI20
aa(lp198
I232
aI52
aI252
aI255
aI255
aa(lp199
I235
aI115
aa(lp200
I65
aI131
aI125
aI0
aI0
aa(lp201
I116
aI141
aa(lp202
I49
aI255
aa(lp203
I190
aI7
aI25
aI64
aI0
aa(lp204
I186
aI5
aI0
aI0
aI0
aa(lp205
I232
aI10
aI252
aI255
aI255
aa(lp206
I72
aI137
aI193
aa(lp207
I137
aI232
aa(lp208
I72
aI139
aI20
aI197
aI48
aI25
aI64
aI0
aa(lp209
I49
aI192
aa(lp210
I72
aI137
aI207
aa(lp211
I137
aI222
aa(lp212
I232
aI177
aI251
aI255
aI255
aa(lp213
I65
aI190
aI1
aI0
aI0
aI0
aa(lp214
I65
aI131
aI125
aI0
aI0
aa(lp215
I117
aI53
aa(lp216
I233
aI81
aI255
aI255
aI255
aa(lp217
I49
aI255
aa(lp218
I190
aI186
aI24
aI64
aI0
aa(lp219
I186
aI5
aI0
aI0
aI0
aa(lp220
I232
aI206
aI251
aI255
aI255
aa(lp221
I72
aI137
aI193
aa(lp222
I137
aI232
aa(lp223
I72
aI139
aI20
aI197
aI48
aI25
aI64
aI0
aa(lp224
I49
aI192
aa(lp225
I72
aI137
aI207
aa(lp226
I137
aI222
aa(lp227
I232
aI117
aI251
aI255
aI255
aa(lp228
I65
aI190
aI1
aI0
aI0
aI0
aa(lp229
I68
aI139
aI108
aI36
aI28
aa(lp230
I69
aI9
aI245
aa(lp231
I76
aI141
aI116
aI36
aI8
aa(lp232
I233
aI178
aI1
aI0
aI0
aa(lp233
I65
aI131
aI125
aI0
aI0
aa(lp234
I15
aI132
aI56
aI255
aI255
aI255
aa(lp235
I49
aI255
aa(lp236
I190
aI7
aI25
aI64
aI0
aa(lp237
I186
aI5
aI0
aI0
aI0
aa(lp238
I232
aI129
aI251
aI255
aI255
aa(lp239
I72
aI137
aI193
aa(lp240
I137
aI232
aa(lp241
I72
aI139
aI20
aI197
aI48
aI25
aI64
aI0
aa(lp242
I49
aI192
aa(lp243
I72
aI137
aI207
aa(lp244
I137
aI222
aa(lp245
I232
aI40
aI251
aI255
aI255
aa(lp246
I65
aI190
aI1
aI0
aI0
aI0
aa(lp247
I65
aI131
aI125
aI0
aI0
aa(lp248
I117
aI172
aa(lp249
I233
aI252
aI254
aI255
aI255
aa(lp250
I102
aI15
aI31
aI68
aI0
aI0
aa(lp251
I65
aI255
aI207
aa(lp252
I73
aI139
aI28
aI36
aa(lp253
I190
aI32
aI22
aI64
aI0
aa(lp254
I72
aI137
aI223
aa(lp255
I232
aI188
aI251
aI255
aI255
aa(lp256
I133
aI192
aa(lp257
I15
aI132
aI132
aI0
aI0
aI0
aa(lp258
I190
aI35
aI22
aI64
aI0
aa(lp259
I72
aI137
aI223
aa(lp260
I232
aI167
aI251
aI255
aI255
aa(lp261
I133
aI192
aa(lp262
I116
aI115
aa(lp263
I190
aI42
aI22
aI64
aI0
aa(lp264
I72
aI137
aI223
aa(lp265
I232
aI150
aI251
aI255
aI255
aa(lp266
I133
aI192
aa(lp267
I15
aI132
aI30
aI1
aI0
aI0
aa(lp268
I190
aI45
aI22
aI64
aI0
aa(lp269
I72
aI137
aI223
aa(lp270
I232
aI129
aI251
aI255
aI255
aa(lp271
I133
aI192
aa(lp272
I15
aI132
aI9
aI1
aI0
aI0
aa(lp273
I190
aI52
aI22
aI64
aI0
aa(lp274
I72
aI137
aI223
aa(lp275
I232
aI108
aI251
aI255
aI255
aa(lp276
I133
aI192
aa(lp277
I116
aI66
aa(lp278
I190
aI55
aI22
aI64
aI0
aa(lp279
I72
aI137
aI223
aa(lp280
I232
aI91
aI251
aI255
aI255
aa(lp281
I133
aI192
aa(lp282
I116
aI49
aa(lp283
I131
aI253
aI2
aa(lp284
I117
aI51
aa(lp285
I72
aI137
aI223
aa(lp286
I232
aI90
aI251
aI255
aI255
aa(lp287
I72
aI133
aI192
aa(lp288
I15
aI132
aI123
aI0
aI0
aI0
aa(lp289
I139
aI88
aI16
aa(lp290
I133
aI219
aa(lp291
I15
aI137
aI136
aI0
aI0
aI0
aa(lp292
I233
aI145
aI0
aI0
aI0
aa(lp293
I144
aa(lp294
I189
aI1
aI0
aI0
aI0
aa(lp295
I233
aI187
aI0
aI0
aI0
aa(lp296
I49
aI237
aa(lp297
I233
aI180
aI0
aI0
aI0
aa(lp298
I186
aI10
aI0
aI0
aI0
aa(lp299
I72
aI137
aI223
aa(lp300
I76
aI137
aI246
aa(lp301
I232
aI63
aI251
aI255
aI255
aa(lp302
I72
aI137
aI195
aa(lp303
I133
aI219
aa(lp304
I120
aI14
aa(lp305
I72
aI139
aI68
aI36
aI8
aa(lp306
I128
aI56
aI0
aa(lp307
I15
aI132
aI197
aI253
aI255
aI255
aa(lp308
I49
aI255
aa(lp309
I190
aI77
aI22
aI64
aI0
aa(lp310
I186
aI5
aI0
aI0
aI0
aa(lp311
I232
aI105
aI250
aI255
aI255
aa(lp312
I72
aI137
aI193
aa(lp313
I137
aI232
aa(lp314
I72
aI139
aI52
aI197
aI48
aI25
aI64
aI0
aa(lp315
I73
aI139
aI20
aI36
aa(lp316
I49
aI192
aa(lp317
I72
aI137
aI207
aa(lp318
I232
aI110
aI250
aI255
aI255
aa(lp319
I65
aI189
aI1
aI0
aI0
aI0
aa(lp320
I235
aI91
aa(lp321
I73
aI139
aI60
aI36
aa(lp322
I186
aI10
aI0
aI0
aI0
aa(lp323
I76
aI137
aI246
aa(lp324
I232
aI229
aI250
aI255
aI255
aa(lp325
I72
aI137
aI195
aa(lp326
I133
aI219
aa(lp327
I120
aI14
aa(lp328
I72
aI139
aI68
aI36
aI8
aa(lp329
I128
aI56
aI0
aa(lp330
I15
aI132
aI107
aI253
aI255
aI255
aa(lp331
I49
aI255
aa(lp332
I190
aI61
aI22
aI64
aI0
aa(lp333
I186
aI5
aI0
aI0
aI0
aa(lp334
I232
aI15
aI250
aI255
aI255
aa(lp335
I72
aI137
aI193
aa(lp336
I73
aI139
aI52
aI36
aa(lp337
I49
aI192
aa(lp338
I72
aI137
aI207
aa(lp339
I232
aI30
aI250
aI255
aI255
aa(lp340
I65
aI189
aI1
aI0
aI0
aI0
aa(lp341
I15
aI31
aI132
aI0
aI0
aI0
aI0
aI0
aa(lp342
I189
aI2
aI0
aI0
aI0
aa(lp343
I73
aI131
aI196
aI8
aa(lp344
I65
aI131
aI255
aI1
aa(lp345
I15
aI143
aI141
aI254
aI255
aI255
aa(lp346
I49
aI192
aa(lp347
I69
aI133
aI237
aa(lp348
I15
aI149
aI192
aa(lp349
I72
aI131
aI196
aI40
aa(lp350
I91
aa(lp351
I65
aI92
aa(lp352
I65
aI93
aa(lp353
I65
aI94
aa(lp354
I65
aI95
aa(lp355
I93
aa(lp356
I195
aasg13
(I4197696
I4199332
tp357
sg14
I2
sg15
g16
sssS'function_calls'
p358
(dp359
sS'binary_filename'
p360
S'renice'
p361
sS'structures'
p362
(dp363
sS'extern_functions'
p364
(dp365
sS'arch'
p366
S'amd64'
p367
sS'bin_raw_bytes'
p368
g8
s.