(dp0
S'text_addr'
p1
S'0x401050'
p2
sS'functions'
p3
(dp4
S'flush_standard_stream'
p5
(dp6
S'ret_type'
p7
S''
p8
sS'args_type'
p9
(lp10
sS'inst_bytes'
p11
(lp12
sS'boundaries'
p13
(tsS'num_args'
p14
I1
sS'inst_strings'
p15
(lp16
ssS'rubchars'
p17
(dp18
g7
g8
sg9
(lp19
sg11
(lp20
sg13
(tsg14
I3
sg15
g16
ssS'trim_trailing_spaces'
p21
(dp22
g7
g8
sg9
(lp23
sg11
(lp24
sg13
(tsg14
I1
sg15
g16
ssS'close_stdout'
p25
(dp26
g7
g8
sg9
(lp27
sg11
(lp28
(lp29
I65
aI86
aa(lp30
I83
aa(lp31
I80
aa(lp32
I72
aI139
aI29
aI13
aI26
aI32
aI0
aa(lp33
I232
aI224
aI246
aI255
aI255
aa(lp34
I73
aI137
aI198
aa(lp35
I65
aI199
aI6
aI0
aI0
aI0
aI0
aa(lp36
I72
aI137
aI223
aa(lp37
I232
aI254
aI246
aI255
aI255
aa(lp38
I133
aI192
aa(lp39
I15
aI133
aI163
aI0
aI0
aI0
aa(lp40
I72
aI137
aI223
aa(lp41
I232
aI78
aI248
aI255
aI255
aa(lp42
I133
aI192
aa(lp43
I116
aI69
aa(lp44
I65
aI139
aI30
aa(lp45
I131
aI251
aI9
aa(lp46
I116
aI9
aa(lp47
I131
aI251
aI32
aa(lp48
I15
aI133
aI156
aI0
aI0
aI0
aa(lp49
I72
aI139
aI29
aI226
aI25
aI32
aI0
aa(lp50
I65
aI199
aI6
aI0
aI0
aI0
aI0
aa(lp51
I72
aI137
aI223
aa(lp52
I232
aI195
aI246
aI255
aI255
aa(lp53
I133
aI192
aa(lp54
I117
aI98
aa(lp55
I72
aI137
aI223
aa(lp56
I232
aI23
aI248
aI255
aI255
aa(lp57
I133
aI192
aa(lp58
I116
aI50
aa(lp59
I65
aI131
aI62
aI9
aa(lp60
I117
aI80
aa(lp61
I72
aI131
aI196
aI8
aa(lp62
I91
aa(lp63
I65
aI94
aa(lp64
I195
aasg13
(I4200240
I4200525
tp65
sg14
I0
sg15
g16
ssS'output_lines'
p66
(dp67
g7
g8
sg9
(lp68
sg11
(lp69
(lp70
I85
aa(lp71
I65
aI87
aa(lp72
I65
aI86
aa(lp73
I83
aa(lp74
I80
aa(lp75
I65
aI137
aI246
aa(lp76
I73
aI137
aI255
aa(lp77
I73
aI141
aI111
aI8
aa(lp78
I72
aI137
aI239
aa(lp79
I232
aI103
aI246
aI255
aI255
aa(lp80
I72
aI133
aI192
aa(lp81
I116
aI48
aa(lp82
I73
aI141
aI76
aI135
aI4
aa(lp83
I102
aI102
aI102
aI102
aI46
aI15
aI31
aa(lp84
I132
aI0
aI0
aI0
aI0
aI0
aa(lp85
I72
aI137
aI203
aa(lp86
I72
aI57
aI235
aa(lp87
I114
aI15
aa(lp88
I139
aI59
aa(lp89
I232
aI97
aI247
aI255
aI255
aa(lp90
I72
aI141
aI75
aI252
aa(lp91
I133
aI192
aa(lp92
I117
aI233
aa(lp93
I199
aI67
aI4
aI0
aI0
aI0
aI0
aa(lp94
I72
aI139
aI53
aI163
aI24
aI32
aI0
aa(lp95
I72
aI137
aI239
aa(lp96
I232
aI227
aI246
aI255
aI255
aa(lp97
I65
aI138
aI135
aI48
aI4
aI0
aI0
aa(lp98
I168
aI1
aa(lp99
I116
aI24
aa(lp100
I72
aI139
aI53
aI137
aI24
aI32
aI0
aa(lp101
I191
aI10
aI0
aI0
aI0
aa(lp102
I232
aI39
aI246
aI255
aI255
aa(lp103
I65
aI138
aI135
aI48
aI4
aI0
aI0
aa(lp104
I168
aI12
aa(lp105
I117
aI9
aa(lp106
I36
aI254
aa(lp107
I65
aI136
aI135
aI48
aI4
aI0
aI0
aa(lp108
I49
aI246
aa(lp109
I186
aI132
aI0
aI0
aI0
aa(lp110
I72
aI137
aI239
aa(lp111
I232
aI68
aI246
aI255
aI255
aa(lp112
I65
aI138
aI135
aI48
aI4
aI0
aI0
aa(lp113
I168
aI2
aa(lp114
I117
aI44
aa(lp115
I69
aI133
aI246
aa(lp116
I15
aI142
aI186
aI0
aI0
aI0
aa(lp117
I36
aI8
aa(lp118
I15
aI132
aI178
aI0
aI0
aI0
aa(lp119
I72
aI139
aI53
aI57
aI24
aI32
aI0
aa(lp120
I191
aI10
aI0
aI0
aI0
aa(lp121
I72
aI131
aI196
aI8
aa(lp122
I91
aa(lp123
I65
aI94
aa(lp124
I65
aI95
aa(lp125
I93
aa(lp126
I233
aI205
aI245
aI255
aI255
aa(lp127
I36
aI253
aa(lp128
I65
aI136
aI135
aI48
aI4
aI0
aI0
aa(lp129
I73
aI99
aI198
aa(lp130
I73
aI141
aI175
aI28
aI2
aI0
aI0
aa(lp131
I65
aI199
aI132
aI135
aI28
aI2
aI0
aa(lp132
I0
aI0
aI0
aI0
aI0
aa(lp133
I72
aI137
aI239
aa(lp134
I232
aI134
aI245
aI255
aI255
aa(lp135
I72
aI133
aI192
aa(lp136
I116
aI47
aa(lp137
I73
aI141
aI140
aI135
aI24
aI2
aI0
aI0
aa(lp138
I102
aI15
aI31
aI132
aI0
aI0
aI0
aa(lp139
I0
aI0
aa(lp140
I72
aI137
aI203
aa(lp141
I72
aI57
aI235
aa(lp142
I114
aI15
aa(lp143
I139
aI59
aa(lp144
I232
aI129
aI246
aI255
aI255
aa(lp145
I72
aI141
aI75
aI252
aa(lp146
I133
aI192
aa(lp147
I117
aI233
aa(lp148
I199
aI67
aI4
aI0
aI0
aI0
aI0
aa(lp149
I72
aI139
aI53
aI195
aI23
aI32
aI0
aa(lp150
I72
aI137
aI239
aa(lp151
I232
aI3
aI246
aI255
aI255
aa(lp152
I72
aI139
aI53
aI180
aI23
aI32
aI0
aa(lp153
I191
aI10
aI0
aI0
aI0
aa(lp154
I232
aI82
aI245
aI255
aI255
aa(lp155
I190
aI32
aI0
aI0
aI0
aa(lp156
I186
aI132
aI0
aI0
aI0
aa(lp157
I72
aI137
aI239
aa(lp158
I72
aI131
aI196
aI8
aa(lp159
I91
aa(lp160
I65
aI94
aa(lp161
I65
aI95
aa(lp162
I93
aa(lp163
I233
aI118
aI245
aI255
aI255
aa(lp164
I72
aI131
aI196
aI8
aa(lp165
I91
aa(lp166
I65
aI94
aa(lp167
I65
aI95
aa(lp168
I93
aa(lp169
I195
aasg13
(I4200528
I4200901
tp170
sg14
I2
sg15
g16
ssS'close_stdout_atexit'
p171
(dp172
g7
g8
sg9
(lp173
sg11
(lp174
sg13
(tsg14
I0
sg15
g16
ssS'usage'
p175
(dp176
g7
g8
sg9
(lp177
sg11
(lp178
sg13
(tsg14
I0
sg15
g16
ssS'colcrt'
p179
(dp180
g7
g8
sg9
(lp181
sg11
(lp182
sg13
(tsg14
I1
sg15
g16
ssS'main'
p183
(dp184
g7
g8
sg9
(lp185
sg11
(lp186
(lp187
I85
aa(lp188
I65
aI87
aa(lp189
I65
aI86
aa(lp190
I65
aI85
aa(lp191
I65
aI84
aa(lp192
I83
aa(lp193
I72
aI129
aI236
aI56
aI4
aI0
aI0
aa(lp194
I73
aI137
aI246
aa(lp195
I65
aI137
aI253
aa(lp196
I72
aI137
aI231
aa(lp197
I49
aI237
aa(lp198
I49
aI246
aa(lp199
I186
aI56
aI4
aI0
aI0
aa(lp200
I232
aI168
aI253
aI255
aI255
aa(lp201
I191
aI6
aI0
aI0
aI0
aa(lp202
I190
aI255
aI28
aI64
aI0
aa(lp203
I232
aI105
aI254
aI255
aI255
aa(lp204
I191
aI42
aI28
aI64
aI0
aa(lp205
I190
aI53
aI28
aI64
aI0
aa(lp206
I232
aI250
aI252
aI255
aI255
aa(lp207
I191
aI42
aI28
aI64
aI0
aa(lp208
I232
aI208
aI252
aI255
aI255
aa(lp209
I191
aI48
aI23
aI64
aI0
aa(lp210
I232
aI182
aI8
aI0
aI0
aa(lp211
I69
aI49
aI255
aa(lp212
I69
aI133
aI237
aa(lp213
I126
aI108
aa(lp214
I102
aI102
aI102
aI102
aI102
aI46
aI15
aa(lp215
I31
aI132
aI0
aI0
aI0
aI0
aI0
aa(lp216
I72
aI99
aI221
aa(lp217
I73
aI139
aI4
aI222
aa(lp218
I128
aI56
aI45
aa(lp219
I117
aI52
aa(lp220
I128
aI120
aI1
aI0
aa(lp221
I117
aI46
aa(lp222
I73
aI141
aI60
aI222
aa(lp223
I65
aI128
aI207
aI4
aa(lp224
I68
aI136
aI188
aI36
aI48
aI4
aI0
aI0
aa(lp225
I65
aI255
aI205
aa(lp226
I68
aI137
aI232
aa(lp227
I41
aI216
aa(lp228
I72
aI99
aI208
aa(lp229
I72
aI193
aI226
aI3
aa(lp230
I72
aI141
aI119
aI8
aa(lp231
I232
aI22
aI254
aI255
aI255
aa(lp232
I255
aI203
aa(lp233
I137
aI221
aa(lp234
I102
aI144
aa(lp235
I255
aI197
aa(lp236
I68
aI57
aI237
aa(lp237
I124
aI185
aa(lp238
I235
aI21
aa(lp239
I15
aI31
aI128
aI0
aI0
aI0
aI0
aa(lp240
I65
aI32
aI207
aa(lp241
I65
aI8
aI199
aa(lp242
I68
aI136
aI188
aI36
aI48
aI4
aI0
aI0
aa(lp243
I186
aI71
aI28
aI64
aI0
aa(lp244
I185
aI112
aI27
aI64
aI0
aa(lp245
I69
aI49
aI192
aa(lp246
I68
aI137
aI239
aa(lp247
I76
aI137
aI246
aa(lp248
I232
aI122
aI252
aI255
aI255
aa(lp249
I131
aI248
aI85
aa(lp250
I127
aI21
aa(lp251
I131
aI248
aI255
aa(lp252
I116
aI33
aa(lp253
I131
aI248
aI50
aa(lp254
I15
aI133
aI178
aI4
aI0
aI0
aa(lp255
I176
aI8
aa(lp256
I177
aI247
aa(lp257
I235
aI193
aa(lp258
I144
aa(lp259
I61
aI128
aI0
aI0
aI0
aa(lp260
I15
aI133
aI26
aI3
aI0
aI0
aa(lp261
I176
aI4
aa(lp262
I177
aI251
aa(lp263
I235
aI175
aa(lp264
I72
aI99
aI5
aI0
aI31
aI32
aI0
aa(lp265
I65
aI41
aI197
aa(lp266
I77
aI141
aI52
aI198
aa(lp267
I76
aI141
aI188
aI36
aI28
aI2
aI0
aI0
aa(lp268
I73
aI137
aI228
aa(lp269
I102
aI15
aI31
aI68
aI0
aI0
aa(lp270
I49
aI246
aa(lp271
I186
aI132
aI0
aI0
aI0
aa(lp272
I72
aI141
aI124
aI36
aI8
aa(lp273
I232
aI175
aI252
aI255
aI255
aa(lp274
I190
aI32
aI0
aI0
aI0
aa(lp275
I186
aI132
aI0
aI0
aI0
aa(lp276
I76
aI137
aI255
aa(lp277
I232
aI157
aI252
aI255
aI255
aa(lp278
I69
aI133
aI237
aa(lp279
I126
aI40
aa(lp280
I73
aI139
aI62
aa(lp281
I190
aI177
aI28
aI64
aI0
aa(lp282
I232
aI107
aI253
aI255
aI255
aa(lp283
I72
aI137
aI4
aI36
aa(lp284
I72
aI133
aI192
aa(lp285
I15
aI132
aI141
aI2
aI0
aI0
aa(lp286
I65
aI255
aI205
aa(lp287
I73
aI131
aI198
aI8
aa(lp288
I235
aI16
aa(lp289
I15
aI31
aI68
aI0
aI0
aa(lp290
I72
aI139
aI5
aI137
aI30
aI32
aI0
aa(lp291
I72
aI137
aI4
aI36
aa(lp292
I138
aI132
aI36
aI48
aI4
aI0
aI0
aa(lp293
I137
aI193
aa(lp294
I128
aI201
aI1
aa(lp295
I136
aI140
aI36
aI48
aI4
aI0
aI0
aa(lp296
I168
aI8
aa(lp297
I116
aI17
aa(lp298
I72
aI139
aI53
aI95
aI30
aI32
aI0
aa(lp299
I191
aI10
aI0
aI0
aI0
aa(lp300
I232
aI253
aI251
aI255
aI255
aa(lp301
I49
aI219
aa(lp302
I129
aI251
aI132
aI0
aI0
aI0
aa(lp303
I15
aI141
aI77
aI1
aI0
aI0
aa(lp304
I233
aI218
aI1
aI0
aI0
aa(lp305
I246
aI195
aI7
aa(lp306
I15
aI132
aI225
aI0
aI0
aI0
aa(lp307
I72
aI99
aI195
aa(lp308
I72
aI255
aI192
aa(lp309
I102
aI102
aI46
aI15
aI31
aI132
aI0
aa(lp310
I0
aI0
aI0
aI0
aa(lp311
I199
aI68
aI132
aI4
aI32
aI0
aI0
aI0
aa(lp312
I255
aI195
aa(lp313
I72
aI61
aI131
aI0
aI0
aI0
aa(lp314
I15
aI143
aI186
aI0
aI0
aI0
aa(lp315
I137
aI217
aa(lp316
I131
aI225
aI7
aa(lp317
I72
aI255
aI192
aa(lp318
I133
aI201
aa(lp319
I117
aI222
aa(lp320
I233
aI169
aI0
aI0
aI0
aa(lp321
I102
aI15
aI31
aI132
aI0
aI0
aI0
aa(lp322
I0
aI0
aa(lp323
I131
aI253
aI95
aa(lp324
I117
aI59
aa(lp325
I72
aI99
aI195
aa(lp326
I199
aI68
aI132
aI8
aI32
aI0
aI0
aI0
aa(lp327
I138
aI140
aI36
aI48
aI4
aI0
aI0
aa(lp328
I246
aI193
aI4
aa(lp329
I15
aI133
aI208
aI0
aI0
aI0
aa(lp330
I128
aI201
aI2
aa(lp331
I136
aI140
aI36
aI48
aI4
aI0
aI0
aa(lp332
I199
aI132
aI132
aI28
aI2
aI0
aI0
aa(lp333
I45
aI0
aI0
aI0
aa(lp334
I233
aI182
aI0
aI0
aI0
aa(lp335
I102
aI15
aI31
aI68
aI0
aI0
aa(lp336
I137
aI239
aa(lp337
I232
aI169
aI252
aI255
aI255
aa(lp338
I133
aI192
aa(lp339
I116
aI85
aa(lp340
I128
aI140
aI36
aI48
aI4
aI0
aI0
aa(lp341
I1
aa(lp342
I72
aI99
aI195
aa(lp343
I137
aI108
aI132
aI8
aa(lp344
I233
aI145
aI0
aI0
aI0
aa(lp345
I76
aI137
aI231
aa(lp346
I137
aI222
aa(lp347
I232
aI151
aI4
aI0
aI0
aa(lp348
I233
aI18
aI1
aI0
aI0
aa(lp349
I72
aI139
aI60
aI36
aa(lp350
I232
aI9
aI252
aI255
aI255
aa(lp351
I131
aI248
aI55
aa(lp352
I116
aI40
aa(lp353
I131
aI248
aI56
aa(lp354
I117
aI111
aa(lp355
I133
aI219
aa(lp356
I126
aI107
aa(lp357
I72
aI99
aI195
aa(lp358
I199
aI68
aI132
aI8
aI0
aI0
aI0
aI0
aa(lp359
I199
aI132
aI132
aI28
aI2
aI0
aI0
aa(lp360
I32
aI0
aI0
aI0
aa(lp361
I15
aI31
aI68
aI0
aI0
aa(lp362
I255
aI203
aa(lp363
I235
aI76
aa(lp364
I133
aI219
aa(lp365
I126
aI72
aa(lp366
I72
aI99
aI195
aa(lp367
I199
aI68
aI132
aI8
aI0
aI0
aI0
aI0
aa(lp368
I199
aI132
aI132
aI28
aI2
aI0
aI0
aa(lp369
I32
aI0
aI0
aI0
aa(lp370
I131
aI251
aI1
aa(lp371
I126
aI25
aa(lp372
I199
aI68
aI132
aI4
aI0
aI0
aI0
aI0
aa(lp373
I199
aI132
aI132
aI24
aI2
aI0
aI0
aa(lp374
I32
aI0
aI0
aI0
aa(lp375
I72
aI131
aI192
aI254
aa(lp376
I235
aI3
aa(lp377
I72
aI255
aI200
aa(lp378
I72
aI137
aI195
aa(lp379
I102
aI102
aI102
aI102
aI102
aI46
aI15
aa(lp380
I31
aI132
aI0
aI0
aI0
aI0
aI0
aa(lp381
I255
aI195
aa(lp382
I129
aI251
aI132
aI0
aI0
aI0
aa(lp383
I15
aI140
aI146
aI0
aI0
aI0
aa(lp384
I76
aI137
aI231
aa(lp385
I137
aI222
aa(lp386
I232
aI248
aI3
aI0
aI0
aa(lp387
I232
aI195
aI249
aI255
aI255
aa(lp388
I199
aI0
aI0
aI0
aI0
aI0
aa(lp389
I72
aI139
aI60
aI36
aa(lp390
I232
aI244
aI250
aI255
aI255
aa(lp391
I72
aI137
aI195
aa(lp392
I144
aa(lp393
I72
aI139
aI60
aI36
aa(lp394
I232
aI87
aI251
aI255
aI255
aa(lp395
I131
aI248
aI10
aa(lp396
I116
aI82
aa(lp397
I72
aI139
aI44
aI36
aa(lp398
I72
aI137
aI239
aa(lp399
I232
aI198
aI249
aI255
aI255
aa(lp400
I133
aI192
aa(lp401
I15
aI133
aI126
aI0
aI0
aI0
aa(lp402
I72
aI137
aI239
aa(lp403
I232
aI214
aI250
aI255
aI255
aa(lp404
I133
aI192
aa(lp405
I117
aI114
aa(lp406
I72
aI139
aI60
aI36
aa(lp407
I232
aI185
aI250
aI255
aI255
aa(lp408
I72
aI57
aI195
aa(lp409
I117
aI192
aa(lp410
I72
aI139
aI60
aI36
aa(lp411
I190
aI1
aI0
aI0
aI0
aa(lp412
I186
aI1
aI0
aI0
aI0
aa(lp413
I232
aI1
aI251
aI255
aI255
aa(lp414
I133
aI192
aa(lp415
I127
aI173
aa(lp416
I235
aI75
aa(lp417
I102
aI102
aI46
aI15
aI31
aI132
aI0
aa(lp418
I0
aI0
aI0
aI0
aa(lp419
I187
aI255
aI255
aI255
aI255
aa(lp420
I233
aI102
aI255
aI255
aI255
aa(lp421
I102
aI15
aI31
aI68
aI0
aI0
aa(lp422
I72
aI139
aI60
aI36
aa(lp423
I232
aI231
aI250
aI255
aI255
aa(lp424
I137
aI197
aa(lp425
I141
aI69
aI1
aa(lp426
I131
aI248
aI28
aa(lp427
I15
aI135
aI89
aI254
aI255
aI255
aa(lp428
I255
aI36
aI197
aI128
aI26
aI64
aI0
aa(lp429
I128
aI164
aI36
aI48
aI4
aI0
aI0
aa(lp430
I254
aa(lp431
I76
aI137
aI231
aa(lp432
I137
aI222
aa(lp433
I232
aI64
aI3
aI0
aI0
aa(lp434
I72
aI139
aI60
aI36
aa(lp435
I72
aI59
aI61
aI53
aI28
aI32
aI0
aa(lp436
I116
aI5
aa(lp437
I232
aI78
aI249
aI255
aI255
aa(lp438
I69
aI133
aI237
aa(lp439
I15
aI143
aI69
aI253
aI255
aI255
aa(lp440
I49
aI192
aa(lp441
I72
aI129
aI196
aI56
aI4
aI0
aI0
aa(lp442
I91
aa(lp443
I65
aI92
aa(lp444
I65
aI93
aa(lp445
I65
aI94
aa(lp446
I65
aI95
aa(lp447
I93
aa(lp448
I195
aasg13
(I4198720
I4200228
tp449
sg14
I2
sg15
g16
sssS'function_calls'
p450
(dp451
sS'binary_filename'
p452
S'colcrt'
p453
sS'structures'
p454
(dp455
sS'extern_functions'
p456
(dp457
sS'arch'
p458
S'amd64'
p459
sS'bin_raw_bytes'
p460
g8
s.