(dp0
S'text_addr'
p1
S'0x400d50'
p2
sS'functions'
p3
(dp4
S'flush_standard_stream'
p5
(dp6
S'ret_type'
p7
S''
p8
sS'args_type'
p9
(lp10
sS'inst_bytes'
p11
(lp12
sS'boundaries'
p13
(tsS'num_args'
p14
I1
sS'inst_strings'
p15
(lp16
ssS'xasprintf'
p17
(dp18
g7
g8
sg9
(lp19
sg11
(lp20
(lp21
I72
aI129
aI236
aI216
aI0
aI0
aI0
aa(lp22
I132
aI192
aa(lp23
I116
aI55
aa(lp24
I15
aI41
aI68
aI36
aI80
aa(lp25
I15
aI41
aI76
aI36
aI96
aa(lp26
I15
aI41
aI84
aI36
aI112
aa(lp27
I15
aI41
aI156
aI36
aI128
aI0
aI0
aI0
aa(lp28
I15
aI41
aI164
aI36
aI144
aI0
aI0
aI0
aa(lp29
I15
aI41
aI172
aI36
aI160
aI0
aI0
aI0
aa(lp30
I15
aI41
aI180
aI36
aI176
aI0
aI0
aI0
aa(lp31
I15
aI41
aI188
aI36
aI192
aI0
aI0
aI0
aa(lp32
I76
aI137
aI76
aI36
aI72
aa(lp33
I76
aI137
aI68
aI36
aI64
aa(lp34
I72
aI137
aI76
aI36
aI56
aa(lp35
I72
aI137
aI84
aI36
aI48
aa(lp36
I72
aI141
aI68
aI36
aI32
aa(lp37
I72
aI137
aI68
aI36
aI16
aa(lp38
I72
aI141
aI132
aI36
aI224
aI0
aI0
aI0
aa(lp39
I72
aI137
aI68
aI36
aI8
aa(lp40
I199
aI68
aI36
aI4
aI48
aI0
aI0
aI0
aa(lp41
I199
aI4
aI36
aI16
aI0
aI0
aI0
aa(lp42
I72
aI137
aI226
aa(lp43
I190
aI248
aI21
aI64
aI0
aa(lp44
I232
aI87
aI249
aI255
aI255
aa(lp45
I133
aI192
aa(lp46
I120
aI8
aa(lp47
I72
aI129
aI196
aI216
aI0
aI0
aI0
aa(lp48
I195
aasg13
(I4198976
I4199142
tp49
sg14
I2
sg15
g16
ssS'close_stdout'
p50
(dp51
g7
g8
sg9
(lp52
sg11
(lp53
(lp54
I65
aI86
aa(lp55
I83
aa(lp56
I80
aa(lp57
I72
aI139
aI29
aI13
aI14
aI32
aI0
aa(lp58
I232
aI208
aI248
aI255
aI255
aa(lp59
I73
aI137
aI198
aa(lp60
I65
aI199
aI6
aI0
aI0
aI0
aI0
aa(lp61
I72
aI137
aI223
aa(lp62
I232
aI238
aI248
aI255
aI255
aa(lp63
I133
aI192
aa(lp64
I15
aI133
aI163
aI0
aI0
aI0
aa(lp65
I72
aI137
aI223
aa(lp66
I232
aI222
aI249
aI255
aI255
aa(lp67
I133
aI192
aa(lp68
I116
aI69
aa(lp69
I65
aI139
aI30
aa(lp70
I131
aI251
aI9
aa(lp71
I116
aI9
aa(lp72
I131
aI251
aI32
aa(lp73
I15
aI133
aI156
aI0
aI0
aI0
aa(lp74
I72
aI139
aI29
aI2
aI14
aI32
aI0
aa(lp75
I65
aI199
aI6
aI0
aI0
aI0
aI0
aa(lp76
I72
aI137
aI223
aa(lp77
I232
aI179
aI248
aI255
aI255
aa(lp78
I133
aI192
aa(lp79
I117
aI98
aa(lp80
I72
aI137
aI223
aa(lp81
I232
aI167
aI249
aI255
aI255
aa(lp82
I133
aI192
aa(lp83
I116
aI50
aa(lp84
I65
aI131
aI62
aI9
aa(lp85
I117
aI80
aa(lp86
I72
aI131
aI196
aI8
aa(lp87
I91
aa(lp88
I65
aI94
aa(lp89
I195
aasg13
(I4199152
I4199437
tp90
sg14
I0
sg15
g16
ssS'close_stdout_atexit'
p91
(dp92
g7
g8
sg9
(lp93
sg11
(lp94
sg13
(tsg14
I0
sg15
g16
ssS'usage'
p95
(dp96
g7
g8
sg9
(lp97
sg11
(lp98
sg13
(tsg14
I0
sg15
g16
ssS'main'
p99
(dp100
g7
g8
sg9
(lp101
sg11
(lp102
(lp103
I85
aa(lp104
I65
aI87
aa(lp105
I65
aI86
aa(lp106
I83
aa(lp107
I80
aa(lp108
I73
aI137
aI247
aa(lp109
I137
aI253
aa(lp110
I191
aI6
aI0
aI0
aI0
aa(lp111
I190
aI129
aI22
aI64
aI0
aa(lp112
I232
aI181
aI254
aI255
aI255
aa(lp113
I191
aI109
aI21
aI64
aI0
aa(lp114
I190
aI120
aI21
aI64
aI0
aa(lp115
I232
aI198
aI253
aI255
aI255
aa(lp116
I191
aI109
aI21
aI64
aI0
aa(lp117
I232
aI156
aI253
aI255
aI255
aa(lp118
I191
aI240
aI18
aI64
aI0
aa(lp119
I232
aI18
aI6
aI0
aI0
aa(lp120
I131
aI253
aI2
aa(lp121
I117
aI22
aa(lp122
I73
aI139
aI127
aI8
aa(lp123
I190
aI138
aI21
aI64
aI0
aa(lp124
I232
aI47
aI254
aI255
aI255
aa(lp125
I133
aI192
aa(lp126
I15
aI132
aI64
aI1
aI0
aI0
aa(lp127
I199
aI5
aI125
aI18
aI32
aI0
aI0
aa(lp128
I0
aI0
aI0
aa(lp129
I49
aI219
aa(lp130
I69
aI49
aI246
aa(lp131
I235
aI9
aa(lp132
I102
aI15
aI31
aI68
aI0
aI0
aa(lp133
I65
aI255
aI198
aa(lp134
I186
aI179
aI21
aI64
aI0
aa(lp135
I185
aI192
aI20
aI64
aI0
aa(lp136
I69
aI49
aI192
aa(lp137
I137
aI239
aa(lp138
I76
aI137
aI254
aa(lp139
I232
aI134
aI253
aI255
aI255
aa(lp140
I131
aI248
aI103
aa(lp141
I127
aI17
aa(lp142
I131
aI248
aI255
aa(lp143
I116
aI26
aa(lp144
I131
aI248
aI86
aa(lp145
I116
aI215
aa(lp146
I235
aI54
aa(lp147
I15
aI31
aI68
aI0
aI0
aa(lp148
I131
aI248
aI116
aa(lp149
I117
aI24
aa(lp150
I72
aI139
aI29
aI44
aI18
aI32
aI0
aa(lp151
I235
aI197
aa(lp152
I139
aI5
aI28
aI18
aI32
aI0
aa(lp153
I57
aI232
aa(lp154
I117
aI47
aa(lp155
I233
aI176
aI2
aI0
aI0
aa(lp156
I131
aI248
aI104
aa(lp157
I15
aI132
aI4
aI1
aI0
aI0
aa(lp158
I61
aI128
aI0
aI0
aI0
aa(lp159
I15
aI132
aI200
aI0
aI0
aI0
aa(lp160
I139
aI5
aI249
aI17
aI32
aI0
aa(lp161
I255
aI200
aa(lp162
I137
aI5
aI241
aI17
aI32
aI0
aa(lp163
I57
aI232
aa(lp164
I15
aI132
aI134
aI2
aI0
aI0
aa(lp165
I72
aI133
aI219
aa(lp166
I186
aI243
aI21
aI64
aI0
aa(lp167
I72
aI15
aI69
aI211
aa(lp168
I72
aI137
aI231
aa(lp169
I49
aI192
aa(lp170
I232
aI3
aI3
aI0
aI0
aa(lp171
I72
aI139
aI60
aI36
aa(lp172
I72
aI99
aI13
aI200
aI17
aI32
aI0
aa(lp173
I72
aI141
aI65
aI255
aa(lp174
I137
aI5
aI190
aI17
aI32
aI0
aa(lp175
I73
aI137
aI124
aI207
aI248
aa(lp176
I69
aI133
aI246
aa(lp177
I15
aI132
aI174
aI2
aI0
aI0
aa(lp178
I49
aI255
aa(lp179
I190
aI141
aI21
aI64
aI0
aa(lp180
I186
aI5
aI0
aI0
aI0
aa(lp181
I232
aI207
aI252
aI255
aI255
aa(lp182
I72
aI137
aI193
aa(lp183
I72
aI139
aI53
aI133
aI17
aI32
aI0
aa(lp184
I186
aI153
aI21
aI64
aI0
aa(lp185
I49
aI192
aa(lp186
I72
aI137
aI207
aa(lp187
I232
aI214
aI252
aI255
aI255
aa(lp188
I72
aI99
aI5
aI127
aI17
aI32
aI0
aa(lp189
I73
aI139
aI52
aI199
aa(lp190
I72
aI133
aI246
aa(lp191
I116
aI30
aa(lp192
I73
aI141
aI92
aI199
aI8
aa(lp193
I144
aa(lp194
I191
aI0
aI22
aI64
aI0
aa(lp195
I49
aI192
aa(lp196
I232
aI180
aI252
aI255
aI255
aa(lp197
I72
aI139
aI51
aa(lp198
I72
aI131
aI195
aI8
aa(lp199
I72
aI133
aI246
aa(lp200
I117
aI232
aa(lp201
I191
aI10
aI0
aI0
aI0
aa(lp202
I232
aI254
aI251
aI255
aI255
aa(lp203
I65
aI131
aI254
aI1
aa(lp204
I15
aI142
aI56
aI2
aI0
aI0
aa(lp205
I49
aI192
aa(lp206
I72
aI131
aI196
aI8
aa(lp207
I91
aa(lp208
I65
aI94
aa(lp209
I65
aI95
aa(lp210
I93
aa(lp211
I195
aasg13
(I4197952
I4198976
tp212
sg14
I2
sg15
g16
sssS'function_calls'
p213
(dp214
sS'binary_filename'
p215
S'mkfs'
p216
sS'structures'
p217
(dp218
sS'extern_functions'
p219
(dp220
sS'arch'
p221
S'amd64'
p222
sS'bin_raw_bytes'
p223
g8
s.