(dp0
S'text_addr'
p1
S'0x4005f0'
p2
sS'functions'
p3
(dp4
S'View_showBoard'
p5
(dp6
S'ret_type'
p7
S''
p8
sS'args_type'
p9
(lp10
sS'inst_bytes'
p11
(lp12
(lp13
I85
aa(lp14
I72
aI137
aI229
aa(lp15
I72
aI131
aI236
aI32
aa(lp16
I191
aI10
aI0
aI0
aI0
aa(lp17
I232
aI174
aI251
aI255
aI255
aa(lp18
I199
aI69
aI252
aI0
aI0
aI0
aI0
aa(lp19
I137
aI69
aI244
aa(lp20
I131
aI125
aI252
aI4
aa(lp21
I15
aI141
aI237
aI0
aI0
aI0
aa(lp22
I199
aI69
aI248
aI0
aI0
aI0
aI0
aa(lp23
I131
aI125
aI248
aI4
aa(lp24
I15
aI141
aI191
aI0
aI0
aI0
aa(lp25
I72
aI184
aI128
aI32
aI96
aI0
aI0
aa(lp26
I0
aI0
aI0
aa(lp27
I72
aI99
aI77
aI252
aa(lp28
I72
aI193
aI225
aI4
aa(lp29
I72
aI1
aI200
aa(lp30
I72
aI99
aI77
aI248
aa(lp31
I131
aI60
aI136
aI0
aa(lp32
I15
aI132
aI74
aI0
aI0
aI0
aa(lp33
I72
aI184
aI128
aI32
aI96
aI0
aI0
aa(lp34
I0
aI0
aI0
aa(lp35
I72
aI185
aI182
aI13
aI64
aI0
aI0
aa(lp36
I0
aI0
aI0
aa(lp37
I72
aI186
aI176
aI13
aI64
aI0
aI0
aa(lp38
I0
aI0
aI0
aa(lp39
I131
aI125
aI248
aI3
aa(lp40
I72
aI15
aI69
aI202
aa(lp41
I72
aI99
aI85
aI252
aa(lp42
I72
aI193
aI226
aI4
aa(lp43
I72
aI1
aI208
aa(lp44
I72
aI99
aI85
aI248
aa(lp45
I139
aI52
aI144
aa(lp46
I72
aI137
aI207
aa(lp47
I176
aI0
aa(lp48
I232
aI52
aI251
aI255
aI255
aa(lp49
I137
aI69
aI240
aa(lp50
I233
aI51
aI0
aI0
aI0
aa(lp51
I72
aI190
aI188
aI13
aI64
aI0
aI0
aa(lp52
I0
aI0
aI0
aa(lp53
I72
aI184
aI195
aI13
aI64
aI0
aI0
aa(lp54
I0
aI0
aI0
aa(lp55
I72
aI185
aI189
aI13
aI64
aI0
aI0
aa(lp56
I0
aI0
aI0
aa(lp57
I131
aI125
aI248
aI3
aa(lp58
I72
aI15
aI69
aI193
aa(lp59
I72
aI137
aI199
aa(lp60
I176
aI0
aa(lp61
I232
aI252
aI250
aI255
aI255
aa(lp62
I137
aI69
aI236
aa(lp63
I233
aI0
aI0
aI0
aI0
aa(lp64
I49
aI192
aa(lp65
I139
aI77
aI248
aa(lp66
I137
aI194
aa(lp67
I41
aI202
aa(lp68
I137
aI193
aa(lp69
I131
aI233
aI1
aa(lp70
I1
aI202
aa(lp71
I41
aI208
aa(lp72
I137
aI69
aI248
aa(lp73
I233
aI55
aI255
aI255
aI255
aa(lp74
I233
aI0
aI0
aI0
aI0
aa(lp75
I139
aI69
aI252
aa(lp76
I45
aI165
aI10
aI37
aI53
aa(lp77
I131
aI192
aI1
aa(lp78
I5
aI165
aI10
aI37
aI53
aa(lp79
I137
aI69
aI252
aa(lp80
I233
aI9
aI255
aI255
aI255
aa(lp81
I191
aI10
aI0
aI0
aI0
aa(lp82
I232
aI163
aI250
aI255
aI255
aa(lp83
I137
aI69
aI232
aa(lp84
I72
aI131
aI196
aI32
aa(lp85
I93
aa(lp86
I195
aasS'boundaries'
p87
(I4196800
I4197094
tp88
sS'num_args'
p89
I0
sS'inst_strings'
p90
(lp91
ssS'Game_isFinished'
p92
(dp93
g7
g8
sg9
(lp94
sg11
(lp95
(lp96
I85
aa(lp97
I72
aI137
aI229
aa(lp98
I199
aI69
aI240
aI1
aI0
aI0
aI0
aa(lp99
I199
aI69
aI248
aI0
aI0
aI0
aI0
aa(lp100
I131
aI125
aI248
aI4
aa(lp101
I15
aI141
aI162
aI0
aI0
aI0
aa(lp102
I199
aI69
aI244
aI0
aI0
aI0
aI0
aa(lp103
I131
aI125
aI244
aI4
aa(lp104
I15
aI141
aI116
aI0
aI0
aI0
aa(lp105
I131
aI125
aI240
aI16
aa(lp106
I15
aI141
aI75
aI0
aI0
aI0
aa(lp107
I49
aI192
aa(lp108
I72
aI185
aI128
aI32
aI96
aI0
aI0
aa(lp109
I0
aI0
aI0
aa(lp110
I72
aI99
aI85
aI248
aa(lp111
I72
aI193
aI226
aI4
aa(lp112
I72
aI1
aI209
aa(lp113
I72
aI99
aI85
aI244
aa(lp114
I139
aI52
aI145
aa(lp115
I139
aI125
aI240
aa(lp116
I65
aI137
aI192
aa(lp117
I65
aI41
aI248
aa(lp118
I65
aI137
aI193
aa(lp119
I65
aI131
aI233
aI1
aa(lp120
I69
aI1
aI200
aa(lp121
I68
aI41
aI192
aa(lp122
I137
aI69
aI240
aa(lp123
I57
aI254
aa(lp124
I15
aI132
aI12
aI0
aI0
aI0
aa(lp125
I199
aI69
aI252
aI0
aI0
aI0
aI0
aa(lp126
I233
aI67
aI0
aI0
aI0
aa(lp127
I233
aI0
aI0
aI0
aI0
aa(lp128
I49
aI192
aa(lp129
I139
aI77
aI244
aa(lp130
I137
aI194
aa(lp131
I41
aI202
aa(lp132
I137
aI193
aa(lp133
I131
aI233
aI1
aa(lp134
I1
aI202
aa(lp135
I41
aI208
aa(lp136
I137
aI69
aI244
aa(lp137
I233
aI130
aI255
aI255
aI255
aa(lp138
I233
aI0
aI0
aI0
aI0
aa(lp139
I139
aI69
aI248
aa(lp140
I45
aI95
aI248
aI19
aI61
aa(lp141
I131
aI192
aI1
aa(lp142
I5
aI95
aI248
aI19
aI61
aa(lp143
I137
aI69
aI248
aa(lp144
I233
aI84
aI255
aI255
aI255
aa(lp145
I199
aI69
aI252
aI1
aI0
aI0
aI0
aa(lp146
I139
aI69
aI252
aa(lp147
I93
aa(lp148
I195
aasg87
(I4196592
I4196794
tp149
sg89
I0
sg90
g91
ssS'Game_update'
p150
(dp151
g7
g8
sg9
(lp152
sg11
(lp153
(lp154
I85
aa(lp155
I72
aI137
aI229
aa(lp156
I49
aI192
aa(lp157
I137
aI125
aI248
aa(lp158
I139
aI60
aI37
aI112
aI32
aI96
aI0
aa(lp159
I139
aI77
aI248
aa(lp160
I137
aI202
aa(lp161
I139
aI12
aI149
aI160
aI13
aI64
aI0
aa(lp162
I137
aI198
aa(lp163
I41
aI254
aa(lp164
I137
aI199
aa(lp165
I41
aI207
aa(lp166
I1
aI254
aa(lp167
I41
aI240
aa(lp168
I137
aI69
aI244
aa(lp169
I139
aI4
aI37
aI192
aI32
aI96
aI0
aa(lp170
I139
aI77
aI248
aa(lp171
I137
aI202
aa(lp172
I139
aI12
aI149
aI144
aI13
aI64
aI0
aa(lp173
I5
aI15
aI157
aI53
aI255
aa(lp174
I1
aI200
aa(lp175
I45
aI15
aI157
aI53
aI255
aa(lp176
I137
aI69
aI240
aa(lp177
I131
aI125
aI244
aI0
aa(lp178
I15
aI140
aI144
aI0
aI0
aI0
aa(lp179
I131
aI125
aI244
aI4
aa(lp180
I15
aI141
aI134
aI0
aI0
aI0
aa(lp181
I131
aI125
aI240
aI0
aa(lp182
I15
aI140
aI124
aI0
aI0
aI0
aa(lp183
I131
aI125
aI240
aI4
aa(lp184
I15
aI141
aI114
aI0
aI0
aI0
aa(lp185
I72
aI184
aI128
aI32
aI96
aI0
aI0
aa(lp186
I0
aI0
aI0
aa(lp187
I72
aI99
aI77
aI244
aa(lp188
I72
aI193
aI225
aI4
aa(lp189
I72
aI137
aI194
aa(lp190
I72
aI1
aI202
aa(lp191
I72
aI99
aI77
aI240
aa(lp192
I139
aI52
aI138
aa(lp193
I72
aI99
aI12
aI37
aI112
aI32
aI96
aI0
aa(lp194
I72
aI193
aI225
aI4
aa(lp195
I72
aI137
aI194
aa(lp196
I72
aI1
aI202
aa(lp197
I72
aI99
aI12
aI37
aI192
aI32
aI96
aI0
aa(lp198
I137
aI52
aI138
aa(lp199
I72
aI99
aI77
aI244
aa(lp200
I72
aI193
aI225
aI4
aa(lp201
I72
aI1
aI200
aa(lp202
I72
aI99
aI77
aI240
aa(lp203
I199
aI4
aI136
aI0
aI0
aI0
aI0
aa(lp204
I139
aI117
aI244
aa(lp205
I137
aI52
aI37
aI112
aI32
aI96
aI0
aa(lp206
I139
aI117
aI240
aa(lp207
I137
aI52
aI37
aI192
aI32
aI96
aI0
aa(lp208
I199
aI69
aI252
aI1
aI0
aI0
aI0
aa(lp209
I233
aI7
aI0
aI0
aI0
aa(lp210
I199
aI69
aI252
aI0
aI0
aI0
aI0
aa(lp211
I139
aI69
aI252
aa(lp212
I93
aa(lp213
I195
aasg87
(I4196064
I4196307
tp214
sg89
I1
sg90
g91
ssS'Controller_pause'
p215
(dp216
g7
g8
sg9
(lp217
sg11
(lp218
(lp219
I85
aa(lp220
I72
aI137
aI229
aa(lp221
I72
aI131
aI236
aI16
aa(lp222
I232
aI147
aI249
aI255
aI255
aa(lp223
I137
aI69
aI252
aa(lp224
I72
aI131
aI196
aI16
aa(lp225
I93
aa(lp226
I195
aasg87
(I4197392
I4197414
tp227
sg89
I0
sg90
g91
ssS'Controller_getMove'
p228
(dp229
g7
g8
sg9
(lp230
sg11
(lp231
(lp232
I85
aa(lp233
I72
aI137
aI229
aa(lp234
I72
aI131
aI236
aI48
aa(lp235
I72
aI191
aI207
aI13
aI64
aI0
aI0
aa(lp236
I0
aI0
aI0
aa(lp237
I72
aI190
aI210
aI13
aI64
aI0
aI0
aa(lp238
I0
aI0
aI0
aa(lp239
I176
aI0
aa(lp240
I232
aI77
aI250
aI255
aI255
aa(lp241
I137
aI69
aI244
aa(lp242
I232
aI101
aI250
aI255
aI255
aa(lp243
I137
aI69
aI248
aa(lp244
I232
aI93
aI250
aI255
aI255
aa(lp245
I131
aI248
aI10
aa(lp246
I15
aI132
aI5
aI0
aI0
aI0
aa(lp247
I233
aI237
aI255
aI255
aI255
aa(lp248
I139
aI69
aI248
aa(lp249
I137
aI193
aa(lp250
I131
aI233
aI27
aa(lp251
I137
aI69
aI240
aa(lp252
I137
aI77
aI236
aa(lp253
I15
aI132
aI85
aI0
aI0
aI0
aa(lp254
I233
aI0
aI0
aI0
aI0
aa(lp255
I139
aI69
aI240
aa(lp256
I131
aI232
aI100
aa(lp257
I137
aI69
aI232
aa(lp258
I15
aI132
aI72
aI0
aI0
aI0
aa(lp259
I233
aI0
aI0
aI0
aI0
aa(lp260
I139
aI69
aI240
aa(lp261
I131
aI232
aI108
aa(lp262
I137
aI69
aI228
aa(lp263
I15
aI132
aI88
aI0
aI0
aI0
aa(lp264
I233
aI0
aI0
aI0
aI0
aa(lp265
I139
aI69
aI240
aa(lp266
I131
aI232
aI114
aa(lp267
I137
aI69
aI224
aa(lp268
I15
aI132
aI56
aI0
aI0
aI0
aa(lp269
I233
aI0
aI0
aI0
aI0
aa(lp270
I139
aI69
aI240
aa(lp271
I131
aI232
aI117
aa(lp272
I137
aI69
aI220
aa(lp273
I15
aI132
aI24
aI0
aI0
aI0
aa(lp274
I233
aI55
aI0
aI0
aI0
aa(lp275
I49
aI255
aa(lp276
I232
aI255
aI249
aI255
aI255
aa(lp277
I199
aI69
aI252
aI0
aI0
aI0
aI0
aa(lp278
I233
aI41
aI0
aI0
aI0
aa(lp279
I199
aI69
aI252
aI1
aI0
aI0
aI0
aa(lp280
I233
aI29
aI0
aI0
aI0
aa(lp281
I199
aI69
aI252
aI2
aI0
aI0
aI0
aa(lp282
I233
aI17
aI0
aI0
aI0
aa(lp283
I199
aI69
aI252
aI3
aI0
aI0
aI0
aa(lp284
I233
aI5
aI0
aI0
aI0
aa(lp285
I233
aI34
aI255
aI255
aI255
aa(lp286
I139
aI69
aI252
aa(lp287
I72
aI131
aI196
aI48
aa(lp288
I93
aa(lp289
I195
aasg87
(I4197152
I4197391
tp290
sg89
I0
sg90
g91
ssS'Game_setup'
p291
(dp292
g7
g8
sg9
(lp293
sg11
(lp294
(lp295
I85
aa(lp296
I72
aI137
aI229
aa(lp297
I72
aI131
aI236
aI16
aa(lp298
I199
aI69
aI252
aI0
aI0
aI0
aI0
aa(lp299
I131
aI125
aI252
aI4
aa(lp300
I15
aI141
aI136
aI0
aI0
aI0
aa(lp301
I199
aI69
aI248
aI0
aI0
aI0
aI0
aa(lp302
I131
aI125
aI248
aI4
aa(lp303
I15
aI141
aI90
aI0
aI0
aI0
aa(lp304
I72
aI184
aI128
aI32
aI96
aI0
aI0
aa(lp305
I0
aI0
aI0
aa(lp306
I139
aI77
aI252
aa(lp307
I193
aI225
aI2
aa(lp308
I139
aI85
aI248
aa(lp309
I129
aI233
aI164
aI76
aI91
aI202
aa(lp310
I1
aI209
aa(lp311
I129
aI193
aI164
aI76
aI91
aI202
aa(lp312
I129
aI193
aI246
aI218
aI110
aI244
aa(lp313
I131
aI193
aI1
aa(lp314
I129
aI233
aI246
aI218
aI110
aI244
aa(lp315
I72
aI99
aI117
aI252
aa(lp316
I72
aI193
aI230
aI4
aa(lp317
I72
aI1
aI240
aa(lp318
I72
aI99
aI117
aI248
aa(lp319
I137
aI12
aI176
aa(lp320
I139
aI69
aI248
aa(lp321
I45
aI105
aI101
aI123
aI126
aa(lp322
I131
aI192
aI1
aa(lp323
I5
aI105
aI101
aI123
aI126
aa(lp324
I137
aI69
aI248
aa(lp325
I233
aI156
aI255
aI255
aI255
aa(lp326
I233
aI0
aI0
aI0
aI0
aa(lp327
I139
aI69
aI252
aa(lp328
I5
aI29
aI254
aI251
aI13
aa(lp329
I131
aI192
aI1
aa(lp330
I45
aI29
aI254
aI251
aI13
aa(lp331
I137
aI69
aI252
aa(lp332
I233
aI110
aI255
aI255
aI255
aa(lp333
I199
aI4
aI37
aI188
aI32
aI96
aI0
aa(lp334
I0
aI0
aI0
aI0
aa(lp335
I199
aI4
aI37
aI112
aI32
aI96
aI0
aa(lp336
I3
aI0
aI0
aI0
aa(lp337
I199
aI4
aI37
aI192
aI32
aI96
aI0
aa(lp338
I3
aI0
aI0
aI0
aa(lp339
I199
aI69
aI244
aI0
aI0
aI0
aI0
aa(lp340
I131
aI125
aI244
aI100
aa(lp341
I15
aI141
aI45
aI0
aI0
aI0
aa(lp342
I232
aI40
aI253
aI255
aI255
aa(lp343
I185
aI4
aI0
aI0
aI0
aa(lp344
I153
aa(lp345
I247
aI249
aa(lp346
I137
aI215
aa(lp347
I232
aI25
aI254
aI255
aI255
aa(lp348
I49
aI201
aa(lp349
I139
aI85
aI244
aa(lp350
I137
aI207
aa(lp351
I41
aI215
aa(lp352
I137
aI202
aa(lp353
I41
aI194
aa(lp354
I1
aI215
aa(lp355
I41
aI249
aa(lp356
I137
aI77
aI244
aa(lp357
I233
aI201
aI255
aI255
aI255
aa(lp358
I72
aI131
aI196
aI16
aa(lp359
I93
aa(lp360
I195
aasg87
(I4196320
I4196582
tp361
sg89
I0
sg90
g91
ssS'main'
p362
(dp363
g7
g8
sg9
(lp364
sg11
(lp365
(lp366
I85
aa(lp367
I72
aI137
aI229
aa(lp368
I72
aI131
aI236
aI16
aa(lp369
I49
aI192
aa(lp370
I137
aI199
aa(lp371
I199
aI69
aI252
aI0
aI0
aI0
aI0
aa(lp372
I232
aI120
aI249
aI255
aI255
aa(lp373
I137
aI193
aa(lp374
I137
aI207
aa(lp375
I232
aI79
aI249
aI255
aI255
aa(lp376
I232
aI138
aI251
aI255
aI255
aa(lp377
I232
aI149
aI252
aI255
aI255
aa(lp378
I131
aI248
aI0
aa(lp379
I15
aI133
aI237
aI255
aI255
aI255
aa(lp380
I232
aI87
aI253
aI255
aI255
aa(lp381
I232
aI130
aI252
aI255
aI255
aa(lp382
I177
aI1
aa(lp383
I131
aI248
aI0
aa(lp384
I15
aI149
aI194
aa(lp385
I64
aI136
aI214
aa(lp386
I64
aI128
aI246
aI255
aa(lp387
I64
aI128
aI230
aI0
aa(lp388
I64
aI136
aI207
aa(lp389
I64
aI128
aI247
aI0
aa(lp390
I64
aI32
aI250
aa(lp391
I128
aI241
aI1
aa(lp392
I128
aI225
aI0
aa(lp393
I64
aI128
aI231
aI1
aa(lp394
I64
aI8
aI214
aa(lp395
I64
aI8
aI249
aa(lp396
I64
aI48
aI206
aa(lp397
I64
aI246
aI198
aI1
aa(lp398
I15
aI133
aI5
aI0
aI0
aI0
aa(lp399
I233
aI25
aI0
aI0
aI0
aa(lp400
I232
aI110
aI254
aI255
aI255
aa(lp401
I137
aI199
aa(lp402
I232
aI39
aI250
aI255
aI255
aa(lp403
I137
aI69
aI248
aa(lp404
I232
aI255
aI252
aI255
aI255
aa(lp405
I233
aI163
aI255
aI255
aI255
aa(lp406
I72
aI191
aI227
aI13
aI64
aI0
aI0
aa(lp407
I0
aI0
aI0
aa(lp408
I232
aI27
aI254
aI255
aI255
aa(lp409
I232
aI54
aI255
aI255
aI255
aa(lp410
I49
aI192
aa(lp411
I72
aI131
aI196
aI16
aa(lp412
I93
aa(lp413
I195
aasg87
(I4197424
I4197602
tp414
sg89
I0
sg90
g91
ssS'View_displayMessage'
p415
(dp416
g7
g8
sg9
(lp417
sg11
(lp418
(lp419
I85
aa(lp420
I72
aI137
aI229
aa(lp421
I72
aI131
aI236
aI16
aa(lp422
I72
aI184
aI202
aI13
aI64
aI0
aI0
aa(lp423
I0
aI0
aI0
aa(lp424
I72
aI137
aI125
aI248
aa(lp425
I72
aI139
aI117
aI248
aa(lp426
I72
aI137
aI199
aa(lp427
I176
aI0
aa(lp428
I232
aI124
aI250
aI255
aI255
aa(lp429
I137
aI69
aI244
aa(lp430
I72
aI131
aI196
aI16
aa(lp431
I93
aa(lp432
I195
aasg87
(I4197104
I4197149
tp433
sg89
I1
sg90
g91
sssS'function_calls'
p434
(dp435
sS'binary_filename'
p436
S'15puzzlellvm'
p437
sS'structures'
p438
(dp439
sS'extern_functions'
p440
(dp441
sS'arch'
p442
S'amd64'
p443
sS'bin_raw_bytes'
p444
g8
s.