(dp0
S'text_addr'
p1
S'0x4006f0'
p2
sS'functions'
p3
(dp4
S'reset'
p5
(dp6
S'ret_type'
p7
S''
p8
sS'args_type'
p9
(lp10
sS'inst_bytes'
p11
(lp12
(lp13
I85
aa(lp14
I72
aI137
aI229
aa(lp15
I72
aI199
aI4
aI37
aI40
aI35
aI96
aa(lp16
I0
aI0
aI0
aI0
aI0
aa(lp17
I199
aI4
aI37
aI32
aI35
aI96
aI0
aa(lp18
I0
aI0
aI0
aI0
aa(lp19
I199
aI4
aI37
aI208
aI34
aI96
aI0
aa(lp20
I0
aI0
aI0
aI0
aa(lp21
I199
aI69
aI252
aI0
aI0
aI0
aI0
aa(lp22
I131
aI125
aI252
aI8
aa(lp23
I15
aI141
aI97
aI0
aI0
aI0
aa(lp24
I72
aI184
aI128
aI32
aI96
aI0
aI0
aa(lp25
I0
aI0
aI0
aa(lp26
I72
aI99
aI77
aI252
aa(lp27
I72
aI193
aI225
aI5
aa(lp28
I72
aI137
aI194
aa(lp29
I72
aI1
aI202
aa(lp30
I199
aI2
aI0
aI0
aI0
aI0
aa(lp31
I72
aI99
aI77
aI252
aa(lp32
I72
aI193
aI225
aI5
aa(lp33
I72
aI137
aI194
aa(lp34
I72
aI1
aI202
aa(lp35
I72
aI199
aI66
aI24
aI0
aI0
aI0
aI0
aa(lp36
I72
aI99
aI77
aI252
aa(lp37
I72
aI193
aI225
aI5
aa(lp38
I72
aI1
aI200
aa(lp39
I72
aI199
aI64
aI16
aI0
aI0
aI0
aI0
aa(lp40
I49
aI192
aa(lp41
I139
aI77
aI252
aa(lp42
I137
aI194
aa(lp43
I41
aI202
aa(lp44
I137
aI193
aa(lp45
I131
aI233
aI1
aa(lp46
I1
aI202
aa(lp47
I41
aI208
aa(lp48
I137
aI69
aI252
aa(lp49
I233
aI149
aI255
aI255
aI255
aa(lp50
I199
aI69
aI252
aI0
aI0
aI0
aI0
aa(lp51
I131
aI125
aI252
aI4
aa(lp52
I15
aI141
aI52
aI0
aI0
aI0
aa(lp53
I72
aI184
aI80
aI34
aI96
aI0
aI0
aa(lp54
I0
aI0
aI0
aa(lp55
I72
aI99
aI77
aI252
aa(lp56
I72
aI193
aI225
aI5
aa(lp57
I72
aI1
aI200
aa(lp58
I199
aI64
aI8
aI0
aI0
aI0
aI0
aa(lp59
I139
aI69
aI252
aa(lp60
I5
aI126
aI246
aI147
aI89
aa(lp61
I131
aI192
aI1
aa(lp62
I45
aI126
aI246
aI147
aI89
aa(lp63
I137
aI69
aI252
aa(lp64
I233
aI194
aI255
aI255
aI255
aa(lp65
I93
aa(lp66
I195
aasS'boundaries'
p67
(I4196432
I4196655
tp68
sS'num_args'
p69
I0
sS'inst_strings'
p70
(lp71
ssS'gen_digits'
p72
(dp73
g7
g8
sg9
(lp74
sg11
(lp75
(lp76
I85
aa(lp77
I72
aI137
aI229
aa(lp78
I72
aI131
aI236
aI16
aa(lp79
I199
aI69
aI252
aI0
aI0
aI0
aI0
aa(lp80
I131
aI125
aI252
aI4
aa(lp81
I15
aI141
aI78
aI0
aI0
aI0
aa(lp82
I232
aI210
aI254
aI255
aI255
aa(lp83
I72
aI185
aI80
aI34
aI96
aI0
aI0
aa(lp84
I0
aI0
aI0
aa(lp85
I49
aI210
aa(lp86
I190
aI9
aI0
aI0
aI0
aa(lp87
I137
aI85
aI248
aa(lp88
I153
aa(lp89
I247
aI254
aa(lp90
I139
aI117
aI248
aa(lp91
I131
aI238
aI1
aa(lp92
I139
aI125
aI248
aa(lp93
I41
aI215
aa(lp94
I1
aI254
aa(lp95
I139
aI85
aI248
aa(lp96
I41
aI242
aa(lp97
I76
aI99
aI69
aI252
aa(lp98
I73
aI193
aI224
aI5
aa(lp99
I76
aI1
aI193
aa(lp100
I137
aI81
aI4
aa(lp101
I49
aI192
aa(lp102
I139
aI77
aI252
aa(lp103
I131
aI232
aI1
aa(lp104
I41
aI193
aa(lp105
I137
aI77
aI252
aa(lp106
I233
aI168
aI255
aI255
aI255
aa(lp107
I72
aI131
aI196
aI16
aa(lp108
I93
aa(lp109
I195
aasg67
(I4196320
I4196429
tp110
sg69
I0
sg70
g71
ssS'eval_tree'
p111
(dp112
g7
g8
sg9
(lp113
sg11
(lp114
(lp115
I85
aa(lp116
I72
aI137
aI229
aa(lp117
I72
aI131
aI236
aI64
aa(lp118
I72
aI137
aI125
aI248
aa(lp119
I72
aI137
aI117
aI240
aa(lp120
I72
aI139
aI117
aI248
aa(lp121
I131
aI62
aI1
aa(lp122
I15
aI133
aI29
aI0
aI0
aI0
aa(lp123
I72
aI139
aI69
aI248
aa(lp124
I139
aI72
aI4
aa(lp125
I72
aI139
aI69
aI240
aa(lp126
I137
aI72
aI4
aa(lp127
I72
aI139
aI69
aI240
aa(lp128
I199
aI0
aI1
aI0
aI0
aI0
aa(lp129
I233
aI44
aI1
aI0
aI0
aa(lp130
I72
aI139
aI69
aI248
aa(lp131
I72
aI139
aI120
aI16
aa(lp132
I72
aI141
aI117
aI232
aa(lp133
I232
aI181
aI255
aI255
aI255
aa(lp134
I72
aI139
aI69
aI248
aa(lp135
I72
aI139
aI120
aI24
aa(lp136
I72
aI141
aI117
aI224
aa(lp137
I232
aI164
aI255
aI255
aI255
aa(lp138
I72
aI139
aI69
aI248
aa(lp139
I139
aI8
aa(lp140
I131
aI193
aI254
aa(lp141
I137
aI200
aa(lp142
I131
aI233
aI3
aa(lp143
I72
aI137
aI69
aI208
aa(lp144
I137
aI77
aI204
aa(lp145
I15
aI135
aI163
aI0
aI0
aI0
aa(lp146
I72
aI139
aI69
aI208
aa(lp147
I72
aI139
aI12
aI197
aI184
aI19
aI64
aI0
aa(lp148
I255
aI225
aa(lp149
I49
aI192
aa(lp150
I139
aI77
aI236
aa(lp151
I15
aI175
aI77
aI224
aa(lp152
I139
aI85
aI232
aa(lp153
I15
aI175
aI85
aI228
aa(lp154
I41
aI208
aa(lp155
I41
aI193
aa(lp156
I72
aI139
aI117
aI240
aa(lp157
I137
aI78
aI4
aa(lp158
I139
aI69
aI232
aa(lp159
I15
aI175
aI69
aI224
aa(lp160
I72
aI139
aI117
aI240
aa(lp161
I137
aI6
aa(lp162
I233
aI104
aI0
aI0
aI0
aa(lp163
I49
aI192
aa(lp164
I139
aI77
aI236
aa(lp165
I15
aI175
aI77
aI224
aa(lp166
I139
aI85
aI232
aa(lp167
I15
aI175
aI85
aI228
aa(lp168
I41
aI208
aa(lp169
I1
aI193
aa(lp170
I72
aI139
aI117
aI240
aa(lp171
I137
aI78
aI4
aa(lp172
I139
aI69
aI232
aa(lp173
I15
aI175
aI69
aI224
aa(lp174
I72
aI139
aI117
aI240
aa(lp175
I137
aI6
aa(lp176
I233
aI59
aI0
aI0
aI0
aa(lp177
I139
aI69
aI236
aa(lp178
I15
aI175
aI69
aI228
aa(lp179
I72
aI139
aI77
aI240
aa(lp180
I137
aI65
aI4
aa(lp181
I139
aI69
aI232
aa(lp182
I15
aI175
aI69
aI224
aa(lp183
I72
aI139
aI77
aI240
aa(lp184
I137
aI1
aa(lp185
I233
aI27
aI0
aI0
aI0
aa(lp186
I139
aI69
aI236
aa(lp187
I15
aI175
aI69
aI224
aa(lp188
I72
aI139
aI77
aI240
aa(lp189
I137
aI65
aI4
aa(lp190
I139
aI69
aI232
aa(lp191
I15
aI175
aI69
aI228
aa(lp192
I72
aI139
aI77
aI240
aa(lp193
I137
aI1
aa(lp194
I72
aI139
aI69
aI240
aa(lp195
I139
aI56
aa(lp196
I72
aI139
aI69
aI240
aa(lp197
I139
aI112
aI4
aa(lp198
I232
aI148
aI254
aI255
aI255
aa(lp199
I137
aI69
aI220
aa(lp200
I131
aI248
aI0
aa(lp201
I15
aI132
aI46
aI0
aI0
aI0
aa(lp202
I139
aI69
aI220
aa(lp203
I72
aI139
aI77
aI240
aa(lp204
I139
aI17
aa(lp205
I137
aI69
aI200
aa(lp206
I137
aI208
aa(lp207
I153
aa(lp208
I139
aI117
aI200
aa(lp209
I247
aI254
aa(lp210
I137
aI1
aa(lp211
I139
aI69
aI220
aa(lp212
I72
aI139
aI77
aI240
aa(lp213
I139
aI121
aI4
aa(lp214
I137
aI69
aI196
aa(lp215
I137
aI248
aa(lp216
I153
aa(lp217
I139
aI125
aI196
aa(lp218
I247
aI255
aa(lp219
I137
aI65
aI4
aa(lp220
I72
aI131
aI196
aI64
aa(lp221
I93
aa(lp222
I195
aasg67
(I4198096
I4198460
tp223
sg69
I2
sg70
g71
ssS'gcd'
p224
(dp225
g7
g8
sg9
(lp226
sg11
(lp227
(lp228
I85
aa(lp229
I72
aI137
aI229
aa(lp230
I137
aI125
aI252
aa(lp231
I137
aI117
aI248
aa(lp232
I131
aI125
aI252
aI0
aa(lp233
I15
aI132
aI27
aI0
aI0
aI0
aa(lp234
I139
aI69
aI252
aa(lp235
I137
aI69
aI244
aa(lp236
I139
aI69
aI248
aa(lp237
I153
aa(lp238
I247
aI125
aI252
aa(lp239
I137
aI85
aI252
aa(lp240
I139
aI85
aI244
aa(lp241
I137
aI85
aI248
aa(lp242
I233
aI219
aI255
aI255
aI255
aa(lp243
I139
aI69
aI248
aa(lp244
I93
aa(lp245
I195
aasg67
(I4198032
I4198084
tp246
sg69
I2
sg70
g71
ssS'get_expr'
p247
(dp248
g7
g8
sg9
(lp249
sg11
(lp250
(lp251
I85
aa(lp252
I72
aI137
aI229
aa(lp253
I72
aI131
aI236
aI48
aa(lp254
I232
aI227
aI0
aI0
aI0
aa(lp255
I72
aI137
aI69
aI224
aa(lp256
I72
aI131
aI248
aI0
aa(lp257
I15
aI133
aI15
aI0
aI0
aI0
aa(lp258
I72
aI191
aI216
aI19
aI64
aI0
aI0
aa(lp259
I0
aI0
aI0
aa(lp260
I232
aI102
aI254
aI255
aI255
aa(lp261
I233
aI0
aI0
aI0
aI0
aa(lp262
I232
aI236
aI254
aI255
aI255
aa(lp263
I177
aI1
aa(lp264
I137
aI69
aI252
aa(lp265
I131
aI248
aI43
aa(lp266
I136
aI77
aI223
aa(lp267
I15
aI132
aI10
aI0
aI0
aI0
aa(lp268
I131
aI125
aI252
aI45
aa(lp269
I15
aI148
aI192
aa(lp270
I136
aI69
aI223
aa(lp271
I138
aI69
aI223
aa(lp272
I168
aI1
aa(lp273
I15
aI133
aI5
aI0
aI0
aI0
aa(lp274
I233
aI132
aI0
aI0
aI0
aa(lp275
I232
aI76
aI255
aI255
aI255
aa(lp276
I131
aI248
aI0
aa(lp277
I15
aI133
aI15
aI0
aI0
aI0
aa(lp278
I72
aI191
aI230
aI19
aI64
aI0
aI0
aa(lp279
I0
aI0
aI0
aa(lp280
I232
aI20
aI254
aI255
aI255
aa(lp281
I232
aI111
aI0
aI0
aI0
aa(lp282
I72
aI137
aI69
aI232
aa(lp283
I72
aI131
aI248
aI0
aa(lp284
I15
aI133
aI15
aI0
aI0
aI0
aa(lp285
I72
aI191
aI216
aI19
aI64
aI0
aI0
aa(lp286
I0
aI0
aI0
aa(lp287
I232
aI242
aI253
aI255
aI255
aa(lp288
I72
aI139
aI69
aI224
aa(lp289
I72
aI137
aI69
aI240
aa(lp290
I232
aI21
aI254
aI255
aI255
aa(lp291
I185
aI3
aI0
aI0
aI0
aa(lp292
I186
aI2
aI0
aI0
aI0
aa(lp293
I72
aI137
aI69
aI224
aa(lp294
I131
aI125
aI252
aI43
aa(lp295
I15
aI68
aI202
aa(lp296
I72
aI139
aI69
aI224
aa(lp297
I137
aI8
aa(lp298
I72
aI139
aI69
aI240
aa(lp299
I72
aI139
aI117
aI224
aa(lp300
I72
aI137
aI70
aI16
aa(lp301
I72
aI139
aI69
aI232
aa(lp302
I72
aI139
aI117
aI224
aa(lp303
I72
aI137
aI70
aI24
aa(lp304
I233
aI76
aI255
aI255
aI255
aa(lp305
I72
aI139
aI69
aI224
aa(lp306
I72
aI131
aI196
aI48
aa(lp307
I93
aa(lp308
I195
aasg67
(I4197024
I4197261
tp309
sg69
I0
sg70
g71
ssS'get_digit'
p310
(dp311
g7
g8
sg9
(lp312
sg11
(lp313
(lp314
I85
aa(lp315
I72
aI137
aI229
aa(lp316
I72
aI131
aI236
aI32
aa(lp317
I232
aI99
aI253
aI255
aI255
aa(lp318
I137
aI69
aI240
aa(lp319
I131
aI125
aI240
aI48
aa(lp320
I15
aI140
aI218
aI0
aI0
aI0
aa(lp321
I131
aI125
aI240
aI57
aa(lp322
I15
aI143
aI208
aI0
aI0
aI0
aa(lp323
I232
aI215
aI253
aI255
aI255
aa(lp324
I137
aI69
aI228
aa(lp325
I232
aI223
aI252
aI255
aI255
aa(lp326
I49
aI201
aa(lp327
I72
aI137
aI69
aI232
aa(lp328
I72
aI139
aI69
aI232
aa(lp329
I199
aI0
aI1
aI0
aI0
aI0
aa(lp330
I139
aI85
aI240
aa(lp331
I131
aI233
aI48
aa(lp332
I1
aI202
aa(lp333
I72
aI139
aI69
aI232
aa(lp334
I137
aI80
aI4
aa(lp335
I199
aI69
aI244
aI0
aI0
aI0
aI0
aa(lp336
I131
aI125
aI244
aI4
aa(lp337
I15
aI141
aI132
aI0
aI0
aI0
aa(lp338
I72
aI184
aI80
aI34
aI96
aI0
aI0
aa(lp339
I0
aI0
aI0
aa(lp340
I72
aI99
aI77
aI244
aa(lp341
I72
aI193
aI225
aI5
aa(lp342
I72
aI1
aI200
aa(lp343
I139
aI80
aI4
aa(lp344
I72
aI139
aI69
aI232
aa(lp345
I59
aI80
aI4
aa(lp346
I15
aI133
aI72
aI0
aI0
aI0
aa(lp347
I72
aI184
aI80
aI34
aI96
aI0
aI0
aa(lp348
I0
aI0
aI0
aa(lp349
I72
aI99
aI77
aI244
aa(lp350
I72
aI193
aI225
aI5
aa(lp351
I72
aI1
aI200
aa(lp352
I131
aI120
aI8
aI0
aa(lp353
I15
aI133
aI41
aI0
aI0
aI0
aa(lp354
I72
aI184
aI80
aI34
aI96
aI0
aI0
aa(lp355
I0
aI0
aI0
aa(lp356
I72
aI99
aI77
aI244
aa(lp357
I72
aI193
aI225
aI5
aa(lp358
I72
aI1
aI200
aa(lp359
I199
aI64
aI8
aI1
aI0
aI0
aI0
aa(lp360
I72
aI139
aI69
aI232
aa(lp361
I72
aI137
aI69
aI248
aa(lp362
I233
aI46
aI0
aI0
aI0
aa(lp363
I233
aI0
aI0
aI0
aI0
aa(lp364
I49
aI192
aa(lp365
I139
aI77
aI244
aa(lp366
I131
aI232
aI1
aa(lp367
I41
aI193
aa(lp368
I137
aI77
aI244
aa(lp369
I233
aI114
aI255
aI255
aI255
aa(lp370
I72
aI191
aI254
aI19
aI64
aI0
aI0
aa(lp371
I0
aI0
aI0
aa(lp372
I232
aI236
aI251
aI255
aI255
aa(lp373
I72
aI199
aI69
aI248
aI0
aI0
aI0
aI0
aa(lp374
I72
aI139
aI69
aI248
aa(lp375
I72
aI131
aI196
aI32
aa(lp376
I93
aa(lp377
I195
aasg67
(I4197456
I4197718
tp378
sg69
I0
sg70
g71
ssS'get_input'
p379
(dp380
g7
g8
sg9
(lp381
sg11
(lp382
(lp383
I85
aa(lp384
I72
aI137
aI229
aa(lp385
I72
aI131
aI236
aI32
aa(lp386
I232
aI3
aI248
aI255
aI255
aa(lp387
I72
aI191
aI71
aI20
aI64
aI0
aI0
aa(lp388
I0
aI0
aI0
aa(lp389
I176
aI0
aa(lp390
I232
aI2
aI246
aI255
aI255
aa(lp391
I199
aI69
aI252
aI0
aI0
aI0
aI0
aa(lp392
I137
aI69
aI248
aa(lp393
I131
aI125
aI252
aI4
aa(lp394
I15
aI141
aI68
aI0
aI0
aI0
aa(lp395
I72
aI191
aI94
aI20
aI64
aI0
aI0
aa(lp396
I0
aI0
aI0
aa(lp397
I72
aI184
aI80
aI34
aI96
aI0
aI0
aa(lp398
I0
aI0
aI0
aa(lp399
I72
aI99
aI77
aI252
aa(lp400
I72
aI193
aI225
aI5
aa(lp401
I72
aI1
aI200
aa(lp402
I139
aI112
aI4
aa(lp403
I176
aI0
aa(lp404
I232
aI197
aI245
aI255
aI255
aa(lp405
I137
aI69
aI244
aa(lp406
I139
aI69
aI252
aa(lp407
I45
aI9
aI240
aI181
aI130
aa(lp408
I131
aI192
aI1
aa(lp409
I5
aI9
aI240
aI181
aI130
aa(lp410
I137
aI69
aI252
aa(lp411
I233
aI178
aI255
aI255
aI255
aa(lp412
I72
aI191
aI98
aI20
aI64
aI0
aI0
aa(lp413
I0
aI0
aI0
aa(lp414
I176
aI0
aa(lp415
I232
aI153
aI245
aI255
aI255
aa(lp416
I137
aI69
aI240
aa(lp417
I199
aI69
aI252
aI0
aI0
aI0
aI0
aa(lp418
I131
aI125
aI252
aI64
aa(lp419
I15
aI141
aI36
aI0
aI0
aI0
aa(lp420
I72
aI99
aI69
aI252
aa(lp421
I198
aI4
aI5
aI224
aI34
aI96
aI0
aa(lp422
I10
aa(lp423
I139
aI69
aI252
aa(lp424
I45
aI209
aI15
aI188
aI138
aa(lp425
I131
aI192
aI1
aa(lp426
I5
aI209
aI15
aI188
aI138
aa(lp427
I137
aI69
aI252
aa(lp428
I233
aI210
aI255
aI255
aI255
aa(lp429
I72
aI191
aI224
aI34
aI96
aI0
aI0
aa(lp430
I0
aI0
aI0
aa(lp431
I190
aI64
aI0
aI0
aI0
aa(lp432
I72
aI139
aI20
aI37
aI112
aI32
aI96
aI0
aa(lp433
I232
aI101
aI245
aI255
aI255
aa(lp434
I15
aI190
aI52
aI37
aI224
aI34
aI96
aI0
aa(lp435
I131
aI254
aI0
aa(lp436
I72
aI137
aI69
aI232
aa(lp437
I15
aI133
aI5
aI0
aI0
aI0
aa(lp438
I233
aI19
aI255
aI255
aI255
aa(lp439
I15
aI190
aI4
aI37
aI31
aI35
aI96
aI0
aa(lp440
I131
aI248
aI10
aa(lp441
I15
aI132
aI15
aI0
aI0
aI0
aa(lp442
I72
aI191
aI192
aI20
aI64
aI0
aI0
aa(lp443
I0
aI0
aI0
aa(lp444
I232
aI219
aI247
aI255
aI255
aa(lp445
I199
aI69
aI252
aI0
aI0
aI0
aI0
aa(lp446
I131
aI125
aI252
aI64
aa(lp447
I15
aI141
aI64
aI0
aI0
aI0
aa(lp448
I72
aI99
aI69
aI252
aa(lp449
I15
aI190
aI12
aI5
aI224
aI34
aI96
aI0
aa(lp450
I131
aI249
aI10
aa(lp451
I15
aI133
aI12
aI0
aI0
aI0
aa(lp452
I72
aI99
aI69
aI252
aa(lp453
I198
aI4
aI5
aI224
aI34
aI96
aI0
aI0
aa(lp454
I233
aI0
aI0
aI0
aI0
aa(lp455
I49
aI192
aa(lp456
I139
aI77
aI252
aa(lp457
I137
aI194
aa(lp458
I41
aI202
aa(lp459
I137
aI193
aa(lp460
I131
aI233
aI1
aa(lp461
I1
aI202
aa(lp462
I41
aI208
aa(lp463
I137
aI69
aI252
aa(lp464
I233
aI182
aI255
aI255
aI255
aa(lp465
I15
aI190
aI4
aI37
aI224
aI34
aI96
aI0
aa(lp466
I131
aI248
aI113
aa(lp467
I15
aI133
aI27
aI0
aI0
aI0
aa(lp468
I72
aI191
aI208
aI20
aI64
aI0
aI0
aa(lp469
I0
aI0
aI0
aa(lp470
I176
aI0
aa(lp471
I232
aI152
aI244
aI255
aI255
aa(lp472
I49
aI255
aa(lp473
I137
aI69
aI228
aa(lp474
I232
aI238
aI244
aI255
aI255
aa(lp475
I15
aI190
aI4
aI37
aI224
aI34
aI96
aI0
aa(lp476
I131
aI248
aI110
aa(lp477
I15
aI133
aI10
aI0
aI0
aI0
aa(lp478
I232
aI248
aI245
aI255
aI255
aa(lp479
I233
aI91
aI254
aI255
aI255
aa(lp480
I72
aI131
aI196
aI32
aa(lp481
I93
aa(lp482
I195
aasg67
(I4198464
I4198899
tp483
sg69
I0
sg70
g71
ssS'next_tok'
p484
(dp485
g7
g8
sg9
(lp486
sg11
(lp487
(lp488
I85
aa(lp489
I72
aI137
aI229
aa(lp490
I233
aI0
aI0
aI0
aI0
aa(lp491
I232
aI18
aI253
aI255
aI255
aa(lp492
I185
aI255
aI255
aI255
aI255
aa(lp493
I72
aI139
aI0
aa(lp494
I72
aI99
aI20
aI37
aI32
aI35
aI96
aI0
aa(lp495
I15
aI190
aI52
aI21
aI224
aI34
aI96
aI0
aa(lp496
I72
aI99
aI214
aa(lp497
I15
aI183
aI52
aI80
aa(lp498
I131
aI246
aI255
aa(lp499
I137
aI207
aa(lp500
I129
aI247
aI0
aI32
aI0
aI0
aa(lp501
I129
aI241
aI188
aI67
aI106
aI45
aa(lp502
I9
aI254
aa(lp503
I129
aI201
aI188
aI67
aI106
aI45
aa(lp504
I131
aI246
aI255
aa(lp505
I33
aI206
aa(lp506
I131
aI254
aI0
aa(lp507
I15
aI132
aI32
aI0
aI0
aI0
aa(lp508
I139
aI4
aI37
aI32
aI35
aI96
aI0
aa(lp509
I5
aI88
aI210
aI158
aI133
aa(lp510
I131
aI192
aI1
aa(lp511
I45
aI88
aI210
aI158
aI133
aa(lp512
I137
aI4
aI37
aI32
aI35
aI96
aI0
aa(lp513
I233
aI149
aI255
aI255
aI255
aa(lp514
I72
aI99
aI4
aI37
aI32
aI35
aI96
aI0
aa(lp515
I15
aI190
aI4
aI5
aI224
aI34
aI96
aI0
aa(lp516
I93
aa(lp517
I195
aasg67
(I4196800
I4196934
tp518
sg69
I0
sg70
g71
ssS'new_expr'
p519
(dp520
g7
g8
sg9
(lp521
sg11
(lp522
(lp523
I85
aa(lp524
I72
aI137
aI229
aa(lp525
I131
aI60
aI37
aI208
aI34
aI96
aI0
aa(lp526
I8
aa(lp527
I15
aI141
aI60
aI0
aI0
aI0
aa(lp528
I72
aI184
aI128
aI32
aI96
aI0
aI0
aa(lp529
I0
aI0
aI0
aa(lp530
I139
aI12
aI37
aI208
aI34
aI96
aI0
aa(lp531
I137
aI202
aa(lp532
I129
aI194
aI202
aI233
aI234
aI134
aa(lp533
I131
aI194
aI1
aa(lp534
I129
aI234
aI202
aI233
aI234
aI134
aa(lp535
I137
aI20
aI37
aI208
aI34
aI96
aI0
aa(lp536
I72
aI99
aI241
aa(lp537
I72
aI193
aI230
aI5
aa(lp538
I72
aI1
aI240
aa(lp539
I72
aI137
aI69
aI248
aa(lp540
I233
aI8
aI0
aI0
aI0
aa(lp541
I72
aI199
aI69
aI248
aI0
aI0
aI0
aI0
aa(lp542
I72
aI139
aI69
aI248
aa(lp543
I93
aa(lp544
I195
aasg67
(I4196704
I4196796
tp545
sg69
I0
sg70
g71
ssS'parse'
p546
(dp547
g7
g8
sg9
(lp548
sg11
(lp549
(lp550
I85
aa(lp551
I72
aI137
aI229
aa(lp552
I72
aI131
aI236
aI16
aa(lp553
I232
aI163
aI252
aI255
aI255
aa(lp554
I72
aI137
aI69
aI240
aa(lp555
I232
aI186
aI251
aI255
aI255
aa(lp556
I131
aI248
aI0
aa(lp557
I15
aI132
aI15
aI0
aI0
aI0
aa(lp558
I72
aI191
aI30
aI20
aI64
aI0
aI0
aa(lp559
I0
aI0
aI0
aa(lp560
I232
aI18
aI251
aI255
aI255
aa(lp561
I199
aI69
aI252
aI0
aI0
aI0
aI0
aa(lp562
I131
aI125
aI252
aI4
aa(lp563
I15
aI141
aI77
aI0
aI0
aI0
aa(lp564
I72
aI184
aI80
aI34
aI96
aI0
aI0
aa(lp565
I0
aI0
aI0
aa(lp566
I72
aI99
aI77
aI252
aa(lp567
I72
aI193
aI225
aI5
aa(lp568
I72
aI1
aI200
aa(lp569
I131
aI120
aI8
aI0
aa(lp570
I15
aI133
aI15
aI0
aI0
aI0
aa(lp571
I72
aI191
aI47
aI20
aI64
aI0
aI0
aa(lp572
I0
aI0
aI0
aa(lp573
I232
aI211
aI250
aI255
aI255
aa(lp574
I233
aI0
aI0
aI0
aI0
aa(lp575
I49
aI192
aa(lp576
I139
aI77
aI252
aa(lp577
I137
aI194
aa(lp578
I41
aI202
aa(lp579
I137
aI193
aa(lp580
I131
aI233
aI1
aa(lp581
I1
aI202
aa(lp582
I41
aI208
aa(lp583
I137
aI69
aI252
aa(lp584
I233
aI169
aI255
aI255
aI255
aa(lp585
I72
aI139
aI69
aI240
aa(lp586
I72
aI131
aI196
aI16
aa(lp587
I93
aa(lp588
I195
aasg67
(I4197872
I4198022
tp589
sg69
I0
sg70
g71
ssS'take'
p590
(dp591
g7
g8
sg9
(lp592
sg11
(lp593
(lp594
I85
aa(lp595
I72
aI137
aI229
aa(lp596
I72
aI99
aI4
aI37
aI32
aI35
aI96
aI0
aa(lp597
I15
aI190
aI12
aI5
aI224
aI34
aI96
aI0
aa(lp598
I131
aI249
aI0
aa(lp599
I15
aI132
aI29
aI0
aI0
aI0
aa(lp600
I49
aI192
aa(lp601
I139
aI12
aI37
aI32
aI35
aI96
aI0
aa(lp602
I131
aI232
aI1
aa(lp603
I41
aI193
aa(lp604
I137
aI12
aI37
aI32
aI35
aI96
aI0
aa(lp605
I137
aI77
aI252
aa(lp606
I233
aI7
aI0
aI0
aI0
aa(lp607
I199
aI69
aI252
aI0
aI0
aI0
aI0
aa(lp608
I139
aI69
aI252
aa(lp609
I93
aa(lp610
I195
aasg67
(I4196944
I4197014
tp611
sg69
I0
sg70
g71
ssS'get_fact'
p612
(dp613
g7
g8
sg9
(lp614
sg11
(lp615
(lp616
I85
aa(lp617
I72
aI137
aI229
aa(lp618
I72
aI131
aI236
aI32
aa(lp619
I232
aI227
aI254
aI255
aI255
aa(lp620
I72
aI137
aI69
aI232
aa(lp621
I72
aI131
aI125
aI232
aI0
aa(lp622
I15
aI132
aI13
aI0
aI0
aI0
aa(lp623
I72
aI139
aI69
aI232
aa(lp624
I72
aI137
aI69
aI248
aa(lp625
I233
aI92
aI0
aI0
aI0
aa(lp626
I232
aI50
aI252
aI255
aI255
aa(lp627
I137
aI69
aI244
aa(lp628
I131
aI248
aI40
aa(lp629
I15
aI133
aI67
aI0
aI0
aI0
aa(lp630
I232
aI177
aI252
aI255
aI255
aa(lp631
I137
aI69
aI228
aa(lp632
I232
aI249
aI252
aI255
aI255
aa(lp633
I72
aI137
aI69
aI232
aa(lp634
I232
aI16
aI252
aI255
aI255
aa(lp635
I131
aI248
aI41
aa(lp636
I15
aI132
aI15
aI0
aI0
aI0
aa(lp637
I72
aI191
aI12
aI20
aI64
aI0
aI0
aa(lp638
I0
aI0
aI0
aa(lp639
I232
aI104
aI251
aI255
aI255
aa(lp640
I232
aI131
aI252
aI255
aI255
aa(lp641
I72
aI139
aI77
aI232
aa(lp642
I72
aI137
aI77
aI248
aa(lp643
I137
aI69
aI224
aa(lp644
I233
aI8
aI0
aI0
aI0
aa(lp645
I72
aI199
aI69
aI248
aI0
aI0
aI0
aI0
aa(lp646
I72
aI139
aI69
aI248
aa(lp647
I72
aI131
aI196
aI32
aa(lp648
I93
aa(lp649
I195
aasg67
(I4197728
I4197871
tp650
sg69
I0
sg70
g71
ssS'get_term'
p651
(dp652
g7
g8
sg9
(lp653
sg11
(lp654
(lp655
I85
aa(lp656
I72
aI137
aI229
aa(lp657
I72
aI131
aI236
aI48
aa(lp658
I232
aI195
aI1
aI0
aI0
aa(lp659
I72
aI137
aI69
aI224
aa(lp660
I232
aI26
aI254
aI255
aI255
aa(lp661
I177
aI1
aa(lp662
I137
aI69
aI252
aa(lp663
I131
aI248
aI42
aa(lp664
I136
aI77
aI223
aa(lp665
I15
aI132
aI10
aI0
aI0
aI0
aa(lp666
I131
aI125
aI252
aI47
aa(lp667
I15
aI148
aI192
aa(lp668
I136
aI69
aI223
aa(lp669
I138
aI69
aI223
aa(lp670
I168
aI1
aa(lp671
I15
aI133
aI5
aI0
aI0
aI0
aa(lp672
I233
aI107
aI0
aI0
aI0
aa(lp673
I232
aI122
aI254
aI255
aI255
aa(lp674
I131
aI248
aI0
aa(lp675
I15
aI133
aI15
aI0
aI0
aI0
aa(lp676
I72
aI191
aI230
aI19
aI64
aI0
aI0
aa(lp677
I0
aI0
aI0
aa(lp678
I232
aI66
aI253
aI255
aI255
aa(lp679
I232
aI109
aI1
aI0
aI0
aa(lp680
I72
aI137
aI69
aI232
aa(lp681
I72
aI139
aI69
aI224
aa(lp682
I72
aI137
aI69
aI240
aa(lp683
I232
aI92
aI253
aI255
aI255
aa(lp684
I185
aI5
aI0
aI0
aI0
aa(lp685
I186
aI4
aI0
aI0
aI0
aa(lp686
I72
aI137
aI69
aI224
aa(lp687
I131
aI125
aI252
aI42
aa(lp688
I15
aI68
aI202
aa(lp689
I72
aI139
aI69
aI224
aa(lp690
I137
aI8
aa(lp691
I72
aI139
aI69
aI240
aa(lp692
I72
aI139
aI117
aI224
aa(lp693
I72
aI137
aI70
aI16
aa(lp694
I72
aI139
aI69
aI232
aa(lp695
I72
aI139
aI117
aI224
aa(lp696
I72
aI137
aI70
aI24
aa(lp697
I233
aI101
aI255
aI255
aI255
aa(lp698
I72
aI139
aI69
aI224
aa(lp699
I72
aI131
aI196
aI48
aa(lp700
I93
aa(lp701
I195
aasg67
(I4197264
I4197446
tp702
sg69
I0
sg70
g71
ssS'main'
p703
(dp704
g7
g8
sg9
(lp705
sg11
(lp706
(lp707
I85
aa(lp708
I72
aI137
aI229
aa(lp709
I72
aI131
aI236
aI48
aa(lp710
I49
aI192
aa(lp711
I137
aI199
aa(lp712
I199
aI69
aI252
aI0
aI0
aI0
aI0
aa(lp713
I232
aI136
aI244
aI255
aI255
aa(lp714
I137
aI193
aa(lp715
I137
aI207
aa(lp716
I232
aI79
aI244
aI255
aI255
aa(lp717
I232
aI186
aI245
aI255
aI255
aa(lp718
I232
aI21
aI254
aI255
aI255
aa(lp719
I72
aI191
aI128
aI33
aI96
aI0
aI0
aa(lp720
I0
aI0
aI0
aa(lp721
I232
aI86
aI244
aI255
aI255
aa(lp722
I72
aI131
aI60
aI37
aI40
aI35
aI96
aa(lp723
I0
aI0
aa(lp724
I137
aI69
aI236
aa(lp725
I15
aI132
aI50
aI0
aI0
aI0
aa(lp726
I72
aI191
aI213
aI20
aI64
aI0
aI0
aa(lp727
I0
aI0
aI0
aa(lp728
I72
aI185
aI224
aI34
aI96
aI0
aI0
aa(lp729
I0
aI0
aI0
aa(lp730
I72
aI139
aI52
aI37
aI40
aI35
aI96
aI0
aa(lp731
I139
aI20
aI37
aI32
aI35
aI96
aI0
aa(lp732
I176
aI0
aa(lp733
I232
aI234
aI243
aI255
aI255
aa(lp734
I137
aI69
aI232
aa(lp735
I233
aI168
aI255
aI255
aI255
aa(lp736
I232
aI109
aI251
aI255
aI255
aa(lp737
I72
aI141
aI117
aI240
aa(lp738
I72
aI137
aI199
aa(lp739
I232
aI65
aI252
aI255
aI255
aa(lp740
I131
aI125
aI240
aI0
aa(lp741
I15
aI133
aI15
aI0
aI0
aI0
aa(lp742
I72
aI191
aI227
aI20
aI64
aI0
aI0
aa(lp743
I0
aI0
aI0
aa(lp744
I232
aI136
aI246
aI255
aI255
aa(lp745
I131
aI125
aI240
aI1
aa(lp746
I15
aI133
aI35
aI0
aI0
aI0
aa(lp747
I131
aI125
aI244
aI24
aa(lp748
I15
aI133
aI25
aI0
aI0
aI0
aa(lp749
I72
aI191
aI242
aI20
aI64
aI0
aI0
aa(lp750
I0
aI0
aI0
aa(lp751
I176
aI0
aa(lp752
I232
aI147
aI243
aI255
aI255
aa(lp753
I137
aI69
aI228
aa(lp754
I233
aI84
aI0
aI0
aI0
aa(lp755
I131
aI125
aI240
aI1
aa(lp756
I15
aI133
aI28
aI0
aI0
aI0
aa(lp757
I72
aI191
aI11
aI21
aI64
aI0
aI0
aa(lp758
I0
aI0
aI0
aa(lp759
I139
aI117
aI244
aa(lp760
I176
aI0
aa(lp761
I232
aI109
aI243
aI255
aI255
aa(lp762
I137
aI69
aI224
aa(lp763
I233
aI26
aI0
aI0
aI0
aa(lp764
I72
aI191
aI25
aI21
aI64
aI0
aI0
aa(lp765
I0
aI0
aI0
aa(lp766
I139
aI117
aI244
aa(lp767
I139
aI85
aI240
aa(lp768
I176
aI0
aa(lp769
I232
aI78
aI243
aI255
aI255
aa(lp770
I137
aI69
aI220
aa(lp771
I72
aI191
aI42
aI21
aI64
aI0
aI0
aa(lp772
I0
aI0
aI0
aa(lp773
I176
aI0
aa(lp774
I232
aI58
aI243
aI255
aI255
aa(lp775
I137
aI69
aI216
aa(lp776
I233
aI248
aI254
aI255
aI255
aa(lp777
I102
aI144
aasg67
(I4198912
I4199214
tp778
sg69
I0
sg70
g71
ssS'bail'
p779
(dp780
g7
g8
sg9
(lp781
sg11
(lp782
(lp783
I85
aa(lp784
I72
aI137
aI229
aa(lp785
I72
aI131
aI236
aI16
aa(lp786
I72
aI184
aI128
aI33
aI96
aI0
aI0
aa(lp787
I0
aI0
aI0
aa(lp788
I190
aI1
aI0
aI0
aI0
aa(lp789
I72
aI137
aI125
aI248
aa(lp790
I72
aI139
aI125
aI248
aa(lp791
I72
aI137
aI60
aI37
aI40
aI35
aI96
aI0
aa(lp792
I72
aI137
aI199
aa(lp793
I232
aI81
aI253
aI255
aI255
aa(lp794
I144
aasg67
(I4196656
I4196703
tp795
sg69
I1
sg70
g71
sssS'function_calls'
p796
(dp797
sS'binary_filename'
p798
S'24gamellvm'
p799
sS'structures'
p800
(dp801
sS'extern_functions'
p802
(dp803
sS'arch'
p804
S'amd64'
p805
sS'bin_raw_bytes'
p806
g8
s.