(dp0
S'text_addr'
p1
S'0x4004d0'
p2
sS'functions'
p3
(dp4
S'main'
p5
(dp6
S'ret_type'
p7
S''
p8
sS'args_type'
p9
(lp10
sS'inst_bytes'
p11
(lp12
(lp13
I85
aa(lp14
I72
aI137
aI229
aa(lp15
I72
aI131
aI236
aI32
aa(lp16
I199
aI69
aI252
aI0
aI0
aI0
aI0
aa(lp17
I199
aI69
aI248
aI0
aI0
aI0
aI0
aa(lp18
I131
aI125
aI248
aI32
aa(lp19
I15
aI141
aI149
aI0
aI0
aI0
aa(lp20
I242
aI15
aI16
aI5
aI160
aI2
aI0
aI0
aa(lp21
I242
aI15
aI42
aI77
aI248
aa(lp22
I242
aI15
aI89
aI200
aa(lp23
I72
aI99
aI69
aI248
aa(lp24
I242
aI15
aI17
aI12
aI197
aI80
aI16
aa(lp25
I96
aI0
aa(lp26
I72
aI99
aI69
aI248
aa(lp27
I242
aI15
aI16
aI4
aI197
aI80
aI16
aa(lp28
I96
aI0
aa(lp29
I232
aI208
aI251
aI255
aI255
aa(lp30
I72
aI99
aI69
aI248
aa(lp31
I242
aI15
aI17
aI4
aI197
aI208
aI32
aa(lp32
I96
aI0
aa(lp33
I72
aI99
aI69
aI248
aa(lp34
I242
aI15
aI16
aI4
aI197
aI80
aI16
aa(lp35
I96
aI0
aa(lp36
I232
aI161
aI251
aI255
aI255
aa(lp37
I72
aI99
aI69
aI248
aa(lp38
I242
aI15
aI17
aI4
aI197
aI80
aI50
aa(lp39
I96
aI0
aa(lp40
I72
aI99
aI69
aI248
aa(lp41
I242
aI15
aI16
aI4
aI197
aI208
aI32
aa(lp42
I96
aI0
aa(lp43
I72
aI99
aI69
aI248
aa(lp44
I242
aI15
aI94
aI4
aI197
aI80
aI50
aa(lp45
I96
aI0
aa(lp46
I72
aI99
aI69
aI248
aa(lp47
I242
aI15
aI17
aI4
aI197
aI80
aI49
aa(lp48
I96
aI0
aa(lp49
I49
aI192
aa(lp50
I139
aI77
aI248
aa(lp51
I131
aI232
aI1
aa(lp52
I41
aI193
aa(lp53
I137
aI77
aI248
aa(lp54
I233
aI97
aI255
aI255
aI255
aa(lp55
I199
aI69
aI248
aI0
aI0
aI0
aI0
aa(lp56
I129
aI125
aI248
aI240
aI1
aI0
aI0
aa(lp57
I15
aI141
aI71
aI0
aI0
aI0
aa(lp58
I242
aI15
aI16
aI5
aI239
aI1
aI0
aI0
aa(lp59
I72
aI99
aI69
aI248
aa(lp60
I242
aI15
aI17
aI4
aI197
aI80
aI17
aa(lp61
I96
aI0
aa(lp62
I72
aI99
aI69
aI248
aa(lp63
I242
aI15
aI17
aI4
aI197
aI80
aI51
aa(lp64
I96
aI0
aa(lp65
I72
aI99
aI69
aI248
aa(lp66
I242
aI15
aI17
aI4
aI197
aI208
aI33
aa(lp67
I96
aI0
aa(lp68
I139
aI69
aI248
aa(lp69
I45
aI158
aI190
aI19
aI182
aa(lp70
I131
aI192
aI1
aa(lp71
I5
aI158
aI190
aI19
aI182
aa(lp72
I137
aI69
aI248
aa(lp73
I233
aI172
aI255
aI255
aI255
aa(lp74
I72
aI191
aI208
aI32
aI96
aI0
aI0
aa(lp75
I0
aI0
aI0
aa(lp76
I72
aI190
aI80
aI16
aI96
aI0
aI0
aa(lp77
I0
aI0
aI0
aa(lp78
I72
aI186
aI208
aI33
aI96
aI0
aI0
aa(lp79
I0
aI0
aI0
aa(lp80
I242
aI15
aI16
aI5
aI122
aI1
aI0
aI0
aa(lp81
I49
aI201
aa(lp82
I232
aI211
aI253
aI255
aI255
aa(lp83
I72
aI191
aI112
aI11
aI64
aI0
aI0
aa(lp84
I0
aI0
aI0
aa(lp85
I242
aI15
aI16
aI13
aI105
aI1
aI0
aI0
aa(lp86
I242
aI15
aI89
aI200
aa(lp87
I15
aI40
aI193
aa(lp88
I176
aI1
aa(lp89
I232
aI163
aI250
aI255
aI255
aa(lp90
I72
aI191
aI80
aI50
aI96
aI0
aI0
aa(lp91
I0
aI0
aI0
aa(lp92
I72
aI190
aI80
aI16
aI96
aI0
aI0
aa(lp93
I0
aI0
aI0
aa(lp94
I72
aI186
aI80
aI51
aI96
aI0
aI0
aa(lp95
I0
aI0
aI0
aa(lp96
I242
aI15
aI16
aI5
aI45
aI1
aI0
aI0
aa(lp97
I49
aI201
aa(lp98
I137
aI69
aI244
aa(lp99
I232
aI131
aI253
aI255
aI255
aa(lp100
I72
aI191
aI112
aI11
aI64
aI0
aI0
aa(lp101
I0
aI0
aI0
aa(lp102
I242
aI15
aI16
aI13
aI9
aI1
aI0
aI0
aa(lp103
I242
aI15
aI89
aI200
aa(lp104
I15
aI40
aI193
aa(lp105
I176
aI1
aa(lp106
I232
aI83
aI250
aI255
aI255
aa(lp107
I72
aI191
aI80
aI49
aI96
aI0
aI0
aa(lp108
I0
aI0
aI0
aa(lp109
I72
aI190
aI80
aI16
aI96
aI0
aI0
aa(lp110
I0
aI0
aI0
aa(lp111
I72
aI186
aI80
aI17
aI96
aI0
aI0
aa(lp112
I0
aI0
aI0
aa(lp113
I242
aI15
aI16
aI5
aI197
aI0
aI0
aI0
aa(lp114
I49
aI201
aa(lp115
I137
aI69
aI240
aa(lp116
I232
aI51
aI253
aI255
aI255
aa(lp117
I72
aI191
aI112
aI11
aI64
aI0
aI0
aa(lp118
I0
aI0
aI0
aa(lp119
I242
aI15
aI16
aI13
aI177
aI0
aI0
aI0
aa(lp120
I242
aI15
aI89
aI200
aa(lp121
I15
aI40
aI193
aa(lp122
I176
aI1
aa(lp123
I232
aI3
aI250
aI255
aI255
aa(lp124
I49
aI201
aa(lp125
I137
aI69
aI236
aa(lp126
I137
aI200
aa(lp127
I72
aI131
aI196
aI32
aa(lp128
I93
aa(lp129
I195
aasS'boundaries'
p130
(I4196512
I4197034
tp131
sS'num_args'
p132
I0
sS'inst_strings'
p133
(lp134
ssS'thiele'
p135
(dp136
g7
g8
sg9
(lp137
sg11
(lp138
(lp139
I85
aa(lp140
I72
aI137
aI229
aa(lp141
I72
aI131
aI236
aI80
aa(lp142
I72
aI137
aI125
aI240
aa(lp143
I72
aI137
aI117
aI232
aa(lp144
I72
aI137
aI85
aI224
aa(lp145
I242
aI15
aI17
aI69
aI216
aa(lp146
I137
aI77
aI212
aa(lp147
I131
aI125
aI212
aI31
aa(lp148
I15
aI142
aI18
aI0
aI0
aI0
aa(lp149
I242
aI15
aI16
aI5
aI90
aI3
aI0
aI0
aa(lp150
I242
aI15
aI17
aI69
aI248
aa(lp151
I233
aI172
aI0
aI0
aI0
aa(lp152
I49
aI201
aa(lp153
I72
aI139
aI125
aI240
aa(lp154
I72
aI139
aI117
aI232
aa(lp155
I72
aI139
aI85
aI224
aa(lp156
I68
aI139
aI69
aI212
aa(lp157
I232
aI193
aI253
aI255
aI255
aa(lp158
I49
aI201
aa(lp159
I72
aI139
aI125
aI240
aa(lp160
I72
aI139
aI117
aI232
aa(lp161
I72
aI139
aI85
aI224
aa(lp162
I68
aI139
aI69
aI212
aa(lp163
I65
aI129
aI232
aI157
aI16
aI163
aI89
aa(lp164
I65
aI131
aI232
aI2
aa(lp165
I65
aI129
aI192
aI157
aI16
aI163
aI89
aa(lp166
I242
aI15
aI17
aI69
aI200
aa(lp167
I232
aI147
aI253
aI255
aI255
aa(lp168
I242
aI15
aI16
aI77
aI200
aa(lp169
I242
aI15
aI92
aI200
aa(lp170
I242
aI15
aI16
aI69
aI216
aa(lp171
I72
aI139
aI85
aI240
aa(lp172
I72
aI99
aI117
aI212
aa(lp173
I242
aI15
aI92
aI4
aI242
aa(lp174
I72
aI139
aI125
aI240
aa(lp175
I72
aI139
aI117
aI232
aa(lp176
I72
aI139
aI85
aI224
aa(lp177
I242
aI15
aI16
aI85
aI216
aa(lp178
I139
aI77
aI212
aa(lp179
I129
aI233
aI49
aI221
aI185
aI114
aa(lp180
I131
aI193
aI1
aa(lp181
I129
aI193
aI49
aI221
aI185
aI114
aa(lp182
I242
aI15
aI17
aI69
aI192
aa(lp183
I15
aI40
aI194
aa(lp184
I242
aI15
aI17
aI77
aI184
aa(lp185
I232
aI51
aI255
aI255
aI255
aa(lp186
I242
aI15
aI16
aI77
aI192
aa(lp187
I242
aI15
aI94
aI200
aa(lp188
I242
aI15
aI16
aI69
aI184
aa(lp189
I242
aI15
aI88
aI193
aa(lp190
I242
aI15
aI17
aI69
aI248
aa(lp191
I242
aI15
aI16
aI69
aI248
aa(lp192
I72
aI131
aI196
aI80
aa(lp193
I93
aa(lp194
I195
aasg130
(I4196272
I4196511
tp195
sg132
I5
sg133
g134
ssS'rho'
p196
(dp197
g7
g8
sg9
(lp198
sg11
(lp199
(lp200
I85
aa(lp201
I72
aI137
aI229
aa(lp202
I72
aI131
aI236
aI80
aa(lp203
I49
aI192
aa(lp204
I65
aI185
aI2
aI0
aI0
aI0
aa(lp205
I65
aI186
aI9
aI139
aI78
aI221
aa(lp206
I65
aI187
aI31
aI0
aI0
aI0
aa(lp207
I72
aI137
aI125
aI240
aa(lp208
I72
aI137
aI117
aI232
aa(lp209
I72
aI137
aI85
aI224
aa(lp210
I137
aI77
aI220
aa(lp211
I68
aI137
aI69
aI216
aa(lp212
I139
aI77
aI216
aa(lp213
I65
aI129
aI235
aI137
aI187
aI114
aI216
aa(lp214
I65
aI41
aI203
aa(lp215
I65
aI129
aI195
aI137
aI187
aI114
aI216
aa(lp216
I139
aI77
aI216
aa(lp217
I65
aI131
aI194
aI32
aa(lp218
I65
aI41
aI202
aa(lp219
I65
aI129
aI234
aI9
aI139
aI78
aI221
aa(lp220
I69
aI15
aI175
aI218
aa(lp221
I137
aI69
aI208
aa(lp222
I68
aI137
aI216
aa(lp223
I153
aa(lp224
I65
aI247
aI249
aa(lp225
I139
aI77
aI220
aa(lp226
I68
aI139
aI69
aI208
aa(lp227
I65
aI41
aI192
aa(lp228
I139
aI69
aI208
aa(lp229
I41
aI200
aa(lp230
I65
aI1
aI192
aa(lp231
I139
aI69
aI208
aa(lp232
I68
aI41
aI192
aa(lp233
I137
aI69
aI212
aa(lp234
I131
aI125
aI216
aI0
aa(lp235
I15
aI141
aI13
aI0
aI0
aI0
aa(lp236
I15
aI87
aI192
aa(lp237
I242
aI15
aI17
aI69
aI248
aa(lp238
I233
aI67
aI1
aI0
aI0
aa(lp239
I131
aI125
aI216
aI0
aa(lp240
I15
aI133
aI23
aI0
aI0
aI0
aa(lp241
I72
aI139
aI69
aI232
aa(lp242
I72
aI99
aI77
aI220
aa(lp243
I242
aI15
aI16
aI4
aI200
aa(lp244
I242
aI15
aI17
aI69
aI248
aa(lp245
I233
aI34
aI1
aI0
aI0
aa(lp246
I72
aI139
aI69
aI224
aa(lp247
I72
aI99
aI77
aI212
aa(lp248
I242
aI15
aI16
aI4
aI200
aa(lp249
I72
aI139
aI69
aI224
aa(lp250
I72
aI99
aI77
aI212
aa(lp251
I102
aI15
aI46
aI4
aI200
aa(lp252
I15
aI133
aI11
aI0
aI0
aI0
aa(lp253
I15
aI138
aI5
aI0
aI0
aI0
aa(lp254
I233
aI229
aI0
aI0
aI0
aa(lp255
I49
aI192
aa(lp256
I72
aI139
aI77
aI240
aa(lp257
I72
aI99
aI85
aI220
aa(lp258
I242
aI15
aI16
aI4
aI209
aa(lp259
I72
aI139
aI77
aI240
aa(lp260
I139
aI117
aI220
aa(lp261
I139
aI125
aI216
aa(lp262
I41
aI248
aa(lp263
I41
aI198
aa(lp264
I72
aI99
aI214
aa(lp265
I242
aI15
aI92
aI4
aI209
aa(lp266
I72
aI139
aI125
aI240
aa(lp267
I72
aI139
aI117
aI232
aa(lp268
I72
aI139
aI85
aI224
aa(lp269
I139
aI77
aI220
aa(lp270
I139
aI69
aI216
aa(lp271
I5
aI222
aI105
aI215
aI40
aa(lp272
I131
aI232
aI1
aa(lp273
I45
aI222
aI105
aI215
aI40
aa(lp274
I65
aI137
aI192
aa(lp275
I242
aI15
aI17
aI69
aI200
aa(lp276
I232
aI207
aI254
aI255
aI255
aa(lp277
I49
aI192
aa(lp278
I72
aI139
aI125
aI240
aa(lp279
I72
aI139
aI117
aI232
aa(lp280
I72
aI139
aI85
aI224
aa(lp281
I139
aI77
aI220
aa(lp282
I65
aI137
aI192
aa(lp283
I65
aI41
aI200
aa(lp284
I137
aI193
aa(lp285
I131
aI233
aI1
aa(lp286
I65
aI1
aI200
aa(lp287
I137
aI193
aa(lp288
I68
aI41
aI193
aa(lp289
I68
aI139
aI69
aI216
aa(lp290
I131
aI232
aI1
aa(lp291
I65
aI1
aI192
aa(lp292
I242
aI15
aI17
aI69
aI192
aa(lp293
I232
aI151
aI254
aI255
aI255
aa(lp294
I49
aI192
aa(lp295
I242
aI15
aI16
aI77
aI192
aa(lp296
I242
aI15
aI92
aI200
aa(lp297
I242
aI15
aI16
aI69
aI200
aa(lp298
I242
aI15
aI94
aI193
aa(lp299
I72
aI139
aI125
aI240
aa(lp300
I72
aI139
aI117
aI232
aa(lp301
I72
aI139
aI85
aI224
aa(lp302
I139
aI77
aI220
aa(lp303
I129
aI233
aI58
aI86
aI127
aI237
aa(lp304
I131
aI193
aI1
aa(lp305
I129
aI193
aI58
aI86
aI127
aI237
aa(lp306
I68
aI139
aI69
aI216
aa(lp307
I131
aI232
aI2
aa(lp308
I65
aI1
aI192
aa(lp309
I242
aI15
aI17
aI69
aI184
aa(lp310
I232
aI81
aI254
aI255
aI255
aa(lp311
I242
aI15
aI16
aI77
aI184
aa(lp312
I242
aI15
aI88
aI200
aa(lp313
I72
aI139
aI85
aI224
aa(lp314
I72
aI99
aI117
aI212
aa(lp315
I242
aI15
aI17
aI12
aI242
aa(lp316
I72
aI139
aI69
aI224
aa(lp317
I72
aI99
aI77
aI212
aa(lp318
I242
aI15
aI16
aI4
aI200
aa(lp319
I242
aI15
aI17
aI69
aI248
aa(lp320
I242
aI15
aI16
aI69
aI248
aa(lp321
I72
aI131
aI196
aI80
aa(lp322
I93
aa(lp323
I195
aasg130
(I4195776
I4196258
tp324
sg132
I5
sg133
g134
sssS'function_calls'
p325
(dp326
sS'binary_filename'
p327
S'interpolationllvm'
p328
sS'structures'
p329
(dp330
sS'extern_functions'
p331
(dp332
sS'arch'
p333
S'amd64'
p334
sS'bin_raw_bytes'
p335
g8
s.