(dp0
S'text_addr'
p1
S'0x4005c0'
p2
sS'functions'
p3
(dp4
S'printseq'
p5
(dp6
S'ret_type'
p7
S''
p8
sS'args_type'
p9
(lp10
sS'inst_bytes'
p11
(lp12
(lp13
I85
aa(lp14
I72
aI137
aI229
aa(lp15
I72
aI131
aI236
aI16
aa(lp16
I137
aI125
aI252
aa(lp17
I199
aI69
aI248
aI2
aI0
aI0
aI0
aa(lp18
I131
aI125
aI248
aI0
aa(lp19
I15
aI140
aI98
aI0
aI0
aI0
aa(lp20
I72
aI191
aI196
aI12
aI64
aI0
aI0
aa(lp21
I0
aI0
aI0
aa(lp22
I184
aI116
aI0
aI0
aI0
aa(lp23
I185
aI104
aI0
aI0
aI0
aa(lp24
I186
aI1
aI0
aI0
aI0
aa(lp25
I139
aI117
aI252
aa(lp26
I68
aI139
aI69
aI248
aa(lp27
I137
aI77
aI244
aa(lp28
I68
aI137
aI193
aa(lp29
I211
aI226
aa(lp30
I131
aI242
aI255
aa(lp31
I65
aI137
aI240
aa(lp32
I65
aI49
aI208
aa(lp33
I65
aI33
aI240
aa(lp34
I65
aI131
aI248
aI0
aa(lp35
I139
aI85
aI244
aa(lp36
I15
aI69
aI194
aa(lp37
I137
aI198
aa(lp38
I176
aI0
aa(lp39
I232
aI29
aI253
aI255
aI255
aa(lp40
I137
aI69
aI240
aa(lp41
I139
aI69
aI248
aa(lp42
I5
aI16
aI183
aI37
aI127
aa(lp43
I131
aI192
aI255
aa(lp44
I45
aI16
aI183
aI37
aI127
aa(lp45
I137
aI69
aI248
aa(lp46
I233
aI148
aI255
aI255
aI255
aa(lp47
I72
aI131
aI196
aI16
aa(lp48
I93
aa(lp49
I195
aasS'boundaries'
p50
(I4196320
I4196452
tp51
sS'num_args'
p52
I1
sS'inst_strings'
p53
(lp54
ssS'getai'
p55
(dp56
g7
g8
sg9
(lp57
sg11
(lp58
(lp59
I85
aa(lp60
I72
aI137
aI229
aa(lp61
I72
aI131
aI236
aI16
aa(lp62
I72
aI184
aI16
aI13
aI64
aI0
aI0
aa(lp63
I0
aI0
aI0
aa(lp64
I190
aI3
aI0
aI0
aI0
aa(lp65
I137
aI125
aI252
aa(lp66
I72
aI137
aI199
aa(lp67
I176
aI0
aa(lp68
I232
aI76
aI252
aI255
aI255
aa(lp69
I131
aI125
aI252
aI255
aa(lp70
I137
aI69
aI244
aa(lp71
I15
aI133
aI27
aI0
aI0
aI0
aa(lp72
I232
aI138
aI252
aI255
aI255
aa(lp73
I185
aI255
aI255
aI255
aI255
aa(lp74
I131
aI241
aI7
aa(lp75
I137
aI194
aa(lp76
I49
aI202
aa(lp77
I33
aI194
aa(lp78
I137
aI85
aI248
aa(lp79
I233
aI136
aI0
aI0
aI0
aa(lp80
I184
aI255
aI255
aI255
aI255
aa(lp81
I139
aI77
aI252
aa(lp82
I193
aI249
aI1
aa(lp83
I139
aI85
aI252
aa(lp84
I137
aI214
aa(lp85
I131
aI246
aI255
aa(lp86
I129
aI230
aI255
aI255
aI255
aI255
aa(lp87
I137
aI199
aa(lp88
I129
aI247
aI255
aI255
aI255
aI255
aa(lp89
I33
aI250
aa(lp90
I9
aI214
aa(lp91
I193
aI230
aI1
aa(lp92
I131
aI246
aI255
aa(lp93
I137
aI194
aa(lp94
I131
aI242
aI4
aa(lp95
I137
aI199
aa(lp96
I129
aI247
aI3
aI91
aI222
aI233
aa(lp97
I9
aI214
aa(lp98
I129
aI207
aI3
aI91
aI222
aI233
aa(lp99
I131
aI246
aI255
aa(lp100
I33
aI254
aa(lp101
I137
aI202
aa(lp102
I131
aI242
aI255
aa(lp103
I137
aI247
aa(lp104
I131
aI247
aI255
aa(lp105
I53
aI29
aI19
aI100
aI254
aa(lp106
I65
aI137
aI208
aa(lp107
I65
aI129
aI224
aI29
aI19
aI100
aI254
aa(lp108
I33
aI193
aa(lp109
I65
aI137
aI249
aa(lp110
I65
aI129
aI225
aI29
aI19
aI100
aI254
aa(lp111
I33
aI198
aa(lp112
I65
aI9
aI200
aa(lp113
I65
aI9
aI241
aa(lp114
I69
aI49
aI200
aa(lp115
I9
aI250
aa(lp116
I131
aI242
aI255
aa(lp117
I13
aI29
aI19
aI100
aI254
aa(lp118
I33
aI194
aa(lp119
I65
aI9
aI208
aa(lp120
I68
aI137
aI69
aI248
aa(lp121
I139
aI125
aI248
aa(lp122
I232
aI20
aI254
aI255
aI255
aa(lp123
I72
aI191
aI86
aI13
aI64
aI0
aI0
aa(lp124
I0
aI0
aI0
aa(lp125
I176
aI0
aa(lp126
I232
aI131
aI251
aI255
aI255
aa(lp127
I139
aI77
aI248
aa(lp128
I137
aI69
aI240
aa(lp129
I137
aI200
aa(lp130
I72
aI131
aI196
aI16
aa(lp131
I93
aa(lp132
I195
aasg50
(I4196592
I4196843
tp133
sg52
I1
sg53
g54
ssS'getuser'
p134
(dp135
g7
g8
sg9
(lp136
sg11
(lp137
(lp138
I85
aa(lp139
I72
aI137
aI229
aa(lp140
I72
aI131
aI236
aI16
aa(lp141
I72
aI191
aI199
aI12
aI64
aI0
aI0
aa(lp142
I0
aI0
aI0
aa(lp143
I190
aI3
aI0
aI0
aI0
aa(lp144
I176
aI0
aa(lp145
I232
aI210
aI252
aI255
aI255
aa(lp146
I137
aI69
aI244
aa(lp147
I72
aI191
aI233
aI12
aI64
aI0
aI0
aa(lp148
I0
aI0
aI0
aa(lp149
I72
aI141
aI117
aI248
aa(lp150
I176
aI0
aa(lp151
I232
aI234
aI252
aI255
aI255
aa(lp152
I131
aI248
aI1
aa(lp153
I15
aI132
aI10
aI0
aI0
aI0
aa(lp154
I191
aI1
aI0
aI0
aI0
aa(lp155
I232
aI231
aI252
aI255
aI255
aa(lp156
I72
aI141
aI125
aI248
aa(lp157
I232
aI238
aI253
aI255
aI255
aa(lp158
I137
aI69
aI252
aa(lp159
I131
aI248
aI255
aa(lp160
I15
aI132
aI9
aI0
aI0
aI0
aa(lp161
I139
aI69
aI252
aa(lp162
I72
aI131
aI196
aI16
aa(lp163
I93
aa(lp164
I195
aasg50
(I4196464
I4196592
tp165
sg52
I0
sg53
g54
ssS'rungame'
p166
(dp167
g7
g8
sg9
(lp168
sg11
(lp169
(lp170
I85
aa(lp171
I72
aI137
aI229
aa(lp172
I72
aI131
aI236
aI48
aa(lp173
I137
aI125
aI248
aa(lp174
I137
aI117
aI244
aa(lp175
I232
aI173
aI251
aI255
aI255
aa(lp176
I72
aI191
aI46
aI13
aI64
aI0
aI0
aa(lp177
I0
aI0
aI0
aa(lp178
I190
aI255
aI255
aI255
aI255
aa(lp179
I131
aI240
aI255
aa(lp180
I137
aI241
aa(lp181
I131
aI241
aI7
aa(lp182
I129
aI246
aI45
aI176
aI32
aI244
aa(lp183
I9
aI200
aa(lp184
I129
aI206
aI45
aI176
aI32
aI244
aa(lp185
I131
aI240
aI255
aa(lp186
I33
aI240
aa(lp187
I137
aI69
aI240
aa(lp188
I176
aI0
aa(lp189
I232
aI41
aI251
aI255
aI255
aa(lp190
I139
aI125
aI240
aa(lp191
I137
aI69
aI236
aa(lp192
I232
aI158
aI253
aI255
aI255
aa(lp193
I139
aI69
aI248
aa(lp194
I59
aI69
aI240
aa(lp195
I15
aI133
aI32
aI0
aI0
aI0
aa(lp196
I72
aI191
aI64
aI13
aI64
aI0
aI0
aa(lp197
I0
aI0
aI0
aa(lp198
I176
aI0
aa(lp199
I232
aI1
aI251
aI255
aI255
aa(lp200
I199
aI69
aI252
aI1
aI0
aI0
aI0
aa(lp201
I137
aI69
aI232
aa(lp202
I233
aI193
aI0
aI0
aI0
aa(lp203
I139
aI69
aI244
aa(lp204
I59
aI69
aI240
aa(lp205
I15
aI133
aI32
aI0
aI0
aI0
aa(lp206
I72
aI191
aI77
aI13
aI64
aI0
aI0
aa(lp207
I0
aI0
aI0
aa(lp208
I176
aI0
aa(lp209
I232
aI213
aI250
aI255
aI255
aa(lp210
I199
aI69
aI252
aI0
aI0
aI0
aI0
aa(lp211
I137
aI69
aI228
aa(lp212
I233
aI149
aI0
aI0
aI0
aa(lp213
I184
aI255
aI255
aI255
aI255
aa(lp214
I139
aI77
aI240
aa(lp215
I193
aI225
aI1
aa(lp216
I131
aI240
aI6
aa(lp217
I137
aI202
aa(lp218
I49
aI194
aa(lp219
I33
aI202
aa(lp220
I137
aI85
aI224
aa(lp221
I232
aI250
aI250
aI255
aI255
aa(lp222
I72
aI191
aI196
aI12
aI64
aI0
aI0
aa(lp223
I0
aI0
aI0
aa(lp224
I185
aI116
aI0
aI0
aI0
aa(lp225
I186
aI104
aI0
aI0
aI0
aa(lp226
I190
aI255
aI255
aI255
aI255
aa(lp227
I131
aI240
aI255
aa(lp228
I65
aI137
aI240
aa(lp229
I65
aI131
aI240
aI1
aa(lp230
I65
aI137
aI241
aa(lp231
I65
aI129
aI241
aI17
aI233
aI5
aI175
aa(lp232
I68
aI9
aI192
aa(lp233
I65
aI129
aI201
aI17
aI233
aI5
aI175
aa(lp234
I131
aI240
aI255
aa(lp235
I68
aI33
aI200
aa(lp236
I68
aI139
aI69
aI224
aa(lp237
I65
aI33
aI192
aa(lp238
I68
aI139
aI77
aI224
aa(lp239
I65
aI49
aI193
aa(lp240
I69
aI9
aI200
aa(lp241
I68
aI137
aI69
aI240
aa(lp242
I139
aI69
aI240
aa(lp243
I131
aI246
aI1
aa(lp244
I65
aI137
aI192
aa(lp245
I65
aI49
aI240
aa(lp246
I65
aI33
aI192
aa(lp247
I65
aI131
aI248
aI0
aa(lp248
I15
aI69
aI202
aa(lp249
I137
aI206
aa(lp250
I176
aI0
aa(lp251
I232
aI57
aI250
aI255
aI255
aa(lp252
I137
aI69
aI220
aa(lp253
I233
aI19
aI255
aI255
aI255
aa(lp254
I139
aI69
aI252
aa(lp255
I72
aI131
aI196
aI48
aa(lp256
I93
aa(lp257
I195
aasg50
(I4196848
I4197176
tp258
sg52
I2
sg53
g54
ssS'main'
p259
(dp260
g7
g8
sg9
(lp261
sg11
(lp262
(lp263
I85
aa(lp264
I72
aI137
aI229
aa(lp265
I72
aI131
aI236
aI32
aa(lp266
I49
aI192
aa(lp267
I137
aI199
aa(lp268
I199
aI69
aI252
aI0
aI0
aI0
aI0
aa(lp269
I199
aI69
aI248
aI0
aI0
aI0
aI0
aa(lp270
I199
aI69
aI244
aI0
aI0
aI0
aI0
aa(lp271
I232
aI26
aI250
aI255
aI255
aa(lp272
I137
aI193
aa(lp273
I137
aI207
aa(lp274
I232
aI1
aI250
aI255
aI255
aa(lp275
I72
aI191
aI86
aI13
aI64
aI0
aI0
aa(lp276
I0
aI0
aI0
aa(lp277
I199
aI69
aI240
aI255
aI255
aI255
aI255
aa(lp278
I199
aI69
aI236
aI255
aI255
aI255
aI255
aa(lp279
I176
aI0
aa(lp280
I232
aI210
aI249
aI255
aI255
aa(lp281
I137
aI69
aI232
aa(lp282
I232
aI26
aI250
aI255
aI255
aa(lp283
I185
aI255
aI255
aI255
aI255
aa(lp284
I131
aI241
aI1
aa(lp285
I137
aI194
aa(lp286
I49
aI202
aa(lp287
I33
aI194
aa(lp288
I131
aI250
aI0
aa(lp289
I15
aI132
aI24
aI0
aI0
aI0
aa(lp290
I139
aI125
aI240
aa(lp291
I232
aI59
aI253
aI255
aI255
aa(lp292
I137
aI69
aI236
aa(lp293
I232
aI179
aI252
aI255
aI255
aa(lp294
I137
aI69
aI240
aa(lp295
I233
aI19
aI0
aI0
aI0
aa(lp296
I232
aI166
aI252
aI255
aI255
aa(lp297
I137
aI69
aI240
aa(lp298
I139
aI125
aI240
aa(lp299
I232
aI27
aI253
aI255
aI255
aa(lp300
I137
aI69
aI236
aa(lp301
I139
aI125
aI240
aa(lp302
I139
aI117
aI236
aa(lp303
I232
aI13
aI254
aI255
aI255
aa(lp304
I72
aI191
aI88
aI13
aI64
aI0
aI0
aa(lp305
I0
aI0
aI0
aa(lp306
I139
aI117
aI248
aa(lp307
I129
aI238
aI138
aI174
aI3
aI58
aa(lp308
I1
aI198
aa(lp309
I129
aI198
aI138
aI174
aI3
aI58
aa(lp310
I137
aI117
aI248
aa(lp311
I139
aI69
aI244
aa(lp312
I5
aI221
aI157
aI255
aI140
aa(lp313
I131
aI192
aI1
aa(lp314
I45
aI221
aI157
aI255
aI140
aa(lp315
I137
aI69
aI244
aa(lp316
I139
aI117
aI248
aa(lp317
I139
aI85
aI244
aa(lp318
I176
aI0
aa(lp319
I232
aI63
aI249
aI255
aI255
aa(lp320
I72
aI191
aI121
aI13
aI64
aI0
aI0
aa(lp321
I0
aI0
aI0
aa(lp322
I137
aI69
aI228
aa(lp323
I176
aI0
aa(lp324
I232
aI43
aI249
aI255
aI255
aa(lp325
I137
aI69
aI224
aa(lp326
I233
aI50
aI255
aI255
aI255
aa(lp327
I15
aI31
aI0
aasg50
(I4197184
I4197437
tp328
sg52
I0
sg53
g54
ssS'getseq'
p329
(dp330
g7
g8
sg9
(lp331
sg11
(lp332
(lp333
I85
aa(lp334
I72
aI137
aI229
aa(lp335
I72
aI137
aI125
aI240
aa(lp336
I199
aI69
aI236
aI0
aI0
aI0
aI0
aa(lp337
I199
aI69
aI232
aI4
aI0
aI0
aI0
aa(lp338
I49
aI192
aa(lp339
I136
aI193
aa(lp340
I72
aI139
aI85
aI240
aa(lp341
I15
aI190
aI2
aa(lp342
I131
aI248
aI0
aa(lp343
I136
aI77
aI231
aa(lp344
I15
aI132
aI10
aI0
aI0
aI0
aa(lp345
I131
aI125
aI232
aI0
aa(lp346
I15
aI149
aI192
aa(lp347
I136
aI69
aI231
aa(lp348
I138
aI69
aI231
aa(lp349
I168
aI1
aa(lp350
I15
aI133
aI5
aI0
aI0
aI0
aa(lp351
I233
aI213
aI0
aI0
aI0
aa(lp352
I72
aI139
aI69
aI240
aa(lp353
I72
aI137
aI193
aa(lp354
I72
aI255
aI193
aa(lp355
I72
aI137
aI77
aI240
aa(lp356
I15
aI190
aI16
aa(lp357
I137
aI214
aa(lp358
I131
aI238
aI72
aa(lp359
I137
aI85
aI224
aa(lp360
I137
aI117
aI220
aa(lp361
I15
aI132
aI65
aI0
aI0
aI0
aa(lp362
I233
aI0
aI0
aI0
aI0
aa(lp363
I139
aI69
aI224
aa(lp364
I131
aI232
aI84
aa(lp365
I137
aI69
aI216
aa(lp366
I15
aI132
aI128
aI0
aI0
aI0
aa(lp367
I233
aI0
aI0
aI0
aI0
aa(lp368
I139
aI69
aI224
aa(lp369
I131
aI232
aI104
aa(lp370
I137
aI69
aI212
aa(lp371
I15
aI132
aI25
aI0
aI0
aI0
aa(lp372
I233
aI0
aI0
aI0
aI0
aa(lp373
I139
aI69
aI224
aa(lp374
I131
aI232
aI116
aa(lp375
I137
aI69
aI208
aa(lp376
I15
aI132
aI88
aI0
aI0
aI0
aa(lp377
I233
aI88
aI0
aI0
aI0
aa(lp378
I184
aI255
aI255
aI255
aI255
aa(lp379
I139
aI77
aI232
aa(lp380
I139
aI85
aI236
aa(lp381
I137
aI214
aa(lp382
I131
aI246
aI255
aa(lp383
I137
aI207
aa(lp384
I131
aI247
aI255
aa(lp385
I53
aI68
aI75
aI2
aI42
aa(lp386
I65
aI137
aI240
aa(lp387
I65
aI129
aI224
aI68
aI75
aI2
aI42
aa(lp388
I33
aI194
aa(lp389
I65
aI137
aI249
aa(lp390
I65
aI129
aI225
aI68
aI75
aI2
aI42
aa(lp391
I33
aI193
aa(lp392
I65
aI9
aI208
aa(lp393
I65
aI9
aI201
aa(lp394
I69
aI49
aI200
aa(lp395
I9
aI254
aa(lp396
I131
aI246
aI255
aa(lp397
I13
aI68
aI75
aI2
aI42
aa(lp398
I33
aI198
aa(lp399
I65
aI9
aI240
aa(lp400
I68
aI137
aI69
aI236
aa(lp401
I233
aI17
aI0
aI0
aI0
aa(lp402
I233
aI12
aI0
aI0
aI0
aa(lp403
I199
aI69
aI252
aI255
aI255
aI255
aI255
aa(lp404
I233
aI20
aI0
aI0
aI0
aa(lp405
I139
aI69
aI232
aa(lp406
I193
aI248
aI1
aa(lp407
I137
aI69
aI232
aa(lp408
I233
aI250
aI254
aI255
aI255
aa(lp409
I139
aI69
aI236
aa(lp410
I137
aI69
aI252
aa(lp411
I139
aI69
aI252
aa(lp412
I93
aa(lp413
I195
aasg50
(I4196016
I4196311
tp414
sg52
I1
sg53
g54
sssS'function_calls'
p415
(dp416
sS'binary_filename'
p417
S'pennysllvm'
p418
sS'structures'
p419
(dp420
sS'extern_functions'
p421
(dp422
sS'arch'
p423
S'amd64'
p424
sS'bin_raw_bytes'
p425
g8
s.