(dp0
S'text_addr'
p1
S'0x400650'
p2
sS'functions'
p3
(dp4
S'parse'
p5
(dp6
S'ret_type'
p7
S''
p8
sS'args_type'
p9
(lp10
sS'inst_bytes'
p11
(lp12
(lp13
I85
aa(lp14
I72
aI137
aI229
aa(lp15
I72
aI131
aI236
aI80
aa(lp16
I72
aI137
aI125
aI240
aa(lp17
I199
aI4
aI37
aI144
aI36
aI96
aI0
aa(lp18
I0
aI0
aI0
aI0
aa(lp19
I199
aI4
aI37
aI160
aI60
aI96
aI0
aa(lp20
I0
aI0
aI0
aI0
aa(lp21
I199
aI4
aI37
aI148
aI36
aI96
aI0
aa(lp22
I0
aI0
aI0
aI0
aa(lp23
I72
aI139
aI125
aI240
aa(lp24
I232
aI122
aI251
aI255
aI255
aa(lp25
I72
aI139
aI69
aI240
aa(lp26
I128
aI56
aI0
aa(lp27
I15
aI132
aI212
aI3
aI0
aI0
aa(lp28
I72
aI190
aI48
aI35
aI96
aI0
aI0
aa(lp29
I0
aI0
aI0
aa(lp30
I72
aI141
aI85
aI200
aa(lp31
I72
aI141
aI77
aI240
aa(lp32
I72
aI139
aI125
aI240
aa(lp33
I232
aI82
aI254
aI255
aI255
aa(lp34
I72
aI137
aI69
aI232
aa(lp35
I72
aI131
aI125
aI232
aI0
aa(lp36
I15
aI132
aI20
aI0
aI0
aI0
aa(lp37
I72
aI184
aI96
aI32
aI96
aI0
aI0
aa(lp38
I0
aI0
aI0
aa(lp39
I72
aI57
aI69
aI232
aa(lp40
I15
aI133
aI54
aI0
aI0
aI0
aa(lp41
I72
aI190
aI31
aI18
aI64
aI0
aI0
aa(lp42
I0
aI0
aI0
aa(lp43
I72
aI186
aI51
aI18
aI64
aI0
aI0
aa(lp44
I0
aI0
aI0
aa(lp45
I72
aI139
aI60
aI37
aI128
aI36
aI96
aI0
aa(lp46
I72
aI139
aI77
aI240
aa(lp47
I176
aI0
aa(lp48
I232
aI232
aI249
aI255
aI255
aa(lp49
I199
aI69
aI252
aI0
aI0
aI0
aI0
aa(lp50
I137
aI69
aI196
aa(lp51
I233
aI171
aI3
aI0
aI0
aa(lp52
I72
aI139
aI69
aI232
aa(lp53
I131
aI120
aI12
aI255
aa(lp54
I15
aI133
aI34
aI0
aI0
aI0
aa(lp55
I49
aI192
aa(lp56
I139
aI12
aI37
aI148
aI36
aI96
aI0
aa(lp57
I137
aI194
aa(lp58
I41
aI202
aa(lp59
I137
aI193
aa(lp60
I131
aI233
aI100
aa(lp61
I1
aI202
aa(lp62
I41
aI208
aa(lp63
I137
aI4
aI37
aI148
aI36
aI96
aI0
aa(lp64
I233
aI79
aI255
aI255
aI255
aa(lp65
I72
aI184
aI160
aI36
aI96
aI0
aI0
aa(lp66
I0
aI0
aI0
aa(lp67
I139
aI12
aI37
aI160
aI60
aI96
aI0
aa(lp68
I137
aI202
aa(lp69
I129
aI194
aI94
aI63
aI68
aI136
aa(lp70
I131
aI194
aI1
aa(lp71
I129
aI234
aI94
aI63
aI68
aI136
aa(lp72
I137
aI20
aI37
aI160
aI60
aI96
aI0
aa(lp73
I72
aI99
aI241
aa(lp74
I72
aI107
aI246
aI24
aa(lp75
I72
aI1
aI240
aa(lp76
I72
aI139
aI117
aI200
aa(lp77
I72
aI137
aI48
aa(lp78
I72
aI139
aI117
aI208
aa(lp79
I72
aI137
aI112
aI8
aa(lp80
I72
aI139
aI117
aI216
aa(lp81
I72
aI137
aI112
aI16
aa(lp82
I72
aI139
aI125
aI240
aa(lp83
I232
aI118
aI250
aI255
aI255
aa(lp84
I72
aI190
aI176
aI32
aI96
aI0
aI0
aa(lp85
I0
aI0
aI0
aa(lp86
I72
aI141
aI85
aI200
aa(lp87
I72
aI141
aI77
aI240
aa(lp88
I72
aI139
aI125
aI240
aa(lp89
I232
aI91
aI253
aI255
aI255
aa(lp90
I72
aI137
aI69
aI232
aa(lp91
I72
aI131
aI125
aI232
aI0
aa(lp92
I15
aI133
aI54
aI0
aI0
aI0
aa(lp93
I72
aI190
aI31
aI18
aI64
aI0
aI0
aa(lp94
I0
aI0
aI0
aa(lp95
I72
aI186
aI61
aI18
aI64
aI0
aI0
aa(lp96
I0
aI0
aI0
aa(lp97
I72
aI139
aI60
aI37
aI128
aI36
aI96
aI0
aa(lp98
I72
aI139
aI77
aI240
aa(lp99
I176
aI0
aa(lp100
I232
aI5
aI249
aI255
aI255
aa(lp101
I199
aI69
aI252
aI0
aI0
aI0
aI0
aa(lp102
I137
aI69
aI192
aa(lp103
I233
aI200
aI2
aI0
aI0
aa(lp104
I72
aI139
aI69
aI232
aa(lp105
I139
aI72
aI8
aa(lp106
I137
aI77
aI216
aa(lp107
I72
aI139
aI69
aI232
aa(lp108
I139
aI72
aI12
aa(lp109
I137
aI77
aI212
aa(lp110
I72
aI139
aI69
aI232
aa(lp111
I131
aI120
aI12
aI0
aa(lp112
I15
aI142
aI36
aI0
aI0
aI0
aa(lp113
I72
aI139
aI69
aI232
aa(lp114
I139
aI72
aI12
aa(lp115
I139
aI20
aI37
aI148
aI36
aI96
aI0
aa(lp116
I129
aI193
aI211
aI251
aI107
aI143
aa(lp117
I1
aI209
aa(lp118
I129
aI233
aI211
aI251
aI107
aI143
aa(lp119
I137
aI77
aI212
aa(lp120
I233
aI97
aI0
aI0
aI0
aa(lp121
I72
aI139
aI69
aI232
aa(lp122
I131
aI120
aI12
aI255
aa(lp123
I15
aI133
aI78
aI0
aI0
aI0
aa(lp124
I131
aI60
aI37
aI148
aI36
aI96
aI0
aa(lp125
I100
aa(lp126
I15
aI141
aI54
aI0
aI0
aI0
aa(lp127
I72
aI190
aI31
aI18
aI64
aI0
aI0
aa(lp128
I0
aI0
aI0
aa(lp129
I72
aI186
aI70
aI18
aI64
aI0
aI0
aa(lp130
I0
aI0
aI0
aa(lp131
I72
aI139
aI60
aI37
aI128
aI36
aI96
aI0
aa(lp132
I72
aI139
aI77
aI240
aa(lp133
I176
aI0
aa(lp134
I232
aI109
aI248
aI255
aI255
aa(lp135
I199
aI69
aI252
aI0
aI0
aI0
aI0
aa(lp136
I137
aI69
aI188
aa(lp137
I233
aI48
aI2
aI0
aI0
aa(lp138
I139
aI4
aI37
aI148
aI36
aI96
aI0
aa(lp139
I137
aI69
aI212
aa(lp140
I233
aI0
aI0
aI0
aI0
aa(lp141
I233
aI0
aI0
aI0
aI0
aa(lp142
I131
aI60
aI37
aI144
aI36
aI96
aI0
aI0
aa(lp143
I15
aI132
aI216
aI0
aI0
aI0
aa(lp144
I72
aI184
aI176
aI60
aI96
aI0
aI0
aa(lp145
I0
aI0
aI0
aa(lp146
I72
aI99
aI12
aI37
aI144
aI36
aI96
aI0
aa(lp147
I72
aI107
aI201
aI24
aa(lp148
I72
aI1
aI200
aa(lp149
I72
aI131
aI192
aI232
aa(lp150
I72
aI137
aI69
aI224
aa(lp151
I72
aI139
aI69
aI224
aa(lp152
I139
aI80
aI12
aa(lp153
I59
aI85
aI212
aa(lp154
I15
aI133
aI14
aI0
aI0
aI0
aa(lp155
I72
aI139
aI69
aI224
aa(lp156
I131
aI120
aI16
aI1
aa(lp157
I15
aI132
aI21
aI0
aI0
aI0
aa(lp158
I72
aI139
aI69
aI224
aa(lp159
I139
aI72
aI12
aa(lp160
I59
aI77
aI212
aa(lp161
I15
aI143
aI5
aI0
aI0
aI0
aa(lp162
I233
aI132
aI0
aI0
aI0
aa(lp163
I72
aI184
aI176
aI60
aI96
aI0
aI0
aa(lp164
I0
aI0
aI0
aa(lp165
I49
aI201
aa(lp166
I72
aI186
aI160
aI36
aI96
aI0
aI0
aa(lp167
I0
aI0
aI0
aa(lp168
I139
aI52
aI37
aI160
aI60
aI96
aI0
aa(lp169
I137
aI207
aa(lp170
I41
aI247
aa(lp171
I65
aI137
aI200
aa(lp172
I65
aI131
aI232
aI1
aa(lp173
I68
aI1
aI199
aa(lp174
I65
aI137
aI200
aa(lp175
I65
aI41
aI248
aa(lp176
I68
aI137
aI4
aI37
aI160
aI60
aI96
aI0
aa(lp177
I76
aI99
aI206
aa(lp178
I77
aI107
aI201
aI24
aa(lp179
I76
aI1
aI202
aa(lp180
I139
aI52
aI37
aI144
aI36
aI96
aI0
aa(lp181
I131
aI233
aI255
aa(lp182
I41
aI206
aa(lp183
I137
aI52
aI37
aI144
aI36
aI96
aI0
aa(lp184
I76
aI99
aI206
aa(lp185
I77
aI107
aI201
aI24
aa(lp186
I76
aI1
aI200
aa(lp187
I76
aI139
aI8
aa(lp188
I76
aI137
aI10
aa(lp189
I76
aI139
aI72
aI8
aa(lp190
I76
aI137
aI74
aI8
aa(lp191
I72
aI139
aI64
aI16
aa(lp192
I72
aI137
aI66
aI16
aa(lp193
I72
aI139
aI125
aI240
aa(lp194
I232
aI137
aI248
aI255
aI255
aa(lp195
I233
aI26
aI255
aI255
aI255
aa(lp196
I72
aI139
aI69
aI232
aa(lp197
I131
aI120
aI12
aI255
aa(lp198
I15
aI133
aI32
aI0
aI0
aI0
aa(lp199
I139
aI4
aI37
aI148
aI36
aI96
aI0
aa(lp200
I5
aI236
aI99
aI248
aI169
aa(lp201
I131
aI232
aI100
aa(lp202
I45
aI236
aI99
aI248
aI169
aa(lp203
I137
aI4
aI37
aI148
aI36
aI96
aI0
aa(lp204
I233
aI224
aI253
aI255
aI255
aa(lp205
I72
aI139
aI69
aI232
aa(lp206
I131
aI120
aI12
aI0
aa(lp207
I15
aI133
aI89
aI0
aI0
aI0
aa(lp208
I72
aI139
aI125
aI240
aa(lp209
I232
aI63
aI248
aI255
aI255
aa(lp210
I131
aI60
aI37
aI148
aI36
aI96
aI0
aI0
aa(lp211
I15
aI132
aI54
aI0
aI0
aI0
aa(lp212
I72
aI190
aI31
aI18
aI64
aI0
aI0
aa(lp213
I0
aI0
aI0
aa(lp214
I72
aI186
aI82
aI18
aI64
aI0
aI0
aa(lp215
I0
aI0
aI0
aa(lp216
I72
aI139
aI60
aI37
aI128
aI36
aI96
aI0
aa(lp217
I72
aI139
aI77
aI240
aa(lp218
I176
aI0
aa(lp219
I232
aI234
aI246
aI255
aI255
aa(lp220
I199
aI69
aI252
aI0
aI0
aI0
aI0
aa(lp221
I137
aI69
aI184
aa(lp222
I233
aI173
aI0
aI0
aI0
aa(lp223
I199
aI69
aI252
aI1
aI0
aI0
aI0
aa(lp224
I233
aI161
aI0
aI0
aI0
aa(lp225
I72
aI184
aI176
aI60
aI96
aI0
aI0
aa(lp226
I0
aI0
aI0
aa(lp227
I49
aI201
aa(lp228
I139
aI20
aI37
aI144
aI36
aI96
aI0
aa(lp229
I137
aI206
aa(lp230
I41
aI214
aa(lp231
I137
aI207
aa(lp232
I131
aI239
aI1
aa(lp233
I1
aI254
aa(lp234
I41
aI241
aa(lp235
I137
aI12
aI37
aI144
aI36
aI96
aI0
aa(lp236
I76
aI99
aI194
aa(lp237
I77
aI107
aI192
aI24
aa(lp238
I76
aI1
aI192
aa(lp239
I76
aI139
aI69
aI200
aa(lp240
I76
aI137
aI0
aa(lp241
I76
aI139
aI69
aI208
aa(lp242
I76
aI137
aI64
aI8
aa(lp243
I76
aI139
aI69
aI216
aa(lp244
I76
aI137
aI64
aI16
aa(lp245
I72
aI139
aI125
aI240
aa(lp246
I232
aI158
aI247
aI255
aI255
aa(lp247
I233
aI31
aI252
aI255
aI255
aa(lp248
I72
aI139
aI69
aI232
aa(lp249
I131
aI120
aI12
aI0
aa(lp250
I15
aI142
aI54
aI0
aI0
aI0
aa(lp251
I72
aI190
aI31
aI18
aI64
aI0
aI0
aa(lp252
I0
aI0
aI0
aa(lp253
I72
aI186
aI94
aI18
aI64
aI0
aI0
aa(lp254
I0
aI0
aI0
aa(lp255
I72
aI139
aI60
aI37
aI128
aI36
aI96
aI0
aa(lp256
I72
aI139
aI77
aI240
aa(lp257
I176
aI0
aa(lp258
I232
aI68
aI246
aI255
aI255
aa(lp259
I199
aI69
aI252
aI0
aI0
aI0
aI0
aa(lp260
I137
aI69
aI180
aa(lp261
I233
aI7
aI0
aI0
aI0
aa(lp262
I199
aI69
aI252
aI1
aI0
aI0
aI0
aa(lp263
I139
aI69
aI252
aa(lp264
I72
aI131
aI196
aI80
aa(lp265
I93
aa(lp266
I195
aasS'boundaries'
p267
(I4197264
I4198395
tp268
sS'num_args'
p269
I1
sS'inst_strings'
p270
(lp271
ssS'init'
p272
(dp273
g7
g8
sg9
(lp274
sg11
(lp275
(lp276
I85
aa(lp277
I72
aI137
aI229
aa(lp278
I72
aI131
aI236
aI32
aa(lp279
I72
aI184
aI176
aI32
aI96
aI0
aI0
aa(lp280
I0
aI0
aI0
aa(lp281
I199
aI69
aI248
aI0
aI0
aI0
aI0
aa(lp282
I72
aI137
aI69
aI240
aa(lp283
I72
aI139
aI69
aI240
aa(lp284
I72
aI99
aI77
aI248
aa(lp285
I72
aI107
aI201
aI80
aa(lp286
I72
aI1
aI200
aa(lp287
I72
aI131
aI56
aI0
aa(lp288
I15
aI132
aI150
aI0
aI0
aI0
aa(lp289
I186
aI5
aI0
aI0
aI0
aa(lp290
I72
aI139
aI69
aI240
aa(lp291
I72
aI99
aI77
aI248
aa(lp292
I72
aI107
aI201
aI80
aa(lp293
I72
aI1
aI200
aa(lp294
I72
aI131
aI192
aI16
aa(lp295
I72
aI139
aI77
aI240
aa(lp296
I72
aI99
aI117
aI248
aa(lp297
I72
aI107
aI246
aI80
aa(lp298
I72
aI1
aI241
aa(lp299
I72
aI139
aI49
aa(lp300
I72
aI137
aI199
aa(lp301
I232
aI8
aI253
aI255
aI255
aa(lp302
I131
aI248
aI0
aa(lp303
I15
aI132
aI68
aI0
aI0
aI0
aa(lp304
I72
aI190
aI31
aI18
aI64
aI0
aI0
aa(lp305
I0
aI0
aI0
aa(lp306
I72
aI186
aI46
aI18
aI64
aI0
aI0
aa(lp307
I0
aI0
aI0
aa(lp308
I72
aI139
aI60
aI37
aI128
aI36
aI96
aI0
aa(lp309
I72
aI139
aI69
aI240
aa(lp310
I72
aI99
aI77
aI248
aa(lp311
I72
aI107
aI201
aI80
aa(lp312
I72
aI1
aI200
aa(lp313
I72
aI139
aI8
aa(lp314
I176
aI0
aa(lp315
I232
aI234
aI252
aI255
aI255
aa(lp316
I199
aI69
aI252
aI0
aI0
aI0
aI0
aa(lp317
I137
aI69
aI236
aa(lp318
I233
aI234
aI0
aI0
aI0
aa(lp319
I233
aI0
aI0
aI0
aI0
aa(lp320
I49
aI192
aa(lp321
I139
aI77
aI248
aa(lp322
I131
aI232
aI1
aa(lp323
I41
aI193
aa(lp324
I137
aI77
aI248
aa(lp325
I233
aI81
aI255
aI255
aI255
aa(lp326
I72
aI184
aI48
aI35
aI96
aI0
aI0
aa(lp327
I0
aI0
aI0
aa(lp328
I199
aI69
aI248
aI0
aI0
aI0
aI0
aa(lp329
I72
aI137
aI69
aI240
aa(lp330
I72
aI139
aI69
aI240
aa(lp331
I72
aI99
aI77
aI248
aa(lp332
I72
aI107
aI201
aI80
aa(lp333
I72
aI1
aI200
aa(lp334
I72
aI131
aI56
aI0
aa(lp335
I15
aI132
aI158
aI0
aI0
aI0
aa(lp336
I186
aI5
aI0
aI0
aI0
aa(lp337
I72
aI139
aI69
aI240
aa(lp338
I72
aI99
aI77
aI248
aa(lp339
I72
aI107
aI201
aI80
aa(lp340
I72
aI1
aI200
aa(lp341
I72
aI131
aI192
aI16
aa(lp342
I72
aI139
aI77
aI240
aa(lp343
I72
aI99
aI117
aI248
aa(lp344
I72
aI107
aI246
aI80
aa(lp345
I72
aI1
aI241
aa(lp346
I72
aI139
aI49
aa(lp347
I72
aI137
aI199
aa(lp348
I232
aI68
aI252
aI255
aI255
aa(lp349
I131
aI248
aI0
aa(lp350
I15
aI132
aI68
aI0
aI0
aI0
aa(lp351
I72
aI190
aI31
aI18
aI64
aI0
aI0
aa(lp352
I0
aI0
aI0
aa(lp353
I72
aI186
aI46
aI18
aI64
aI0
aI0
aa(lp354
I0
aI0
aI0
aa(lp355
I72
aI139
aI60
aI37
aI128
aI36
aI96
aI0
aa(lp356
I72
aI139
aI69
aI240
aa(lp357
I72
aI99
aI77
aI248
aa(lp358
I72
aI107
aI201
aI80
aa(lp359
I72
aI1
aI200
aa(lp360
I72
aI139
aI8
aa(lp361
I176
aI0
aa(lp362
I232
aI38
aI252
aI255
aI255
aa(lp363
I199
aI69
aI252
aI0
aI0
aI0
aI0
aa(lp364
I137
aI69
aI232
aa(lp365
I233
aI38
aI0
aI0
aI0
aa(lp366
I233
aI0
aI0
aI0
aI0
aa(lp367
I49
aI192
aa(lp368
I139
aI77
aI248
aa(lp369
I137
aI194
aa(lp370
I41
aI202
aa(lp371
I137
aI193
aa(lp372
I131
aI233
aI1
aa(lp373
I1
aI202
aa(lp374
I41
aI208
aa(lp375
I137
aI69
aI248
aa(lp376
I233
aI73
aI255
aI255
aI255
aa(lp377
I199
aI69
aI252
aI1
aI0
aI0
aI0
aa(lp378
I139
aI69
aI252
aa(lp379
I72
aI131
aI196
aI32
aa(lp380
I93
aa(lp381
I195
aasg267
(I4196496
I4196920
tp382
sg269
I0
sg270
g271
ssS'main'
p383
(dp384
g7
g8
sg9
(lp385
sg11
(lp386
(lp387
I85
aa(lp388
I72
aI137
aI229
aa(lp389
I72
aI131
aI236
aI112
aa(lp390
I72
aI184
aI48
aI19
aI64
aI0
aI0
aa(lp391
I0
aI0
aI0
aa(lp392
I185
aI64
aI0
aI0
aI0
aa(lp393
I137
aI202
aa(lp394
I72
aI141
aI117
aI176
aa(lp395
I199
aI69
aI252
aI0
aI0
aI0
aI0
aa(lp396
I72
aI137
aI247
aa(lp397
I72
aI137
aI198
aa(lp398
I232
aI1
aI246
aI255
aI255
aa(lp399
I232
aI92
aI248
aI255
aI255
aa(lp400
I131
aI248
aI0
aa(lp401
I15
aI133
aI12
aI0
aI0
aI0
aa(lp402
I199
aI69
aI252
aI1
aI0
aI0
aI0
aa(lp403
I233
aI174
aI0
aI0
aI0
aa(lp404
I199
aI69
aI248
aI0
aI0
aI0
aI0
aa(lp405
I72
aI99
aI69
aI248
aa(lp406
I72
aI131
aI124
aI197
aI176
aI0
aa(lp407
I15
aI132
aI144
aI0
aI0
aI0
aa(lp408
I72
aI191
aI239
aI18
aI64
aI0
aI0
aa(lp409
I0
aI0
aI0
aa(lp410
I72
aI99
aI69
aI248
aa(lp411
I72
aI139
aI116
aI197
aI176
aa(lp412
I176
aI0
aa(lp413
I232
aI118
aI245
aI255
aI255
aa(lp414
I137
aI69
aI172
aa(lp415
I232
aI142
aI245
aI255
aI255
aa(lp416
I72
aI99
aI117
aI248
aa(lp417
I72
aI139
aI116
aI245
aI176
aa(lp418
I72
aI99
aI125
aI248
aa(lp419
I72
aI139
aI124
aI253
aI176
aa(lp420
I137
aI69
aI168
aa(lp421
I72
aI137
aI117
aI160
aa(lp422
I232
aI240
aI250
aI255
aI255
aa(lp423
I72
aI191
aI14
aI19
aI64
aI0
aI0
aa(lp424
I0
aI0
aI0
aa(lp425
I72
aI190
aI35
aI19
aI64
aI0
aI0
aa(lp426
I0
aI0
aI0
aa(lp427
I72
aI185
aI32
aI19
aI64
aI0
aI0
aa(lp428
I0
aI0
aI0
aa(lp429
I131
aI248
aI0
aa(lp430
I72
aI15
aI69
aI241
aa(lp431
I72
aI139
aI77
aI160
aa(lp432
I72
aI137
aI117
aI152
aa(lp433
I72
aI137
aI206
aa(lp434
I72
aI139
aI85
aI152
aa(lp435
I176
aI0
aa(lp436
I232
aI21
aI245
aI255
aI255
aa(lp437
I137
aI69
aI148
aa(lp438
I49
aI192
aa(lp439
I139
aI77
aI248
aa(lp440
I131
aI232
aI1
aa(lp441
I41
aI193
aa(lp442
I137
aI77
aI248
aa(lp443
I233
aI96
aI255
aI255
aI255
aa(lp444
I199
aI69
aI252
aI0
aI0
aI0
aI0
aa(lp445
I139
aI69
aI252
aa(lp446
I72
aI131
aI196
aI112
aa(lp447
I93
aa(lp448
I195
aasg267
(I4198400
I4198656
tp449
sg269
I0
sg270
g271
ssS'display'
p450
(dp451
g7
g8
sg9
(lp452
sg11
(lp453
(lp454
I85
aa(lp455
I72
aI137
aI229
aa(lp456
I72
aI131
aI236
aI48
aa(lp457
I72
aI184
aI228
aI17
aI64
aI0
aI0
aa(lp458
I0
aI0
aI0
aa(lp459
I72
aI137
aI125
aI248
aa(lp460
I72
aI139
aI117
aI248
aa(lp461
I72
aI137
aI199
aa(lp462
I176
aI0
aa(lp463
I232
aI140
aI254
aI255
aI255
aa(lp464
I72
aI191
aI247
aI17
aI64
aI0
aI0
aa(lp465
I0
aI0
aI0
aa(lp466
I137
aI69
aI240
aa(lp467
I176
aI0
aa(lp468
I232
aI120
aI254
aI255
aI255
aa(lp469
I199
aI69
aI244
aI0
aI0
aI0
aI0
aa(lp470
I137
aI69
aI236
aa(lp471
I139
aI69
aI244
aa(lp472
I59
aI4
aI37
aI144
aI36
aI96
aI0
aa(lp473
I15
aI141
aI87
aI0
aI0
aI0
aa(lp474
I72
aI191
aI0
aI18
aI64
aI0
aI0
aa(lp475
I0
aI0
aI0
aa(lp476
I72
aI184
aI176
aI60
aI96
aI0
aI0
aa(lp477
I0
aI0
aI0
aa(lp478
I72
aI99
aI77
aI244
aa(lp479
I72
aI107
aI201
aI24
aa(lp480
I72
aI137
aI194
aa(lp481
I72
aI1
aI202
aa(lp482
I139
aI114
aI8
aa(lp483
I72
aI99
aI77
aI244
aa(lp484
I72
aI107
aI201
aI24
aa(lp485
I72
aI1
aI200
aa(lp486
I72
aI139
aI16
aa(lp487
I176
aI0
aa(lp488
I232
aI36
aI254
aI255
aI255
aa(lp489
I137
aI69
aI232
aa(lp490
I49
aI192
aa(lp491
I139
aI77
aI244
aa(lp492
I137
aI194
aa(lp493
I41
aI202
aa(lp494
I137
aI193
aa(lp495
I131
aI233
aI1
aa(lp496
I1
aI202
aa(lp497
I41
aI208
aa(lp498
I137
aI69
aI244
aa(lp499
I233
aI153
aI255
aI255
aI255
aa(lp500
I72
aI191
aI6
aI18
aI64
aI0
aI0
aa(lp501
I0
aI0
aI0
aa(lp502
I176
aI0
aa(lp503
I232
aI246
aI253
aI255
aI255
aa(lp504
I199
aI69
aI244
aI0
aI0
aI0
aI0
aa(lp505
I137
aI69
aI228
aa(lp506
I139
aI69
aI244
aa(lp507
I59
aI4
aI37
aI160
aI60
aI96
aI0
aa(lp508
I15
aI141
aI79
aI0
aI0
aI0
aa(lp509
I72
aI191
aI0
aI18
aI64
aI0
aI0
aa(lp510
I0
aI0
aI0
aa(lp511
I72
aI184
aI160
aI36
aI96
aI0
aI0
aa(lp512
I0
aI0
aI0
aa(lp513
I72
aI99
aI77
aI244
aa(lp514
I72
aI107
aI201
aI24
aa(lp515
I72
aI137
aI194
aa(lp516
I72
aI1
aI202
aa(lp517
I139
aI114
aI8
aa(lp518
I72
aI99
aI77
aI244
aa(lp519
I72
aI107
aI201
aI24
aa(lp520
I72
aI1
aI200
aa(lp521
I72
aI139
aI16
aa(lp522
I176
aI0
aa(lp523
I232
aI162
aI253
aI255
aI255
aa(lp524
I137
aI69
aI224
aa(lp525
I49
aI192
aa(lp526
I139
aI77
aI244
aa(lp527
I131
aI232
aI1
aa(lp528
I41
aI193
aa(lp529
I137
aI77
aI244
aa(lp530
I233
aI161
aI255
aI255
aI255
aa(lp531
I72
aI191
aI15
aI18
aI64
aI0
aI0
aa(lp532
I0
aI0
aI0
aa(lp533
I232
aI110
aI253
aI255
aI255
aa(lp534
I137
aI69
aI220
aa(lp535
I232
aI150
aI253
aI255
aI255
aa(lp536
I137
aI69
aI216
aa(lp537
I72
aI131
aI196
aI48
aa(lp538
I93
aa(lp539
I195
aasg267
(I4196160
I4196483
tp540
sg269
I1
sg270
g271
ssS'match'
p541
(dp542
g7
g8
sg9
(lp543
sg11
(lp544
(lp545
I85
aa(lp546
I72
aI137
aI229
aa(lp547
I72
aI131
aI236
aI64
aa(lp548
I72
aI137
aI125
aI240
aa(lp549
I72
aI137
aI117
aI232
aa(lp550
I72
aI137
aI85
aI224
aa(lp551
I72
aI137
aI77
aI216
aa(lp552
I72
aI139
aI69
aI240
aa(lp553
I15
aI190
aI8
aa(lp554
I131
aI249
aI32
aa(lp555
I15
aI133
aI17
aI0
aI0
aI0
aa(lp556
I72
aI139
aI69
aI240
aa(lp557
I72
aI131
aI192
aI1
aa(lp558
I72
aI137
aI69
aI240
aa(lp559
I233
aI223
aI255
aI255
aI255
aa(lp560
I72
aI139
aI69
aI240
aa(lp561
I72
aI139
aI77
aI216
aa(lp562
I72
aI137
aI1
aa(lp563
I72
aI139
aI69
aI240
aa(lp564
I128
aI56
aI0
aa(lp565
I15
aI133
aI19
aI0
aI0
aI0
aa(lp566
I72
aI184
aI96
aI32
aI96
aI0
aI0
aa(lp567
I0
aI0
aI0
aa(lp568
I72
aI137
aI69
aI248
aa(lp569
I233
aI213
aI0
aI0
aI0
aa(lp570
I199
aI69
aI212
aI0
aI0
aI0
aI0
aa(lp571
I72
aI139
aI69
aI232
aa(lp572
I72
aI99
aI77
aI212
aa(lp573
I72
aI107
aI201
aI80
aa(lp574
I72
aI1
aI200
aa(lp575
I72
aI131
aI56
aI0
aa(lp576
I15
aI132
aI173
aI0
aI0
aI0
aa(lp577
I184
aI1
aI0
aI0
aI0
aa(lp578
I137
aI194
aa(lp579
I72
aI141
aI77
aI200
aa(lp580
I65
aI184
aI2
aI0
aI0
aI0
aa(lp581
I72
aI139
aI117
aI232
aa(lp582
I72
aI99
aI125
aI212
aa(lp583
I72
aI107
aI255
aI80
aa(lp584
I72
aI1
aI254
aa(lp585
I72
aI131
aI198
aI16
aa(lp586
I72
aI139
aI125
aI240
aa(lp587
I72
aI137
aI125
aI192
aa(lp588
I72
aI137
aI247
aa(lp589
I72
aI139
aI117
aI192
aa(lp590
I232
aI68
aI251
aI255
aI255
aa(lp591
I131
aI248
aI0
aa(lp592
I15
aI132
aI5
aI0
aI0
aI0
aa(lp593
I233
aI79
aI0
aI0
aI0
aa(lp594
I72
aI139
aI69
aI240
aa(lp595
I72
aI139
aI77
aI224
aa(lp596
I72
aI137
aI1
aa(lp597
I72
aI139
aI69
aI240
aa(lp598
I139
aI85
aI204
aa(lp599
I139
aI117
aI200
aa(lp600
I129
aI194
aI56
aI51
aI150
aI149
aa(lp601
I41
aI242
aa(lp602
I129
aI234
aI56
aI51
aI150
aI149
aa(lp603
I72
aI139
aI77
aI224
aa(lp604
I137
aI81
aI8
aa(lp605
I72
aI99
aI202
aa(lp606
I72
aI1
aI200
aa(lp607
I72
aI139
aI77
aI216
aa(lp608
I72
aI137
aI1
aa(lp609
I72
aI139
aI69
aI232
aa(lp610
I72
aI99
aI77
aI212
aa(lp611
I72
aI107
aI201
aI80
aa(lp612
I72
aI1
aI200
aa(lp613
I72
aI137
aI69
aI248
aa(lp614
I233
aI32
aI0
aI0
aI0
aa(lp615
I139
aI69
aI212
aa(lp616
I5
aI107
aI20
aI99
aI1
aa(lp617
I131
aI192
aI1
aa(lp618
I45
aI107
aI20
aI99
aI1
aa(lp619
I137
aI69
aI212
aa(lp620
I233
aI58
aI255
aI255
aI255
aa(lp621
I72
aI199
aI69
aI248
aI0
aI0
aI0
aI0
aa(lp622
I72
aI139
aI69
aI248
aa(lp623
I72
aI131
aI196
aI64
aa(lp624
I93
aa(lp625
I195
aasg267
(I4196928
I4197251
tp626
sg269
I4
sg270
g271
sssS'function_calls'
p627
(dp628
sS'binary_filename'
p629
S'shunting_yardllvm'
p630
sS'structures'
p631
(dp632
sS'extern_functions'
p633
(dp634
sS'arch'
p635
S'amd64'
p636
sS'bin_raw_bytes'
p637
g8
s.