(dp0
S'text_addr'
p1
S'0x400450'
p2
sS'functions'
p3
(dp4
S'main'
p5
(dp6
S'ret_type'
p7
S''
p8
sS'args_type'
p9
(lp10
sS'inst_bytes'
p11
(lp12
(lp13
I85
aa(lp14
I72
aI137
aI229
aa(lp15
I72
aI131
aI236
aI32
aa(lp16
I199
aI69
aI252
aI0
aI0
aI0
aI0
aa(lp17
I137
aI125
aI248
aa(lp18
I72
aI137
aI117
aI240
aa(lp19
I131
aI125
aI248
aI1
aa(lp20
I15
aI142
aI28
aI0
aI0
aI0
aa(lp21
I72
aI139
aI69
aI240
aa(lp22
I72
aI139
aI120
aI8
aa(lp23
I232
aI195
aI253
aI255
aI255
aa(lp24
I242
aI15
aI17
aI69
aI232
aa(lp25
I242
aI15
aI16
aI69
aI232
aa(lp26
I232
aI52
aI255
aI255
aI255
aa(lp27
I49
aI192
aa(lp28
I72
aI131
aI196
aI32
aa(lp29
I93
aa(lp30
I195
aasS'boundaries'
p31
(I4195904
I4195972
tp32
sS'num_args'
p33
I2
sS'inst_strings'
p34
(lp35
ssS'convertKelvin'
p36
(dp37
g7
g8
sg9
(lp38
sg11
(lp39
(lp40
I85
aa(lp41
I72
aI137
aI229
aa(lp42
I72
aI131
aI236
aI32
aa(lp43
I72
aI191
aI48
aI7
aI64
aI0
aI0
aa(lp44
I0
aI0
aI0
aa(lp45
I242
aI15
aI17
aI69
aI248
aa(lp46
I242
aI15
aI16
aI69
aI248
aa(lp47
I176
aI1
aa(lp48
I232
aI109
aI254
aI255
aI255
aa(lp49
I242
aI15
aI16
aI69
aI248
aa(lp50
I137
aI69
aI244
aa(lp51
I232
aI96
aI255
aI255
aI255
aa(lp52
I72
aI191
aI56
aI7
aI64
aI0
aI0
aa(lp53
I0
aI0
aI0
aa(lp54
I176
aI1
aa(lp55
I232
aI79
aI254
aI255
aI255
aa(lp56
I242
aI15
aI16
aI69
aI248
aa(lp57
I137
aI69
aI240
aa(lp58
I232
aI98
aI255
aI255
aI255
aa(lp59
I72
aI191
aI64
aI7
aI64
aI0
aI0
aa(lp60
I0
aI0
aI0
aa(lp61
I176
aI1
aa(lp62
I232
aI49
aI254
aI255
aI255
aa(lp63
I242
aI15
aI16
aI69
aI248
aa(lp64
I137
aI69
aI236
aa(lp65
I232
aI116
aI255
aI255
aI255
aa(lp66
I72
aI191
aI72
aI7
aI64
aI0
aI0
aa(lp67
I0
aI0
aI0
aa(lp68
I176
aI1
aa(lp69
I232
aI19
aI254
aI255
aI255
aa(lp70
I137
aI69
aI232
aa(lp71
I72
aI131
aI196
aI32
aa(lp72
I93
aa(lp73
I195
aasg31
(I4195760
I4195894
tp74
sg33
I1
sg34
g35
ssS'kelvinToRankine'
p75
(dp76
g7
g8
sg9
(lp77
sg11
(lp78
(lp79
I85
aa(lp80
I72
aI137
aI229
aa(lp81
I242
aI15
aI16
aI13
aI140
aI1
aI0
aI0
aa(lp82
I242
aI15
aI17
aI69
aI248
aa(lp83
I242
aI15
aI89
aI77
aI248
aa(lp84
I15
aI40
aI193
aa(lp85
I93
aa(lp86
I195
aasg31
(I4195728
I4195755
tp87
sg33
I1
sg34
g35
ssS'kelvinToFahrenheit'
p88
(dp89
g7
g8
sg9
(lp90
sg11
(lp91
(lp92
I85
aa(lp93
I72
aI137
aI229
aa(lp94
I242
aI15
aI16
aI13
aI180
aI1
aI0
aI0
aa(lp95
I242
aI15
aI16
aI21
aI180
aI1
aI0
aI0
aa(lp96
I242
aI15
aI17
aI69
aI248
aa(lp97
I242
aI15
aI89
aI85
aI248
aa(lp98
I242
aI15
aI92
aI209
aa(lp99
I15
aI40
aI194
aa(lp100
I93
aa(lp101
I195
aasg31
(I4195680
I4195719
tp102
sg33
I1
sg34
g35
ssS'kelvinToCelsius'
p103
(dp104
g7
g8
sg9
(lp105
sg11
(lp106
(lp107
I85
aa(lp108
I72
aI137
aI229
aa(lp109
I242
aI15
aI16
aI13
aI204
aI1
aI0
aI0
aa(lp110
I242
aI15
aI17
aI69
aI248
aa(lp111
I242
aI15
aI16
aI69
aI248
aa(lp112
I242
aI15
aI92
aI193
aa(lp113
I93
aa(lp114
I195
aasg31
(I4195648
I4195676
tp115
sg33
I1
sg34
g35
sssS'function_calls'
p116
(dp117
sS'binary_filename'
p118
S'templlvm'
p119
sS'structures'
p120
(dp121
sS'extern_functions'
p122
(dp123
sS'arch'
p124
S'amd64'
p125
sS'bin_raw_bytes'
p126
g8
s.