(dp0
S'text_addr'
p1
S'0x400450'
p2
sS'functions'
p3
(dp4
S'unbiased'
p5
(dp6
S'ret_type'
p7
S''
p8
sS'args_type'
p9
(lp10
sS'inst_bytes'
p11
(lp12
(lp13
I85
aa(lp14
I72
aI137
aI229
aa(lp15
I72
aI131
aI236
aI16
aa(lp16
I137
aI125
aI252
aa(lp17
I139
aI125
aI252
aa(lp18
I232
aI125
aI255
aI255
aI255
aa(lp19
I137
aI69
aI248
aa(lp20
I139
aI125
aI252
aa(lp21
I137
aI69
aI244
aa(lp22
I232
aI111
aI255
aI255
aI255
aa(lp23
I139
aI125
aI244
aa(lp24
I57
aI199
aa(lp25
I15
aI133
aI5
aI0
aI0
aI0
aa(lp26
I233
aI218
aI255
aI255
aI255
aa(lp27
I139
aI69
aI248
aa(lp28
I72
aI131
aI196
aI16
aa(lp29
I93
aa(lp30
I195
aasS'boundaries'
p31
(I4195760
I4195818
tp32
sS'num_args'
p33
I1
sS'inst_strings'
p34
(lp35
ssS'biased'
p36
(dp37
g7
g8
sg9
(lp38
sg11
(lp39
(lp40
I85
aa(lp41
I72
aI137
aI229
aa(lp42
I72
aI131
aI236
aI32
aa(lp43
I184
aI171
aI27
aI214
aI222
aa(lp44
I185
aI255
aI255
aI255
aI127
aa(lp45
I137
aI125
aI252
aa(lp46
I137
aI69
aI240
aa(lp47
I137
aI200
aa(lp48
I153
aa(lp49
I247
aI125
aI252
aa(lp50
I139
aI77
aI240
aa(lp51
I129
aI193
aI255
aI255
aI255
aI127
aa(lp52
I41
aI209
aa(lp53
I129
aI233
aI171
aI27
aI214
aI222
aa(lp54
I137
aI77
aI244
aa(lp55
I232
aI201
aI254
aI255
aI255
aa(lp56
I137
aI69
aI248
aa(lp57
I59
aI69
aI244
aa(lp58
I15
aI142
aI5
aI0
aI0
aI0
aa(lp59
I233
aI234
aI255
aI255
aI255
aa(lp60
I139
aI69
aI248
aa(lp61
I139
aI77
aI244
aa(lp62
I137
aI69
aI236
aa(lp63
I137
aI200
aa(lp64
I153
aa(lp65
I247
aI125
aI252
aa(lp66
I139
aI77
aI236
aa(lp67
I57
aI193
aa(lp68
I64
aI15
aI156
aI198
aa(lp69
I64
aI128
aI230
aI1
aa(lp70
I64
aI15
aI182
aI198
aa(lp71
I72
aI131
aI196
aI32
aa(lp72
I93
aa(lp73
I195
aasg31
(I4195648
I4195758
tp74
sg33
I1
sg34
g35
ssS'main'
p75
(dp76
g7
g8
sg9
(lp77
sg11
(lp78
(lp79
I85
aa(lp80
I72
aI137
aI229
aa(lp81
I72
aI131
aI236
aI48
aa(lp82
I199
aI69
aI252
aI0
aI0
aI0
aI0
aa(lp83
I199
aI69
aI244
aI16
aI39
aI0
aI0
aa(lp84
I199
aI69
aI248
aI3
aI0
aI0
aI0
aa(lp85
I131
aI125
aI248
aI6
aa(lp86
I15
aI143
aI200
aI0
aI0
aI0
aa(lp87
I199
aI69
aI236
aI0
aI0
aI0
aI0
aa(lp88
I199
aI69
aI240
aI0
aI0
aI0
aI0
aa(lp89
I199
aI69
aI232
aI0
aI0
aI0
aI0
aa(lp90
I139
aI69
aI232
aa(lp91
I59
aI69
aI244
aa(lp92
I15
aI141
aI58
aI0
aI0
aI0
aa(lp93
I139
aI125
aI248
aa(lp94
I232
aI0
aI255
aI255
aI255
aa(lp95
I49
aI255
aa(lp96
I139
aI77
aI240
aa(lp97
I41
aI199
aa(lp98
I41
aI249
aa(lp99
I137
aI77
aI240
aa(lp100
I139
aI125
aI248
aa(lp101
I232
aI92
aI255
aI255
aI255
aa(lp102
I49
aI201
aa(lp103
I139
aI125
aI236
aa(lp104
I41
aI193
aa(lp105
I41
aI207
aa(lp106
I137
aI125
aI236
aa(lp107
I49
aI192
aa(lp108
I139
aI77
aI232
aa(lp109
I131
aI232
aI1
aa(lp110
I41
aI193
aa(lp111
I137
aI77
aI232
aa(lp112
I233
aI186
aI255
aI255
aI255
aa(lp113
I72
aI191
aI128
aI7
aI64
aI0
aI0
aa(lp114
I0
aI0
aI0
aa(lp115
I242
aI15
aI16
aI5
aI244
aI0
aI0
aI0
aa(lp116
I139
aI117
aI248
aa(lp117
I242
aI15
aI42
aI77
aI240
aa(lp118
I15
aI40
aI208
aa(lp119
I242
aI15
aI89
aI209
aa(lp120
I242
aI15
aI42
aI77
aI244
aa(lp121
I242
aI15
aI94
aI209
aa(lp122
I242
aI15
aI42
aI77
aI236
aa(lp123
I242
aI15
aI89
aI193
aa(lp124
I242
aI15
aI42
aI77
aI244
aa(lp125
I242
aI15
aI94
aI193
aa(lp126
I242
aI15
aI17
aI69
aI224
aa(lp127
I15
aI40
aI194
aa(lp128
I242
aI15
aI16
aI77
aI224
aa(lp129
I176
aI2
aa(lp130
I232
aI110
aI253
aI255
aI255
aa(lp131
I137
aI69
aI220
aa(lp132
I49
aI192
aa(lp133
I139
aI77
aI248
aa(lp134
I137
aI194
aa(lp135
I41
aI202
aa(lp136
I137
aI193
aa(lp137
I131
aI233
aI1
aa(lp138
I1
aI202
aa(lp139
I41
aI208
aa(lp140
I137
aI69
aI248
aa(lp141
I233
aI46
aI255
aI255
aI255
aa(lp142
I49
aI192
aa(lp143
I72
aI131
aI196
aI48
aa(lp144
I93
aa(lp145
I195
aasg31
(I4195824
I4196071
tp146
sg33
I0
sg34
g35
sssS'function_calls'
p147
(dp148
sS'binary_filename'
p149
S'unbiasllvm'
p150
sS'structures'
p151
(dp152
sS'extern_functions'
p153
(dp154
sS'arch'
p155
S'amd64'
p156
sS'bin_raw_bytes'
p157
g8
s.