(dp0
S'text_addr'
p1
S'0x1110'
p2
sS'functions'
p3
(dp4
S'warnx'
p5
(dp6
S'ret_type'
p7
S''
p8
sS'args_type'
p9
(lp10
sS'inst_bytes'
p11
(lp12
sS'boundaries'
p13
(tsS'num_args'
p14
I0
sS'inst_strings'
p15
(lp16
ssS'setlocale'
p17
(dp18
g7
g8
sg9
(lp19
sg11
(lp20
sg13
(tsg14
I0
sg15
g16
ssS'printf'
p21
(dp22
g7
g8
sg9
(lp23
sg11
(lp24
sg13
(tsg14
I1
sg15
g16
ssS'fclose'
p25
(dp26
g7
g8
sg9
(lp27
sg11
(lp28
sg13
(tsg14
I0
sg15
g16
ssS'atexit'
p29
(dp30
g7
g8
sg9
(lp31
sg11
(lp32
(lp33
I72
aI139
aI21
aI81
aI20
aI32
aI0
aa(lp34
I49
aI246
aa(lp35
I233
aI2
aI245
aI255
aI255
aasg13
(tsg14
I0
sg15
g16
ssS'fprintf'
p36
(dp37
g7
g8
sg9
(lp38
sg11
(lp39
sg13
(tsg14
I2
sg15
g16
ssS'close_stdout_atexit'
p40
(dp41
g7
g8
sg9
(lp42
sg11
(lp43
sg13
(tsg14
I0
sg15
g16
ssS'getwc'
p44
(dp45
g7
g8
sg9
(lp46
sg11
(lp47
sg13
(tsg14
I0
sg15
g16
ssS'close'
p48
(dp49
g7
g8
sg9
(lp50
sg11
(lp51
sg13
(tsg14
I0
sg15
g16
ssS'bindtextdomain'
p52
(dp53
g7
g8
sg9
(lp54
sg11
(lp55
sg13
(tsg14
I0
sg15
g16
ssS'trim_trailing_spaces'
p56
(dp57
g7
g8
sg9
(lp58
sg11
(lp59
(lp60
I85
aa(lp61
I83
aa(lp62
I72
aI137
aI253
aa(lp63
I72
aI131
aI236
aI8
aa(lp64
I232
aI226
aI246
aI255
aI255
aa(lp65
I72
aI133
aI192
aa(lp66
I116
aI20
aa(lp67
I72
aI141
aI92
aI133
aI252
aa(lp68
I72
aI57
aI221
aa(lp69
I118
aI28
aa(lp70
I15
aI31
aI0
aa(lp71
I199
aI67
aI4
aI0
aI0
aI0
aI0
aa(lp72
I72
aI131
aI196
aI8
aa(lp73
I91
aa(lp74
I93
aa(lp75
I195
aasg13
(I6288
I6358
tp76
sg14
I1
sg15
g16
ssS'feof'
p77
(dp78
g7
g8
sg9
(lp79
sg11
(lp80
sg13
(tsg14
I0
sg15
g16
ssS'fflush'
p81
(dp82
g7
g8
sg9
(lp83
sg11
(lp84
sg13
(tsg14
I0
sg15
g16
ssS'fopen'
p85
(dp86
g7
g8
sg9
(lp87
sg11
(lp88
sg13
(tsg14
I0
sg15
g16
ssS'fputs'
p89
(dp90
g7
g8
sg9
(lp91
sg11
(lp92
sg13
(tsg14
I0
sg15
g16
ssS'__fprintf_chk'
p93
(dp94
g7
g8
sg9
(lp95
sg11
(lp96
sg13
(tsg14
I0
sg15
g16
ssS'fseek'
p97
(dp98
g7
g8
sg9
(lp99
sg11
(lp100
sg13
(tsg14
I0
sg15
g16
ssS'wcslen'
p101
(dp102
g7
g8
sg9
(lp103
sg11
(lp104
sg13
(tsg14
I0
sg15
g16
ssS'dcgettext'
p105
(dp106
g7
g8
sg9
(lp107
sg11
(lp108
sg13
(tsg14
I0
sg15
g16
ssS'ftell'
p109
(dp110
g7
g8
sg9
(lp111
sg11
(lp112
sg13
(tsg14
I0
sg15
g16
ssS'textdomain'
p113
(dp114
g7
g8
sg9
(lp115
sg11
(lp116
sg13
(tsg14
I0
sg15
g16
ssS'exit'
p117
(dp118
g7
g8
sg9
(lp119
sg11
(lp120
sg13
(tsg14
I0
sg15
g16
ssS'usage'
p121
(dp122
g7
g8
sg9
(lp123
sg11
(lp124
sg13
(tsg14
I0
sg15
g16
ssS'main'
p125
(dp126
g7
g8
sg9
(lp127
sg11
(lp128
(lp129
I65
aI87
aa(lp130
I65
aI86
aa(lp131
I185
aI135
aI0
aI0
aI0
aa(lp132
I65
aI85
aa(lp133
I65
aI84
aa(lp134
I73
aI137
aI245
aa(lp135
I85
aa(lp136
I83
aa(lp137
I137
aI253
aa(lp138
I72
aI141
aI53
aI143
aI11
aI0
aI0
aa(lp139
I72
aI129
aI236
aI72
aI4
aI0
aI0
aa(lp140
I100
aI72
aI139
aI4
aI37
aI40
aI0
aa(lp141
I0
aI0
aa(lp142
I72
aI137
aI132
aI36
aI56
aI4
aI0
aI0
aa(lp143
I49
aI192
aa(lp144
I73
aI137
aI228
aa(lp145
I76
aI137
aI231
aa(lp146
I243
aI72
aI171
aa(lp147
I191
aI6
aI0
aI0
aI0
aa(lp148
I232
aI24
aI255
aI255
aI255
aa(lp149
I72
aI141
aI53
aI129
aI10
aI0
aI0
aa(lp150
I72
aI141
aI61
aI140
aI10
aI0
aI0
aa(lp151
I232
aI197
aI253
aI255
aI255
aa(lp152
I72
aI141
aI61
aI128
aI10
aI0
aI0
aa(lp153
I232
aI153
aI253
aI255
aI255
aa(lp154
I72
aI141
aI61
aI114
aI8
aI0
aI0
aa(lp155
I232
aI45
aI10
aI0
aI0
aa(lp156
I133
aI237
aa(lp157
I126
aI89
aa(lp158
I49
aI219
aa(lp159
I235
aI12
aa(lp160
I15
aI31
aI68
aI0
aI0
aa(lp161
I131
aI195
aI1
aa(lp162
I57
aI221
aa(lp163
I126
aI73
aa(lp164
I72
aI99
aI195
aa(lp165
I72
aI193
aI224
aI3
aa(lp166
I73
aI141
aI124
aI5
aI0
aa(lp167
I72
aI139
aI23
aa(lp168
I128
aI58
aI45
aa(lp169
I117
aI229
aa(lp170
I128
aI122
aI1
aI0
aa(lp171
I117
aI223
aa(lp172
I131
aI237
aI1
aa(lp173
I73
aI141
aI116
aI5
aI8
aa(lp174
I128
aI140
aI36
aI48
aI4
aI0
aI0
aa(lp175
I4
aa(lp176
I137
aI234
aa(lp177
I41
aI218
aa(lp178
I131
aI235
aI1
aa(lp179
I72
aI99
aI210
aa(lp180
I72
aI193
aI226
aI3
aa(lp181
I232
aI204
aI254
aI255
aI255
aa(lp182
I235
aI186
aa(lp183
I102
aI46
aI15
aI31
aI132
aI0
aI0
aa(lp184
I0
aI0
aI0
aa(lp185
I72
aI141
aI29
aI25
aI26
aI32
aI0
aa(lp186
I72
aI141
aI21
aI215
aI10
aI0
aI0
aa(lp187
I69
aI49
aI192
aa(lp188
I72
aI137
aI217
aa(lp189
I76
aI137
aI238
aa(lp190
I137
aI239
aa(lp191
I232
aI98
aI253
aI255
aI255
aa(lp192
I131
aI248
aI255
aa(lp193
I116
aI119
aa(lp194
I131
aI248
aI86
aa(lp195
I116
aI56
aa(lp196
I127
aI22
aa(lp197
I131
aI248
aI50
aa(lp198
I15
aI133
aI249
aI4
aI0
aI0
aa(lp199
I128
aI140
aI36
aI48
aI4
aI0
aI0
aa(lp200
I8
aa(lp201
I235
aI202
aa(lp202
I15
aI31
aI0
aa(lp203
I131
aI248
aI104
aa(lp204
I15
aI132
aI125
aI3
aI0
aI0
aa(lp205
I131
aI192
aI128
aa(lp206
I15
aI133
aI218
aI4
aI0
aI0
aa(lp207
I128
aI140
aI36
aI48
aI4
aI0
aI0
aa(lp208
I4
aa(lp209
I235
aI171
aa(lp210
I15
aI31
aI64
aI0
aa(lp211
I72
aI139
aI29
aI217
aI29
aI32
aI0
aa(lp212
I72
aI141
aI53
aI175
aI9
aI0
aI0
aa(lp213
I186
aI5
aI0
aI0
aI0
aa(lp214
I49
aI255
aa(lp215
I232
aI230
aI252
aI255
aI255
aa(lp216
I72
aI141
aI13
aI168
aI9
aI0
aI0
aa(lp217
I72
aI137
aI198
aa(lp218
I191
aI1
aI0
aI0
aI0
aa(lp219
I72
aI137
aI218
aa(lp220
I49
aI192
aa(lp221
I232
aI13
aI254
aI255
aI255
aa(lp222
I49
aI255
aa(lp223
I232
aI86
aI254
aI255
aI255
aa(lp224
I72
aI99
aI5
aI183
aI29
aI32
aI0
aa(lp225
I77
aI141
aI116
aI36
aI8
aa(lp226
I77
aI141
aI108
aI197
aI0
aa(lp227
I41
aI197
aa(lp228
I15
aI31
aI0
aa(lp229
I49
aI246
aa(lp230
I186
aI132
aI0
aI0
aI0
aa(lp231
I76
aI137
aI247
aa(lp232
I232
aI49
aI253
aI255
aI255
aa(lp233
I73
aI141
aI188
aI36
aI28
aI2
aI0
aI0
aa(lp234
I186
aI132
aI0
aI0
aI0
aa(lp235
I190
aI32
aI0
aI0
aI0
aa(lp236
I232
aI26
aI253
aI255
aI255
aa(lp237
I133
aI237
aa(lp238
I15
aI143
aI118
aI2
aI0
aI0
aa(lp239
I72
aI139
aI5
aI107
aI29
aI32
aI0
aa(lp240
I72
aI137
aI4
aI36
aa(lp241
I15
aI182
aI132
aI36
aI48
aI4
aI0
aI0
aa(lp242
I131
aI200
aI1
aa(lp243
I168
aI8
aa(lp244
I136
aI132
aI36
aI48
aI4
aI0
aI0
aa(lp245
I117
aI69
aa(lp246
I49
aI219
aa(lp247
I129
aI251
aI131
aI0
aI0
aI0
aa(lp248
I127
aI87
aa(lp249
I72
aI139
aI60
aI36
aa(lp250
I232
aI110
aI253
aI255
aI255
aa(lp251
I131
aI248
aI27
aa(lp252
I65
aI137
aI199
aa(lp253
I15
aI132
aI82
aI1
aI0
aI0
aa(lp254
I15
aI135
aI180
aI0
aI0
aI0
aa(lp255
I131
aI248
aI9
aa(lp256
I15
aI132
aI227
aI1
aI0
aI0
aa(lp257
I131
aI248
aI10
aa(lp258
I15
aI133
aI10
aI1
aI0
aI0
aa(lp259
I137
aI222
aa(lp260
I76
aI137
aI231
aa(lp261
I49
aI219
aa(lp262
I232
aI190
aI5
aI0
aI0
aa(lp263
I235
aI197
aa(lp264
I72
aI139
aI53
aI253
aI28
aI32
aI0
aa(lp265
I191
aI10
aI0
aI0
aI0
aa(lp266
I232
aI107
aI252
aI255
aI255
aa(lp267
I235
aI168
aa(lp268
I102
aI15
aI31
aI132
aI0
aI0
aI0
aa(lp269
I0
aI0
aa(lp270
I137
aI222
aa(lp271
I76
aI137
aI231
aa(lp272
I232
aI150
aI5
aI0
aI0
aa(lp273
I232
aI129
aI251
aI255
aI255
aa(lp274
I72
aI139
aI60
aI36
aa(lp275
I199
aI0
aI0
aI0
aI0
aI0
aa(lp276
I232
aI146
aI252
aI255
aI255
aa(lp277
I72
aI137
aI195
aa(lp278
I72
aI139
aI60
aI36
aa(lp279
I232
aI246
aI252
aI255
aI255
aa(lp280
I131
aI248
aI10
aa(lp281
I116
aI61
aa(lp282
I72
aI139
aI60
aI36
aa(lp283
I232
aI136
aI251
aI255
aI255
aa(lp284
I133
aI192
aa(lp285
I117
aI92
aa(lp286
I72
aI139
aI60
aI36
aa(lp287
I232
aI123
aI252
aI255
aI255
aa(lp288
I133
aI192
aa(lp289
I117
aI79
aa(lp290
I72
aI139
aI60
aI36
aa(lp291
I232
aI94
aI252
aI255
aI255
aa(lp292
I72
aI57
aI216
aa(lp293
I15
aI132
aI194
aI1
aI0
aI0
aa(lp294
I72
aI139
aI60
aI36
aa(lp295
I72
aI137
aI195
aa(lp296
I232
aI185
aI252
aI255
aI255
aa(lp297
I131
aI248
aI10
aa(lp298
I117
aI195
aa(lp299
I49
aI219
aa(lp300
I233
aI54
aI255
aI255
aI255
aa(lp301
I15
aI31
aI68
aI0
aI0
aa(lp302
I131
aI248
aI95
aa(lp303
I15
aI132
aI247
aI0
aI0
aI0
aa(lp304
I131
aI248
aI255
aa(lp305
I117
aI90
aa(lp306
I137
aI222
aa(lp307
I76
aI137
aI231
aa(lp308
I128
aI164
aI36
aI48
aI4
aI0
aI0
aa(lp309
I254
aa(lp310
I232
aI8
aI5
aI0
aI0
aa(lp311
I72
aI139
aI60
aI36
aa(lp312
I72
aI59
aI61
aI77
aI28
aI32
aI0
aa(lp313
I116
aI5
aa(lp314
I232
aI54
aI251
aI255
aI255
aa(lp315
I133
aI237
aa(lp316
I15
aI143
aI158
aI254
aI255
aI255
aa(lp317
I49
aI192
aa(lp318
I72
aI139
aI140
aI36
aI56
aI4
aI0
aI0
aa(lp319
I100
aI72
aI51
aI12
aI37
aI40
aI0
aa(lp320
I0
aI0
aa(lp321
I15
aI133
aI62
aI3
aI0
aI0
aa(lp322
I72
aI129
aI196
aI72
aI4
aI0
aI0
aa(lp323
I91
aa(lp324
I93
aa(lp325
I65
aI92
aa(lp326
I65
aI93
aa(lp327
I65
aI94
aa(lp328
I65
aI95
aa(lp329
I195
aasg13
(I4368
I6007
tp330
sg14
I2
sg15
g16
ssS'__printf_chk'
p331
(dp332
g7
g8
sg9
(lp333
sg11
(lp334
sg13
(tsg14
I0
sg15
g16
ssS'flush_standard_stream'
p335
(dp336
g7
g8
sg9
(lp337
sg11
(lp338
sg13
(tsg14
I1
sg15
g16
ssS'wmemset'
p339
(dp340
g7
g8
sg9
(lp341
sg11
(lp342
sg13
(tsg14
I3
sg15
g16
ssS'ferror'
p343
(dp344
g7
g8
sg9
(lp345
sg11
(lp346
sg13
(tsg14
I0
sg15
g16
ssS'__wmemset_alias'
p347
(dp348
g7
g8
sg9
(lp349
sg11
(lp350
sg13
(tsg14
I0
sg15
g16
ssS'warn'
p351
(dp352
g7
g8
sg9
(lp353
sg11
(lp354
sg13
(tsg14
I0
sg15
g16
ssS'dup'
p355
(dp356
g7
g8
sg9
(lp357
sg11
(lp358
sg13
(tsg14
I0
sg15
g16
ssS'colcrt'
p359
(dp360
g7
g8
sg9
(lp361
sg11
(lp362
sg13
(tsg14
I1
sg15
g16
ssS'getopt_long'
p363
(dp364
g7
g8
sg9
(lp365
sg11
(lp366
sg13
(tsg14
I0
sg15
g16
ssS'fileno'
p367
(dp368
g7
g8
sg9
(lp369
sg11
(lp370
sg13
(tsg14
I0
sg15
g16
ssS'rubchars'
p371
(dp372
g7
g8
sg9
(lp373
sg11
(lp374
sg13
(tsg14
I3
sg15
g16
ssS'fputws'
p375
(dp376
g7
g8
sg9
(lp377
sg11
(lp378
sg13
(tsg14
I0
sg15
g16
ssS'err'
p379
(dp380
g7
g8
sg9
(lp381
sg11
(lp382
sg13
(tsg14
I0
sg15
g16
ssS'memmove'
p383
(dp384
g7
g8
sg9
(lp385
sg11
(lp386
sg13
(tsg14
I3
sg15
g16
ssS'iswprint'
p387
(dp388
g7
g8
sg9
(lp389
sg11
(lp390
sg13
(tsg14
I0
sg15
g16
ssS'__errno_location'
p391
(dp392
g7
g8
sg9
(lp393
sg11
(lp394
sg13
(tsg14
I0
sg15
g16
ssS'__stack_chk_fail'
p395
(dp396
g7
g8
sg9
(lp397
sg11
(lp398
sg13
(tsg14
I0
sg15
g16
ssS'__builtin_fputc'
p399
(dp400
g7
g8
sg9
(lp401
sg11
(lp402
sg13
(tsg14
I0
sg15
g16
ssS'close_stdout'
p403
(dp404
g7
g8
sg9
(lp405
sg11
(lp406
(lp407
I85
aa(lp408
I83
aa(lp409
I72
aI131
aI236
aI8
aa(lp410
I72
aI139
aI45
aI43
aI22
aI32
aI0
aa(lp411
I232
aI206
aI244
aI255
aI255
aa(lp412
I199
aI0
aI0
aI0
aI0
aI0
aa(lp413
I72
aI137
aI195
aa(lp414
I72
aI137
aI239
aa(lp415
I232
aI237
aI244
aI255
aI255
aa(lp416
I133
aI192
aa(lp417
I116
aI121
aa(lp418
I139
aI3
aa(lp419
I131
aI248
aI9
aa(lp420
I117
aI50
aa(lp421
I72
aI139
aI45
aI27
aI22
aI32
aI0
aa(lp422
I199
aI3
aI0
aI0
aI0
aI0
aa(lp423
I72
aI137
aI239
aa(lp424
I232
aI205
aI244
aI255
aI255
aa(lp425
I133
aI192
aa(lp426
I15
aI132
aI157
aI0
aI0
aI0
aa(lp427
I131
aI59
aI9
aa(lp428
I117
aI64
aa(lp429
I72
aI131
aI196
aI8
aa(lp430
I91
aa(lp431
I93
aa(lp432
I195
aasg13
(I6640
I6959
tp433
sg14
I0
sg15
g16
ssS'output_lines'
p434
(dp435
g7
g8
sg9
(lp436
sg11
(lp437
(lp438
I65
aI84
aa(lp439
I85
aa(lp440
I72
aI141
aI111
aI8
aa(lp441
I83
aa(lp442
I72
aI137
aI251
aa(lp443
I76
aI99
aI230
aa(lp444
I72
aI137
aI239
aa(lp445
I232
aI154
aI255
aI255
aI255
aa(lp446
I72
aI139
aI53
aI43
aI23
aI32
aI0
aa(lp447
I72
aI137
aI239
aa(lp448
I232
aI27
aI247
aI255
aI255
aa(lp449
I15
aI182
aI131
aI48
aI4
aI0
aI0
aa(lp450
I168
aI1
aa(lp451
I15
aI133
aI156
aI0
aI0
aI0
aa(lp452
I168
aI12
aa(lp453
I117
aI7
aa(lp454
I128
aI163
aI48
aI4
aI0
aI0
aI254
aa(lp455
I49
aI246
aa(lp456
I186
aI132
aI0
aI0
aI0
aa(lp457
I72
aI137
aI239
aa(lp458
I232
aI162
aI246
aI255
aI255
aa(lp459
I15
aI182
aI131
aI48
aI4
aI0
aI0
aa(lp460
I168
aI2
aa(lp461
I117
aI23
aa(lp462
I168
aI8
aa(lp463
I116
aI9
aa(lp464
I69
aI133
aI228
aa(lp465
I15
aI143
aI138
aI0
aI0
aI0
aa(lp466
I91
aa(lp467
I93
aa(lp468
I65
aI92
aa(lp469
I195
aasg13
(I6368
I6629
tp470
sg14
I2
sg15
g16
ssS'fputwc'
p471
(dp472
g7
g8
sg9
(lp473
sg11
(lp474
sg13
(tsg14
I0
sg15
g16
ssS'iswspace'
p475
(dp476
g7
g8
sg9
(lp477
sg11
(lp478
sg13
(tsg14
I0
sg15
g16
ssS'_exit'
p479
(dp480
g7
g8
sg9
(lp481
sg11
(lp482
sg13
(tsg14
I0
sg15
g16
ssS'__builtin_memmove'
p483
(dp484
g7
g8
sg9
(lp485
sg11
(lp486
sg13
(tsg14
I0
sg15
g16
sssS'function_calls'
p487
(dp488
sS'binary_filename'
p489
S'colcrt'
p490
sS'structures'
p491
(dp492
sS'extern_functions'
p493
(dp494
sS'arch'
p495
S'amd64'
p496
sS'bin_raw_bytes'
p497
g8
s.