(dp0
S'text_addr'
p1
S'0x3780'
p2
sS'functions'
p3
(dp4
S'strncasecmp'
p5
(dp6
S'ret_type'
p7
S''
p8
sS'args_type'
p9
(lp10
sS'inst_bytes'
p11
(lp12
sS'boundaries'
p13
(tsS'num_args'
p14
I0
sS'inst_strings'
p15
(lp16
ssS'lseek'
p17
(dp18
g7
g8
sg9
(lp19
sg11
(lp20
sg13
(tsg14
I0
sg15
g16
ssS'err_exclusive_options'
p21
(dp22
g7
g8
sg9
(lp23
sg11
(lp24
sg13
(tsg14
I4
sg15
g16
ssS'strtos32_or_err'
p25
(dp26
g7
g8
sg9
(lp27
sg11
(lp28
(lp29
I85
aa(lp30
I83
aa(lp31
I72
aI137
aI253
aa(lp32
I72
aI137
aI243
aa(lp33
I72
aI131
aI236
aI8
aa(lp34
I232
aI31
aI255
aI255
aI255
aa(lp35
I186
aI0
aI0
aI0
aI128
aa(lp36
I185
aI255
aI255
aI255
aI255
aa(lp37
I72
aI1
aI194
aa(lp38
I72
aI57
aI202
aa(lp39
I119
aI7
aa(lp40
I72
aI131
aI196
aI8
aa(lp41
I91
aa(lp42
I93
aa(lp43
I195
aasg13
(tsg14
I2
sg15
g16
ssS'__builtin_fwrite'
p44
(dp45
g7
g8
sg9
(lp46
sg11
(lp47
sg13
(tsg14
I0
sg15
g16
ssS'colors_mode'
p48
(dp49
g7
g8
sg9
(lp50
sg11
(lp51
(lp52
I139
aI5
aI250
aI119
aI32
aI0
aa(lp53
I195
aasg13
(I44240
I44247
tp54
sg14
I0
sg15
g16
ssS'_IO_putc'
p55
(dp56
g7
g8
sg9
(lp57
sg11
(lp58
sg13
(tsg14
I0
sg15
g16
ssS'__builtin_puts'
p59
(dp60
g7
g8
sg9
(lp61
sg11
(lp62
sg13
(tsg14
I0
sg15
g16
ssS'start_command'
p63
(dp64
g7
g8
sg9
(lp65
sg11
(lp66
sg13
(tsg14
I1
sg15
g16
ssS'pager_redirect'
p67
(dp68
g7
g8
sg9
(lp69
sg11
(lp70
(lp71
I139
aI5
aI162
aI177
aI32
aI0
aa(lp72
I133
aI192
aa(lp73
I116
aI6
aa(lp74
I243
aI195
aa(lp75
I15
aI31
aI64
aI0
aa(lp76
I72
aI131
aI236
aI8
aa(lp77
I232
aI247
aI251
aI255
aI255
aa(lp78
I72
aI141
aI61
aI128
aI250
aI255
aI255
aa(lp79
I72
aI131
aI196
aI8
aa(lp80
I233
aI55
aI69
aI0
aI0
aa(lp81
I15
aI31
aI128
aI0
aI0
aI0
aI0
aasg13
(I28608
I28649
tp82
sg14
I0
sg15
g16
ssS'parse_syslog_timestamp'
p83
(dp84
g7
g8
sg9
(lp85
sg11
(lp86
sg13
(tsg14
I2
sg15
g16
ssS'close_stdout_atexit'
p87
(dp88
g7
g8
sg9
(lp89
sg11
(lp90
sg13
(tsg14
I0
sg15
g16
ssS'strtoul'
p91
(dp92
g7
g8
sg9
(lp93
sg11
(lp94
sg13
(tsg14
I0
sg15
g16
ssS'strtod_or_err'
p95
(dp96
g7
g8
sg9
(lp97
sg11
(lp98
(lp99
I85
aa(lp100
I83
aa(lp101
I72
aI137
aI251
aa(lp102
I72
aI137
aI245
aa(lp103
I72
aI131
aI236
aI40
aa(lp104
I100
aI72
aI139
aI4
aI37
aI40
aI0
aa(lp105
I0
aI0
aa(lp106
I72
aI137
aI68
aI36
aI24
aa(lp107
I49
aI192
aa(lp108
I72
aI199
aI68
aI36
aI16
aI0
aI0
aa(lp109
I0
aI0
aa(lp110
I232
aI70
aI180
aI255
aI255
aa(lp111
I72
aI133
aI219
aa(lp112
I199
aI0
aI0
aI0
aI0
aI0
aa(lp113
I139
aI61
aI55
aI164
aI32
aI0
aa(lp114
I116
aI5
aa(lp115
I128
aI59
aI0
aa(lp116
I117
aI24
aa(lp117
I72
aI141
aI53
aI219
aI76
aI0
aI0
aa(lp118
I72
aI137
aI217
aa(lp119
I72
aI137
aI234
aa(lp120
I49
aI192
aa(lp121
I232
aI220
aI181
aI255
aI255
aa(lp122
I15
aI31
aI64
aI0
aa(lp123
I72
aI141
aI116
aI36
aI16
aa(lp124
I72
aI137
aI223
aa(lp125
I72
aI137
aI68
aI36
aI8
aa(lp126
I232
aI182
aI180
aI255
aI255
aa(lp127
I72
aI139
aI68
aI36
aI8
aa(lp128
I139
aI0
aa(lp129
I133
aI192
aa(lp130
I117
aI43
aa(lp131
I72
aI139
aI68
aI36
aI16
aa(lp132
I72
aI57
aI216
aa(lp133
I116
aI65
aa(lp134
I72
aI133
aI192
aa(lp135
I116
aI5
aa(lp136
I128
aI56
aI0
aa(lp137
I117
aI55
aa(lp138
I72
aI139
aI68
aI36
aI24
aa(lp139
I100
aI72
aI51
aI4
aI37
aI40
aI0
aa(lp140
I0
aI0
aa(lp141
I117
aI50
aa(lp142
I72
aI131
aI196
aI40
aa(lp143
I91
aa(lp144
I93
aa(lp145
I195
aasg13
(tsg14
I2
sg15
g16
ssS'strtosize'
p146
(dp147
g7
g8
sg9
(lp148
sg11
(lp149
(lp150
I49
aI210
aa(lp151
I233
aI57
aI251
aI255
aI255
aa(lp152
I102
aI15
aI31
aI132
aI0
aI0
aI0
aa(lp153
I0
aI0
aasg13
(I30704
I30711
tp154
sg14
I2
sg15
g16
ssS'fflush'
p155
(dp156
g7
g8
sg9
(lp157
sg11
(lp158
sg13
(tsg14
I0
sg15
g16
ssS'getegid'
p159
(dp160
g7
g8
sg9
(lp161
sg11
(lp162
sg13
(tsg14
I0
sg15
g16
ssS'cmp_scheme_name'
p163
(dp164
g7
g8
sg9
(lp165
sg11
(lp166
(lp167
I72
aI139
aI54
aa(lp168
I72
aI139
aI63
aa(lp169
I233
aI181
aI149
aI255
aI255
aa(lp170
I15
aI31
aI68
aI0
aI0
aasg13
(tsg14
I2
sg15
g16
ssS'strtol'
p171
(dp172
g7
g8
sg9
(lp173
sg11
(lp174
sg13
(tsg14
I0
sg15
g16
ssS'fputc'
p175
(dp176
g7
g8
sg9
(lp177
sg11
(lp178
sg13
(tsg14
I0
sg15
g16
ssS'close_pair'
p179
(dp180
g7
g8
sg9
(lp181
sg11
(lp182
sg13
(tsg14
I1
sg15
g16
ssS'strtok'
p183
(dp184
g7
g8
sg9
(lp185
sg11
(lp186
sg13
(tsg14
I0
sg15
g16
ssS'color_fdisable'
p187
(dp188
g7
g8
sg9
(lp189
sg11
(lp190
(lp191
I15
aI182
aI5
aI109
aI118
aI32
aI0
aa(lp192
I131
aI224
aI3
aa(lp193
I60
aI1
aa(lp194
I116
aI2
aa(lp195
I243
aI195
aa(lp196
I72
aI137
aI249
aa(lp197
I72
aI141
aI61
aI230
aI30
aI0
aI0
aa(lp198
I186
aI4
aI0
aI0
aI0
aa(lp199
I190
aI1
aI0
aI0
aI0
aa(lp200
I233
aI87
aI136
aI255
aI255
aa(lp201
I15
aI31
aI128
aI0
aI0
aI0
aI0
aasg13
(tsg14
I1
sg15
g16
ssS'mmap'
p202
(dp203
g7
g8
sg9
(lp204
sg11
(lp205
sg13
(tsg14
I0
sg15
g16
ssS'strptime'
p206
(dp207
g7
g8
sg9
(lp208
sg11
(lp209
sg13
(tsg14
I0
sg15
g16
ssS'skip_fline'
p210
(dp211
g7
g8
sg9
(lp212
sg11
(lp213
(lp214
I83
aa(lp215
I72
aI137
aI251
aa(lp216
I235
aI15
aa(lp217
I102
aI46
aI15
aI31
aI132
aI0
aI0
aa(lp218
I0
aI0
aI0
aa(lp219
I131
aI248
aI10
aa(lp220
I116
aI27
aa(lp221
I72
aI137
aI223
aa(lp222
I232
aI179
aI165
aI255
aI255
aa(lp223
I131
aI248
aI255
aa(lp224
I117
aI238
aa(lp225
I184
aI1
aI0
aI0
aI0
aa(lp226
I91
aa(lp227
I195
aasg13
(I36336
I36388
tp228
sg14
I1
sg15
g16
ssS'filename_to_tokens'
p229
(dp230
g7
g8
sg9
(lp231
sg11
(lp232
sg13
(tsg14
I6
sg15
g16
ssS'fputs'
p233
(dp234
g7
g8
sg9
(lp235
sg11
(lp236
sg13
(tsg14
I0
sg15
g16
ssS'string_to_idarray'
p237
(dp238
g7
g8
sg9
(lp239
sg11
(lp240
(lp241
I72
aI133
aI255
aa(lp242
I15
aI132
aI251
aI0
aI0
aI0
aa(lp243
I65
aI87
aa(lp244
I65
aI86
aa(lp245
I65
aI85
aa(lp246
I65
aI84
aa(lp247
I85
aa(lp248
I83
aa(lp249
I72
aI137
aI251
aa(lp250
I72
aI131
aI236
aI8
aa(lp251
I15
aI182
aI7
aa(lp252
I132
aI192
aa(lp253
I15
aI132
aI183
aI0
aI0
aI0
aa(lp254
I72
aI133
aI246
aa(lp255
I73
aI137
aI204
aa(lp256
I72
aI137
aI213
aa(lp257
I15
aI148
aI193
aa(lp258
I72
aI133
aI210
aa(lp259
I73
aI137
aI245
aa(lp260
I15
aI148
aI194
aa(lp261
I8
aI209
aa(lp262
I15
aI133
aI154
aI0
aI0
aI0
aa(lp263
I77
aI133
aI228
aa(lp264
I15
aI132
aI145
aI0
aI0
aI0
aa(lp265
I49
aI255
aa(lp266
I69
aI49
aI246
aa(lp267
I76
aI57
aI245
aa(lp268
I15
aI134
aI151
aI0
aI0
aI0
aa(lp269
I72
aI133
aI255
aa(lp270
I15
aI182
aI83
aI1
aa(lp271
I72
aI15
aI68
aI251
aa(lp272
I60
aI44
aa(lp273
I116
aI104
aa(lp274
I132
aI210
aa(lp275
I117
aI57
aa(lp276
I72
aI141
aI83
aI1
aa(lp277
I72
aI131
aI251
aI255
aa(lp278
I73
aI137
aI215
aa(lp279
I116
aI48
aa(lp280
I76
aI57
aI255
aa(lp281
I115
aI94
aa(lp282
I76
aI137
aI254
aa(lp283
I72
aI41
aI254
aa(lp284
I65
aI255
aI212
aa(lp285
I131
aI248
aI255
aa(lp286
I116
aI80
aa(lp287
I73
aI141
aI86
aI1
aa(lp288
I77
aI133
aI255
aa(lp289
I67
aI137
aI68
aI181
aI0
aa(lp290
I73
aI137
aI214
aa(lp291
I116
aI6
aa(lp292
I65
aI128
aI63
aI0
aa(lp293
I116
aI21
aa(lp294
I49
aI255
aa(lp295
I72
aI141
aI83
aI1
aa(lp296
I72
aI133
aI210
aa(lp297
I72
aI137
aI211
aa(lp298
I116
aI7
aa(lp299
I15
aI182
aI2
aa(lp300
I132
aI192
aa(lp301
I117
aI152
aa(lp302
I72
aI131
aI196
aI8
aa(lp303
I68
aI137
aI240
aa(lp304
I91
aa(lp305
I93
aa(lp306
I65
aI92
aa(lp307
I65
aI93
aa(lp308
I65
aI94
aa(lp309
I65
aI95
aa(lp310
I195
aasg13
(tsg14
I4
sg15
g16
ssS'setenv'
p311
(dp312
g7
g8
sg9
(lp313
sg11
(lp314
sg13
(tsg14
I0
sg15
g16
ssS'asprintf'
p315
(dp316
g7
g8
sg9
(lp317
sg11
(lp318
sg13
(tsg14
I2
sg15
g16
ssS'read_buffer'
p319
(dp320
g7
g8
sg9
(lp321
sg11
(lp322
sg13
(tsg14
I2
sg15
g16
ssS'usage'
p323
(dp324
g7
g8
sg9
(lp325
sg11
(lp326
sg13
(tsg14
I0
sg15
g16
ssS'colors_read_configuration'
p327
(dp328
g7
g8
sg9
(lp329
sg11
(lp330
sg13
(tsg14
I1
sg15
g16
ssS'main'
p331
(dp332
g7
g8
sg9
(lp333
sg11
(lp334
(lp335
I65
aI87
aa(lp336
I102
aI15
aI239
aI192
aa(lp337
I65
aI86
aa(lp338
I65
aI85
aa(lp339
I76
aI141
aI45
aI79
aI200
aI32
aI0
aa(lp340
I65
aI84
aa(lp341
I85
aa(lp342
I73
aI137
aI244
aa(lp343
I83
aa(lp344
I72
aI141
aI53
aI238
aI149
aI0
aI0
aa(lp345
I137
aI253
aa(lp346
I191
aI6
aI0
aI0
aI0
aa(lp347
I72
aI141
aI29
aI179
aI131
aI0
aI0
aa(lp348
I65
aI191
aI3
aI0
aI0
aI0
aa(lp349
I72
aI129
aI236
aI72
aI1
aI0
aI0
aa(lp350
I65
aI190
aI1
aI0
aI0
aI0
aa(lp351
I15
aI41
aI68
aI36
aI112
aa(lp352
I100
aI72
aI139
aI4
aI37
aI40
aI0
aa(lp353
I0
aI0
aa(lp354
I72
aI137
aI132
aI36
aI56
aI1
aI0
aI0
aa(lp355
I49
aI192
aa(lp356
I15
aI41
aI132
aI36
aI128
aI0
aI0
aI0
aa(lp357
I72
aI199
aI132
aI36
aI144
aI0
aI0
aa(lp358
I0
aI0
aI0
aI0
aI0
aa(lp359
I232
aI191
aI253
aI255
aI255
aa(lp360
I72
aI141
aI53
aI211
aI126
aI0
aI0
aa(lp361
I72
aI141
aI61
aI222
aI126
aI0
aI0
aa(lp362
I232
aI12
aI250
aI255
aI255
aa(lp363
I72
aI141
aI61
aI210
aI126
aI0
aI0
aa(lp364
I232
aI176
aI249
aI255
aI255
aa(lp365
I72
aI141
aI61
aI25
aI43
aI0
aI0
aa(lp366
I232
aI196
aI124
aI0
aI0
aa(lp367
I199
aI68
aI36
aI8
aI0
aI0
aI0
aI0
aa(lp368
I199
aI68
aI36
aI28
aI0
aI0
aI0
aI0
aa(lp369
I199
aI68
aI36
aI24
aI0
aI0
aI0
aI0
aa(lp370
I15
aI31
aI64
aI0
aa(lp371
I72
aI141
aI13
aI97
aI184
aI32
aI0
aa(lp372
I72
aI141
aI21
aI250
aI142
aI0
aI0
aa(lp373
I69
aI49
aI192
aa(lp374
I76
aI137
aI230
aa(lp375
I137
aI239
aa(lp376
I232
aI29
aI250
aI255
aI255
aa(lp377
I131
aI248
aI255
aa(lp378
I15
aI132
aI74
aI4
aI0
aI0
aa(lp379
I131
aI248
aI66
aa(lp380
I126
aI81
aa(lp381
I72
aI141
aI76
aI36
aI112
aa(lp382
I76
aI141
aI5
aI19
aI132
aI0
aI0
aa(lp383
I186
aI67
aI0
aI0
aI0
aa(lp384
I102
aI15
aI31
aI68
aI0
aI0
aa(lp385
I57
aI208
aa(lp386
I124
aI35
aa(lp387
I116
aI21
aa(lp388
I76
aI137
aI198
aa(lp389
I72
aI131
aI198
aI4
aa(lp390
I139
aI22
aa(lp391
I133
aI210
aa(lp392
I116
aI20
aa(lp393
I57
aI208
aa(lp394
I124
aI16
aa(lp395
I57
aI208
aa(lp396
I117
aI238
aa(lp397
I139
aI17
aa(lp398
I133
aI210
aa(lp399
I15
aI133
aI59
aI3
aI0
aI0
aa(lp400
I137
aI1
aa(lp401
I73
aI131
aI192
aI64
aa(lp402
I65
aI139
aI16
aa(lp403
I72
aI131
aI193
aI4
aa(lp404
I133
aI210
aa(lp405
I116
aI4
aa(lp406
I57
aI208
aa(lp407
I125
aI198
aa(lp408
I131
aI232
aI67
aa(lp409
I131
aI248
aI62
aa(lp410
I15
aI135
aI241
aI17
aI0
aI0
aa(lp411
I72
aI99
aI4
aI131
aa(lp412
I72
aI1
aI216
aa(lp413
I255
aI224
aa(lp414
I128
aI13
aI174
aI231
aI32
aI0
aI4
aa(lp415
I233
aI101
aI255
aI255
aI255
aa(lp416
I72
aI139
aI5
aI30
aI232
aI32
aI0
aa(lp417
I72
aI141
aI53
aI64
aI126
aI0
aI0
aa(lp418
I72
aI137
aI199
aa(lp419
I72
aI137
aI68
aI36
aI16
aa(lp420
I232
aI66
aI251
aI255
aI255
aa(lp421
I133
aI192
aa(lp422
I116
aI105
aa(lp423
I72
aI139
aI124
aI36
aI16
aa(lp424
I72
aI141
aI53
aI42
aI126
aI0
aI0
aa(lp425
I232
aI45
aI251
aI255
aI255
aa(lp426
I133
aI192
aa(lp427
I15
aI132
aI174
aI4
aI0
aI0
aa(lp428
I72
aI139
aI124
aI36
aI16
aa(lp429
I72
aI141
aI53
aI105
aI128
aI0
aI0
aa(lp430
I232
aI20
aI251
aI255
aI255
aa(lp431
I133
aI192
aa(lp432
I15
aI132
aI61
aI8
aI0
aI0
aa(lp433
I72
aI139
aI124
aI36
aI16
aa(lp434
I72
aI141
aI53
aI254
aI125
aI0
aI0
aa(lp435
I232
aI251
aI250
aI255
aI255
aa(lp436
I133
aI192
aa(lp437
I15
aI132
aI26
aI8
aI0
aI0
aa(lp438
I72
aI139
aI124
aI36
aI16
aa(lp439
I72
aI141
aI53
aI237
aI125
aI0
aI0
aa(lp440
I232
aI226
aI250
aI255
aI255
aa(lp441
I133
aI192
aa(lp442
I15
aI133
aI21
aI17
aI0
aI0
aa(lp443
I184
aI7
aI0
aI0
aI0
aa(lp444
I137
aI5
aI23
aI231
aI32
aI0
aa(lp445
I233
aI210
aI254
aI255
aI255
aa(lp446
I128
aI13
aI15
aI231
aI32
aI0
aI32
aa(lp447
I233
aI198
aI254
aI255
aI255
aa(lp448
I128
aI13
aI3
aI231
aI32
aI0
aI1
aa(lp449
I233
aI186
aI254
aI255
aI255
aa(lp450
I128
aI13
aI247
aI230
aI32
aI0
aI16
aa(lp451
I184
aI1
aI0
aI0
aI0
aa(lp452
I102
aI15
aI31
aI68
aI0
aI0
aa(lp453
I72
aI137
aI194
aa(lp454
I72
aI137
aI193
aa(lp455
I68
aI137
aI247
aa(lp456
I72
aI193
aI250
aI3
aa(lp457
I131
aI225
aI7
aa(lp458
I72
aI131
aI192
aI1
aa(lp459
I211
aI231
aa(lp460
I65
aI8
aI124
aI21
aI2
aa(lp461
I72
aI131
aI248
aI12
aa(lp462
I117
aI223
aa(lp463
I233
aI130
aI254
aI255
aI255
aa(lp464
I199
aI5
aI184
aI230
aI32
aI0
aI0
aa(lp465
I0
aI0
aI0
aa(lp466
I233
aI115
aI254
aI255
aI255
aa(lp467
I72
aI141
aI53
aI56
aI125
aI0
aI0
aa(lp468
I186
aI5
aI0
aI0
aI0
aa(lp469
I49
aI255
aa(lp470
I232
aI72
aI248
aI255
aI255
aa(lp471
I72
aI139
aI61
aI25
aI231
aI32
aI0
aa(lp472
I72
aI137
aI198
aa(lp473
I232
aI185
aI64
aI0
aI0
aa(lp474
I137
aI192
aa(lp475
I186
aI0
aI16
aI0
aI0
aa(lp476
I72
aI61
aI0
aI16
aI0
aI0
aa(lp477
I72
aI15
aI66
aI194
aa(lp478
I72
aI137
aI5
aI73
aI198
aI32
aI0
aa(lp479
I233
aI52
aI254
aI255
aI255
aa(lp480
I128
aI13
aI113
aI230
aI32
aI0
aI2
aa(lp481
I233
aI40
aI254
aI255
aI255
aa(lp482
I128
aI13
aI102
aI230
aI32
aI0
aI1
aa(lp483
I233
aI28
aI254
aI255
aI255
aa(lp484
I72
aI139
aI61
aI213
aI230
aI32
aI0
aa(lp485
I49
aI246
aa(lp486
I199
aI5
aI17
aI198
aI32
aI0
aI8
aa(lp487
I0
aI0
aI0
aa(lp488
I232
aI60
aI25
aI0
aI0
aa(lp489
I137
aI68
aI36
aI28
aa(lp490
I233
aI251
aI253
aI255
aI255
aa(lp491
I72
aI139
aI61
aI180
aI230
aI32
aI0
aa(lp492
I72
aI141
aI21
aI37
aI25
aI0
aI0
aa(lp493
I76
aI137
aI238
aa(lp494
I128
aI13
aI39
aI230
aI32
aI0
aI8
aa(lp495
I232
aI166
aI75
aI0
aI0
aa(lp496
I133
aI192
aa(lp497
I15
aI137
aI214
aI253
aI255
aI255
aa(lp498
I184
aI1
aI0
aI0
aI0
aa(lp499
I233
aI106
aI3
aI0
aI0
aa(lp500
I128
aI13
aI9
aI230
aI32
aI0
aI16
aa(lp501
I128
aI13
aI104
aI197
aI32
aI0
aI1
aa(lp502
I233
aI185
aI253
aI255
aI255
aa(lp503
I72
aI139
aI61
aI114
aI230
aI32
aI0
aa(lp504
I72
aI141
aI21
aI99
aI23
aI0
aI0
aa(lp505
I72
aI141
aI53
aI78
aI197
aI32
aI0
aa(lp506
I128
aI13
aI225
aI229
aI32
aI0
aI16
aa(lp507
I232
aI96
aI75
aI0
aI0
aa(lp508
I133
aI192
aa(lp509
I15
aI137
aI144
aI253
aI255
aI255
aa(lp510
I235
aI184
aa(lp511
I199
aI5
aI196
aI229
aI32
aI0
aI4
aa(lp512
I0
aI0
aI0
aa(lp513
I233
aI127
aI253
aI255
aI255
aa(lp514
I199
aI68
aI36
aI8
aI1
aI0
aI0
aI0
aa(lp515
I233
aI114
aI253
aI255
aI255
aa(lp516
I199
aI5
aI112
aI197
aI32
aI0
aI4
aa(lp517
I0
aI0
aI0
aa(lp518
I233
aI99
aI253
aI255
aI255
aa(lp519
I72
aI139
aI29
aI4
aI230
aI32
aI0
aa(lp520
I72
aI141
aI53
aI91
aI125
aI0
aI0
aa(lp521
I186
aI5
aI0
aI0
aI0
aa(lp522
I49
aI255
aa(lp523
I232
aI49
aI247
aI255
aI255
aa(lp524
I72
aI141
aI13
aI84
aI125
aI0
aI0
aa(lp525
I72
aI137
aI198
aa(lp526
I191
aI1
aI0
aI0
aI0
aa(lp527
I72
aI137
aI218
aa(lp528
I49
aI192
aa(lp529
I232
aI184
aI250
aI255
aI255
aa(lp530
I49
aI255
aa(lp531
I232
aI129
aI251
aI255
aI255
aa(lp532
I68
aI137
aI53
aI98
aI229
aI32
aI0
aa(lp533
I233
aI29
aI253
aI255
aI255
aa(lp534
I68
aI137
aI53
aI34
aI197
aI32
aI0
aa(lp535
I233
aI17
aI253
aI255
aI255
aa(lp536
I199
aI68
aI36
aI24
aI1
aI0
aI0
aI0
aa(lp537
I233
aI4
aI253
aI255
aI255
aa(lp538
I69
aI49
aI255
aa(lp539
I72
aI131
aI61
aI185
aI229
aI32
aI0
aI0
aa(lp540
I15
aI132
aI243
aI252
aI255
aI255
aa(lp541
I72
aI141
aI53
aI161
aI123
aI0
aI0
aa(lp542
I186
aI5
aI0
aI0
aI0
aa(lp543
I49
aI255
aa(lp544
I232
aI200
aI246
aI255
aI255
aa(lp545
I72
aI139
aI61
aI153
aI229
aI32
aI0
aa(lp546
I72
aI137
aI198
aa(lp547
I232
aI9
aI120
aI0
aI0
aa(lp548
I65
aI137
aI199
aa(lp549
I233
aI201
aI252
aI255
aI255
aa(lp550
I199
aI5
aI255
aI228
aI32
aI0
aI4
aa(lp551
I0
aI0
aI0
aa(lp552
I128
aI13
aI252
aI228
aI32
aI0
aI64
aa(lp553
I69
aI49
aI255
aa(lp554
I233
aI176
aI252
aI255
aI255
aa(lp555
I72
aI139
aI5
aI105
aI229
aI32
aI0
aa(lp556
I199
aI5
aI171
aI196
aI32
aI0
aI2
aa(lp557
I0
aI0
aI0
aa(lp558
I72
aI137
aI5
aI192
aI228
aI32
aI0
aa(lp559
I233
aI147
aI252
aI255
aI255
aa(lp560
I199
aI5
aI145
aI196
aI32
aI0
aI7
aa(lp561
I0
aI0
aI0
aa(lp562
I233
aI132
aI252
aI255
aI255
aa(lp563
I199
aI5
aI130
aI196
aI32
aI0
aI6
aa(lp564
I0
aI0
aI0
aa(lp565
I233
aI117
aI252
aI255
aI255
aa(lp566
I199
aI5
aI115
aI196
aI32
aI0
aI5
aa(lp567
I0
aI0
aI0
aa(lp568
I233
aI102
aI252
aI255
aI255
aa(lp569
I102
aI15
aI31
aI68
aI0
aI0
aa(lp570
I57
aI208
aa(lp571
I15
aI132
aI191
aI252
aI255
aI255
aa(lp572
I72
aI141
aI53
aI25
aI131
aI0
aI0
aa(lp573
I72
aI139
aI29
aI242
aI228
aI32
aI0
aa(lp574
I186
aI5
aI0
aI0
aI0
aa(lp575
I49
aI255
aa(lp576
I76
aI137
aI68
aI36
aI8
aa(lp577
I72
aI141
aI45
aI190
aI122
aI0
aI0
aa(lp578
I232
aI26
aI246
aI255
aI255
aa(lp579
I72
aI139
aI61
aI243
aI228
aI32
aI0
aa(lp580
I72
aI137
aI217
aa(lp581
I72
aI137
aI194
aa(lp582
I190
aI1
aI0
aI0
aI0
aa(lp583
I49
aI192
aa(lp584
I49
aI219
aa(lp585
I232
aI143
aI250
aI255
aI255
aa(lp586
I76
aI139
aI68
aI36
aI8
aa(lp587
I65
aI139
aI12
aI24
aa(lp588
I133
aI201
aa(lp589
I116
aI93
aa(lp590
I131
aI249
aI115
aa(lp591
I15
aI132
aI174
aI9
aI0
aI0
aa(lp592
I72
aI141
aI5
aI98
aI180
aI32
aI0
aa(lp593
I235
aI9
aa(lp594
I59
aI72
aI24
aa(lp595
I15
aI132
aI159
aI9
aI0
aI0
aa(lp596
I72
aI131
aI192
aI32
aa(lp597
I72
aI139
aI16
aa(lp598
I72
aI133
aI210
aa(lp599
I117
aI235
aa(lp600
I141
aI65
aI223
aa(lp601
I131
aI248
aI93
aa(lp602
I119
aI36
aa(lp603
I72
aI139
aI61
aI156
aI228
aI32
aI0
aa(lp604
I72
aI141
aI21
aI125
aI122
aI0
aI0
aa(lp605
I190
aI1
aI0
aI0
aI0
aa(lp606
I49
aI192
aa(lp607
I76
aI137
aI68
aI36
aI8
aa(lp608
I232
aI52
aI250
aI255
aI255
aa(lp609
I76
aI139
aI68
aI36
aI8
aa(lp610
I72
aI131
aI195
aI4
aa(lp611
I72
aI131
aI251
aI60
aa(lp612
I117
aI155
aa(lp613
I72
aI139
aI53
aI110
aI228
aI32
aI0
aa(lp614
I191
aI10
aI0
aI0
aI0
aa(lp615
I232
aI52
aI247
aI255
aI255
aa(lp616
I191
aI1
aI0
aI0
aI0
aa(lp617
I232
aI234
aI249
aI255
aI255
aa(lp618
I57
aI45
aI68
aI228
aI32
aI0
aa(lp619
I15
aI133
aI224
aI13
aI0
aI0
aa(lp620
I139
aI5
aI192
aI227
aI32
aI0
aa(lp621
I131
aI248
aI7
aa(lp622
I15
aI134
aI177
aI0
aI0
aI0
aa(lp623
I131
aI124
aI36
aI8
aI0
aa(lp624
I116
aI43
aa(lp625
I139
aI5
aI170
aI227
aI32
aI0
aa(lp626
I131
aI248
aI5
aa(lp627
I15
aI132
aI15
aI4
aI0
aI0
aa(lp628
I131
aI248
aI7
aa(lp629
I15
aI132
aI228
aI3
aI0
aI0
aa(lp630
I131
aI232
aI1
aa(lp631
I15
aI133
aI193
aI0
aI0
aI0
aa(lp632
I199
aI5
aI133
aI227
aI32
aI0
aI2
aa(lp633
I0
aI0
aI0
aa(lp634
I72
aI141
aI53
aI116
aI123
aI0
aI0
aa(lp635
I68
aI137
aI255
aa(lp636
I232
aI78
aI113
aI0
aI0
aa(lp637
I133
aI192
aa(lp638
I15
aI149
aI192
aa(lp639
I193
aI224
aI7
aa(lp640
I137
aI194
aa(lp641
I15
aI182
aI5
aI105
aI227
aI32
aI0
aa(lp642
I131
aI224
aI127
aa(lp643
I9
aI208
aa(lp644
I168
aI1
aa(lp645
I136
aI5
aI92
aI227
aI32
aI0
aa(lp646
I117
aI11
aa(lp647
I131
aI124
aI36
aI24
aI0
aa(lp648
I15
aI132
aI140
aI3
aI0
aI0
aa(lp649
I49
aI192
aa(lp650
I15
aI182
aI21
aI70
aI227
aI32
aI0
aa(lp651
I131
aI224
aI1
aa(lp652
I193
aI224
aI6
aa(lp653
I131
aI226
aI191
aa(lp654
I9
aI208
aa(lp655
I168
aI64
aa(lp656
I136
aI5
aI51
aI227
aI32
aI0
aa(lp657
I116
aI5
aa(lp658
I232
aI48
aI50
aI0
aI0
aa(lp659
I139
aI61
aI234
aI194
aI32
aI0
aa(lp660
I141
aI71
aI253
aa(lp661
I131
aI248
aI5
aa(lp662
I15
aI135
aI182
aI12
aI0
aI0
aa(lp663
I72
aI141
aI21
aI243
aI126
aI0
aI0
aa(lp664
I72
aI99
aI4
aI130
aa(lp665
I72
aI1
aI208
aa(lp666
I255
aI224
aa(lp667
I186
aI146
aI0
aI0
aI0
aa(lp668
I72
aI15
aI163
aI194
aa(lp669
I15
aI131
aI64
aI255
aI255
aI255
aa(lp670
I72
aI141
aI61
aI168
aI194
aI32
aI0
aa(lp671
I232
aI227
aI38
aI0
aI0
aa(lp672
I133
aI192
aa(lp673
I15
aI132
aI44
aI255
aI255
aI255
aa(lp674
I131
aI124
aI36
aI8
aI0
aa(lp675
I199
aI5
aI212
aI226
aI32
aI0
aI0
aa(lp676
I0
aI0
aI0
aa(lp677
I15
aI132
aI73
aI255
aI255
aI255
aa(lp678
I199
aI5
aI196
aI226
aI32
aI0
aI3
aa(lp679
I0
aI0
aI0
aa(lp680
I233
aI58
aI255
aI255
aI255
aa(lp681
I184
aI1
aI0
aI0
aI0
aa(lp682
I233
aI152
aI251
aI255
aI255
aa(lp683
I49
aI210
aa(lp684
I49
aI246
aa(lp685
I232
aI100
aI247
aI255
aI255
aa(lp686
I133
aI192
aa(lp687
I15
aI133
aI134
aI12
aI0
aI0
aa(lp688
I49
aI192
aa(lp689
I72
aI139
aI156
aI36
aI56
aI1
aI0
aI0
aa(lp690
I100
aI72
aI51
aI28
aI37
aI40
aI0
aa(lp691
I0
aI0
aa(lp692
I15
aI133
aI104
aI12
aI0
aI0
aa(lp693
I72
aI129
aI196
aI72
aI1
aI0
aI0
aa(lp694
I91
aa(lp695
I93
aa(lp696
I65
aI92
aa(lp697
I65
aI93
aa(lp698
I65
aI94
aa(lp699
I65
aI95
aa(lp700
I195
aasg13
(I14272
I20574
tp701
sg14
I2
sg15
g16
ssS'fstat'
p702
(dp703
g7
g8
sg9
(lp704
sg11
(lp705
sg13
(tsg14
I2
sg15
g16
ssS'strtoll'
p706
(dp707
g7
g8
sg9
(lp708
sg11
(lp709
sg13
(tsg14
I0
sg15
g16
ssS'startswith'
p710
(dp711
g7
g8
sg9
(lp712
sg11
(lp713
sg13
(tsg14
I2
sg15
g16
ssS'getenv'
p714
(dp715
g7
g8
sg9
(lp716
sg11
(lp717
sg13
(tsg14
I0
sg15
g16
ssS'strappend'
p718
(dp719
g7
g8
sg9
(lp720
sg11
(lp721
(lp722
I83
aa(lp723
I49
aI210
aa(lp724
I72
aI137
aI251
aa(lp725
I72
aI131
aI236
aI16
aa(lp726
I72
aI133
aI246
aa(lp727
I116
aI21
aa(lp728
I72
aI137
aI247
aa(lp729
I72
aI137
aI116
aI36
aI8
aa(lp730
I232
aI4
aI167
aI255
aI255
aa(lp731
I72
aI139
aI116
aI36
aI8
aa(lp732
I72
aI137
aI194
aa(lp733
I72
aI131
aI196
aI16
aa(lp734
I72
aI137
aI223
aa(lp735
I91
aa(lp736
I233
aI239
aI254
aI255
aI255
aa(lp737
I15
aI31
aI68
aI0
aI0
aa(lp738
I102
aI46
aI15
aI31
aI132
aI0
aI0
aa(lp739
I0
aI0
aI0
aasg13
(I35664
I35713
tp740
sg14
I2
sg15
g16
ssS'dup2'
p741
(dp742
g7
g8
sg9
(lp743
sg11
(lp744
sg13
(tsg14
I0
sg15
g16
ssS'read'
p745
(dp746
g7
g8
sg9
(lp747
sg11
(lp748
sg13
(tsg14
I3
sg15
g16
ssS'strrchr'
p749
(dp750
g7
g8
sg9
(lp751
sg11
(lp752
sg13
(tsg14
I0
sg15
g16
ssS'unmangle'
p753
(dp754
g7
g8
sg9
(lp755
sg11
(lp756
(lp757
I72
aI133
aI255
aa(lp758
I65
aI84
aa(lp759
I72
aI137
aI248
aa(lp760
I85
aa(lp761
I83
aa(lp762
I116
aI116
aa(lp763
I15
aI31
aI64
aI0
aa(lp764
I15
aI182
aI16
aa(lp765
I246
aI194
aI223
aa(lp766
I116
aI80
aa(lp767
I128
aI250
aI9
aa(lp768
I116
aI75
aa(lp769
I72
aI131
aI192
aI1
aa(lp770
I117
aI237
aa(lp771
I189
aI1
aI0
aI0
aI0
aa(lp772
I72
aI41
aI253
aa(lp773
I72
aI133
aI246
aa(lp774
I116
aI8
aa(lp775
I72
aI137
aI6
aa(lp776
I72
aI57
aI199
aa(lp777
I116
aI72
aa(lp778
I72
aI137
aI251
aa(lp779
I72
aI137
aI239
aa(lp780
I232
aI221
aI203
aI255
aI255
aa(lp781
I72
aI133
aI192
aa(lp782
I73
aI137
aI196
aa(lp783
I116
aI14
aa(lp784
I72
aI137
aI234
aa(lp785
I72
aI137
aI198
aa(lp786
I72
aI137
aI223
aa(lp787
I232
aI183
aI253
aI255
aI255
aa(lp788
I76
aI137
aI224
aa(lp789
I91
aa(lp790
I93
aa(lp791
I65
aI92
aa(lp792
I195
aasg13
(I26896
I27035
tp793
sg14
I2
sg15
g16
ssS'has_command'
p794
(dp795
g7
g8
sg9
(lp796
sg11
(lp797
sg13
(tsg14
I1
sg15
g16
ssS'color_scheme_fenable'
p798
(dp799
g7
g8
sg9
(lp800
sg11
(lp801
(lp802
I83
aa(lp803
I72
aI137
aI211
aa(lp804
I232
aI199
aI254
aI255
aI255
aa(lp805
I72
aI133
aI192
aa(lp806
I116
aI18
aa(lp807
I72
aI137
aI222
aa(lp808
I72
aI137
aI199
aa(lp809
I91
aa(lp810
I233
aI150
aI254
aI255
aI255
aa(lp811
I102
aI15
aI31
aI68
aI0
aI0
aa(lp812
I91
aa(lp813
I195
aasg13
(I44592
I44626
tp814
sg14
I3
sg15
g16
ssS'__read_alias'
p815
(dp816
g7
g8
sg9
(lp817
sg11
(lp818
sg13
(tsg14
I0
sg15
g16
ssS'__asprintf_chk'
p819
(dp820
g7
g8
sg9
(lp821
sg11
(lp822
sg13
(tsg14
I0
sg15
g16
ssS'colors_init'
p823
(dp824
g7
g8
sg9
(lp825
sg11
(lp826
(lp827
I65
aI85
aa(lp828
I65
aI84
aa(lp829
I65
aI137
aI252
aa(lp830
I85
aa(lp831
I83
aa(lp832
I72
aI141
aI61
aI211
aI30
aI0
aI0
aa(lp833
I72
aI131
aI236
aI24
aa(lp834
I72
aI137
aI53
aI245
aI117
aI32
aI0
aa(lp835
I100
aI72
aI139
aI4
aI37
aI40
aI0
aa(lp836
I0
aI0
aa(lp837
I72
aI137
aI68
aI36
aI8
aa(lp838
I49
aI192
aa(lp839
I232
aI208
aI129
aI255
aI255
aa(lp840
I139
aI29
aI34
aI118
aI32
aI0
aa(lp841
I137
aI221
aa(lp842
I131
aI229
aI2
aa(lp843
I15
aI132
aI207
aI2
aI0
aI0
aa(lp844
I232
aI186
aI131
aI255
aI255
aa(lp845
I137
aI197
aa(lp846
I232
aI211
aI132
aI255
aI255
aa(lp847
I57
aI197
aa(lp848
I15
aI132
aI147
aI3
aI0
aI0
aa(lp849
I129
aI203
aI0
aI0
aI0
aI1
aa(lp850
I137
aI29
aI247
aI117
aI32
aI0
aa(lp851
I232
aI250
aI130
aI255
aI255
aa(lp852
I137
aI193
aa(lp853
I72
aI139
aI5
aI233
aI80
aI32
aI0
aa(lp854
I72
aI141
aI21
aI170
aI31
aI0
aI0
aa(lp855
I76
aI141
aI5
aI248
aI28
aI0
aI0
aa(lp856
I190
aI1
aI0
aI0
aI0
aa(lp857
I72
aI139
aI56
aa(lp858
I49
aI192
aa(lp859
I232
aI212
aI135
aI255
aI255
aa(lp860
I139
aI45
aI198
aI117
aI32
aI0
aa(lp861
I137
aI234
aa(lp862
I131
aI229
aI4
aa(lp863
I131
aI202
aI2
aa(lp864
I65
aI131
aI252
aI2
aa(lp865
I137
aI21
aI180
aI117
aI32
aI0
aa(lp866
I15
aI133
aI225
aI2
aI0
aI0
aa(lp867
I199
aI5
aI140
aI117
aI32
aI0
aI2
aa(lp868
I0
aI0
aI0
aa(lp869
I128
aI13
aI137
aI117
aI32
aI0
aI1
aa(lp870
I133
aI237
aa(lp871
I15
aI132
aI34
aI2
aI0
aI0
aa(lp872
I72
aI141
aI61
aI51
aI30
aI0
aI0
aa(lp873
I232
aI1
aI130
aI255
aI255
aa(lp874
I72
aI139
aI21
aI58
aI117
aI32
aI0
aa(lp875
I72
aI141
aI53
aI40
aI30
aI0
aI0
aa(lp876
I191
aI1
aI0
aI0
aI0
aa(lp877
I49
aI192
aa(lp878
I232
aI135
aI134
aI255
aI255
aa(lp879
I72
aI139
aI21
aI40
aI117
aI32
aI0
aa(lp880
I72
aI141
aI53
aI32
aI30
aI0
aI0
aa(lp881
I191
aI1
aI0
aI0
aI0
aa(lp882
I49
aI192
aa(lp883
I232
aI109
aI134
aI255
aI255
aa(lp884
I72
aI139
aI21
aI22
aI117
aI32
aI0
aa(lp885
I72
aI141
aI53
aI24
aI30
aI0
aI0
aa(lp886
I49
aI192
aa(lp887
I191
aI1
aI0
aI0
aI0
aa(lp888
I232
aI83
aI134
aI255
aI255
aa(lp889
I139
aI5
aI29
aI117
aI32
aI0
aa(lp890
I72
aI141
aI21
aI171
aI29
aI0
aI0
aa(lp891
I131
aI248
aI3
aa(lp892
I116
aI15
aa(lp893
I133
aI192
aa(lp894
I72
aI141
aI21
aI250
aI7
aI0
aI0
aa(lp895
I15
aI133
aI210
aI2
aI0
aI0
aa(lp896
I72
aI141
aI53
aI249
aI29
aI0
aI0
aa(lp897
I191
aI1
aI0
aI0
aI0
aa(lp898
I49
aI192
aa(lp899
I232
aI31
aI134
aI255
aI255
aa(lp900
I15
aI182
aI21
aI236
aI116
aI32
aI0
aa(lp901
I72
aI141
aI53
aI235
aI29
aI0
aI0
aa(lp902
I191
aI1
aI0
aI0
aI0
aa(lp903
I49
aI192
aa(lp904
I131
aI226
aI1
aa(lp905
I232
aI2
aI134
aI255
aI255
aa(lp906
I15
aI182
aI21
aI207
aI116
aI32
aI0
aa(lp907
I72
aI141
aI53
aI224
aI29
aI0
aI0
aa(lp908
I191
aI1
aI0
aI0
aI0
aa(lp909
I49
aI192
aa(lp910
I208
aI234
aa(lp911
I131
aI226
aI1
aa(lp912
I232
aI227
aI133
aI255
aI255
aa(lp913
I15
aI182
aI21
aI176
aI116
aI32
aI0
aa(lp914
I72
aI141
aI53
aI209
aI29
aI0
aI0
aa(lp915
I191
aI1
aI0
aI0
aI0
aa(lp916
I49
aI192
aa(lp917
I192
aI234
aI3
aa(lp918
I131
aI226
aI1
aa(lp919
I232
aI195
aI133
aI255
aI255
aa(lp920
I15
aI182
aI21
aI144
aI116
aI32
aI0
aa(lp921
I72
aI141
aI53
aI195
aI29
aI0
aI0
aa(lp922
I191
aI1
aI0
aI0
aI0
aa(lp923
I49
aI192
aa(lp924
I192
aI234
aI2
aa(lp925
I131
aI226
aI1
aa(lp926
I232
aI163
aI133
aI255
aI255
aa(lp927
I72
aI139
aI45
aI92
aI79
aI32
aI0
aa(lp928
I191
aI10
aI0
aI0
aI0
aa(lp929
I72
aI139
aI117
aI0
aa(lp930
I232
aI158
aI131
aI255
aI255
aa(lp931
I139
aI13
aI96
aI116
aI32
aI0
aa(lp932
I72
aI141
aI21
aI159
aI27
aI0
aI0
aa(lp933
I72
aI141
aI53
aI157
aI29
aI0
aI0
aa(lp934
I191
aI1
aI0
aI0
aI0
aa(lp935
I49
aI192
aa(lp936
I232
aI110
aI133
aI255
aI255
aa(lp937
I139
aI13
aI68
aI116
aI32
aI0
aa(lp938
I72
aI141
aI21
aI135
aI27
aI0
aI0
aa(lp939
I72
aI141
aI53
aI125
aI29
aI0
aI0
aa(lp940
I191
aI1
aI0
aI0
aI0
aa(lp941
I49
aI192
aa(lp942
I232
aI78
aI133
aI255
aI255
aa(lp943
I139
aI13
aI40
aI116
aI32
aI0
aa(lp944
I72
aI141
aI21
aI136
aI28
aI0
aI0
aa(lp945
I72
aI141
aI53
aI93
aI29
aI0
aI0
aa(lp946
I191
aI1
aI0
aI0
aI0
aa(lp947
I49
aI192
aa(lp948
I232
aI46
aI133
aI255
aI255
aa(lp949
I72
aI139
aI117
aI0
aa(lp950
I191
aI10
aI0
aI0
aI0
aa(lp951
I232
aI48
aI131
aI255
aI255
aa(lp952
I72
aI131
aI61
aI216
aI115
aI32
aI0
aI0
aa(lp953
I15
aI132
aI121
aI0
aI0
aI0
aa(lp954
I76
aI141
aI45
aI62
aI29
aI0
aI0
aa(lp955
I49
aI219
aa(lp956
I102
aI15
aI31
aI132
aI0
aI0
aI0
aa(lp957
I0
aI0
aa(lp958
I72
aI137
aI218
aa(lp959
I76
aI137
aI238
aa(lp960
I191
aI1
aI0
aI0
aI0
aa(lp961
I49
aI192
aa(lp962
I73
aI137
aI220
aa(lp963
I72
aI131
aI195
aI1
aa(lp964
I232
aI231
aI132
aI255
aI255
aa(lp965
I72
aI139
aI5
aI152
aI115
aI32
aI0
aa(lp966
I73
aI193
aI228
aI4
aa(lp967
I72
aI139
aI85
aI0
aa(lp968
I49
aI246
aa(lp969
I74
aI139
aI60
aI32
aa(lp970
I232
aI253
aI252
aI255
aI255
aa(lp971
I72
aI139
aI5
aI126
aI115
aI32
aI0
aa(lp972
I72
aI139
aI117
aI0
aa(lp973
I74
aI139
aI60
aI32
aa(lp974
I232
aI57
aI130
aI255
aI255
aa(lp975
I72
aI139
aI125
aI0
aa(lp976
I232
aI16
aI253
aI255
aI255
aa(lp977
I72
aI139
aI117
aI0
aa(lp978
I191
aI10
aI0
aI0
aI0
aa(lp979
I232
aI178
aI130
aI255
aI255
aa(lp980
I72
aI59
aI29
aI91
aI115
aI32
aI0
aa(lp981
I114
aI153
aa(lp982
I72
aI139
aI117
aI0
aa(lp983
I191
aI10
aI0
aI0
aI0
aa(lp984
I232
aI155
aI130
aI255
aI255
aa(lp985
I15
aI182
aI5
aI88
aI115
aI32
aI0
aa(lp986
I131
aI224
aI1
aa(lp987
I72
aI139
aI76
aI36
aI8
aa(lp988
I100
aI72
aI51
aI12
aI37
aI40
aI0
aa(lp989
I0
aI0
aa(lp990
I15
aI133
aI116
aI1
aI0
aI0
aa(lp991
I72
aI131
aI196
aI24
aa(lp992
I91
aa(lp993
I93
aa(lp994
I65
aI92
aa(lp995
I65
aI93
aa(lp996
I195
aasg13
(I44688
I45878
tp997
sg14
I2
sg15
g16
ssS'strtou32_or_err'
p998
(dp999
g7
g8
sg9
(lp1000
sg11
(lp1001
(lp1002
I186
aI10
aI0
aI0
aI0
aa(lp1003
I233
aI6
aI248
aI255
aI255
aa(lp1004
I102
aI15
aI31
aI68
aI0
aI0
aasg13
(I31456
I31466
tp1005
sg14
I2
sg15
g16
ssS'xstrmode'
p1006
(dp1007
g7
g8
sg9
(lp1008
sg11
(lp1009
(lp1010
I137
aI250
aa(lp1011
I65
aI85
aa(lp1012
I72
aI137
aI240
aa(lp1013
I129
aI226
aI0
aI240
aI0
aI0
aa(lp1014
I65
aI84
aa(lp1015
I76
aI141
aI110
aI1
aa(lp1016
I85
aa(lp1017
I76
aI141
aI102
aI2
aa(lp1018
I83
aa(lp1019
I72
aI141
aI110
aI3
aa(lp1020
I72
aI141
aI94
aI4
aa(lp1021
I76
aI141
aI94
aI5
aa(lp1022
I76
aI141
aI86
aI6
aa(lp1023
I76
aI141
aI70
aI7
aa(lp1024
I72
aI131
aI198
aI8
aa(lp1025
I129
aI250
aI0
aI64
aI0
aI0
aa(lp1026
I72
aI141
aI72
aI9
aa(lp1027
I15
aI132
aI135
aI1
aI0
aI0
aa(lp1028
I129
aI250
aI0
aI160
aI0
aI0
aa(lp1029
I116
aI95
aa(lp1030
I129
aI250
aI0
aI32
aI0
aI0
aa(lp1031
I15
aI132
aI147
aI1
aI0
aI0
aa(lp1032
I129
aI250
aI0
aI96
aI0
aI0
aa(lp1033
I15
aI132
aI119
aI1
aI0
aI0
aa(lp1034
I129
aI250
aI0
aI192
aI0
aI0
aa(lp1035
I15
aI132
aI139
aI1
aI0
aI0
aa(lp1036
I129
aI250
aI0
aI16
aI0
aI0
aa(lp1037
I15
aI132
aI143
aI1
aI0
aI0
aa(lp1038
I129
aI250
aI0
aI128
aI0
aI0
aa(lp1039
I15
aI132
aI147
aI1
aI0
aI0
aa(lp1040
I73
aI137
aI201
aa(lp1041
I72
aI137
aI241
aa(lp1042
I76
aI137
aI198
aa(lp1043
I77
aI137
aI208
aa(lp1044
I77
aI137
aI218
aa(lp1045
I73
aI137
aI219
aa(lp1046
I72
aI137
aI235
aa(lp1047
I76
aI137
aI229
aa(lp1048
I77
aI137
aI236
aa(lp1049
I73
aI137
aI197
aa(lp1050
I235
aI10
aa(lp1051
I15
aI31
aI0
aa(lp1052
I76
aI141
aI72
aI10
aa(lp1053
I198
aI0
aI108
aa(lp1054
I137
aI250
aa(lp1055
I129
aI226
aI0
aI1
aI0
aI0
aa(lp1056
I131
aI250
aI1
aa(lp1057
I25
aI210
aa(lp1058
I131
aI226
aI187
aa(lp1059
I131
aI194
aI114
aa(lp1060
I65
aI136
aI85
aI0
aa(lp1061
I137
aI250
aa(lp1062
I129
aI226
aI128
aI0
aI0
aI0
aa(lp1063
I131
aI250
aI1
aa(lp1064
I25
aI210
aa(lp1065
I131
aI226
aI182
aa(lp1066
I131
aI194
aI119
aa(lp1067
I65
aI136
aI20
aI36
aa(lp1068
I137
aI250
aa(lp1069
I131
aI226
aI64
aa(lp1070
I131
aI250
aI1
aa(lp1071
I25
aI210
aa(lp1072
I247
aI199
aI0
aI8
aI0
aI0
aa(lp1073
I15
aI132
aI157
aI0
aI0
aI0
aa(lp1074
I131
aI226
aI224
aa(lp1075
I131
aI194
aI115
aa(lp1076
I136
aI85
aI0
aa(lp1077
I137
aI250
aa(lp1078
I131
aI226
aI32
aa(lp1079
I131
aI250
aI1
aa(lp1080
I25
aI210
aa(lp1081
I131
aI226
aI187
aa(lp1082
I131
aI194
aI114
aa(lp1083
I136
aI19
aa(lp1084
I137
aI250
aa(lp1085
I131
aI226
aI16
aa(lp1086
I131
aI250
aI1
aa(lp1087
I25
aI210
aa(lp1088
I131
aI226
aI182
aa(lp1089
I131
aI194
aI119
aa(lp1090
I65
aI136
aI19
aa(lp1091
I137
aI250
aa(lp1092
I131
aI226
aI8
aa(lp1093
I131
aI250
aI1
aa(lp1094
I25
aI210
aa(lp1095
I247
aI199
aI0
aI4
aI0
aI0
aa(lp1096
I15
aI132
aI129
aI0
aI0
aI0
aa(lp1097
I131
aI226
aI224
aa(lp1098
I131
aI194
aI115
aa(lp1099
I65
aI136
aI18
aa(lp1100
I137
aI250
aa(lp1101
I131
aI226
aI4
aa(lp1102
I131
aI250
aI1
aa(lp1103
I25
aI210
aa(lp1104
I131
aI226
aI187
aa(lp1105
I131
aI194
aI114
aa(lp1106
I65
aI136
aI16
aa(lp1107
I137
aI250
aa(lp1108
I131
aI226
aI2
aa(lp1109
I131
aI250
aI1
aa(lp1110
I25
aI210
aa(lp1111
I131
aI226
aI182
aa(lp1112
I131
aI194
aI119
aa(lp1113
I136
aI22
aa(lp1114
I137
aI250
aa(lp1115
I131
aI226
aI1
aa(lp1116
I131
aI250
aI1
aa(lp1117
I25
aI210
aa(lp1118
I129
aI231
aI0
aI2
aI0
aI0
aa(lp1119
I116
aI41
aa(lp1120
I131
aI226
aI224
aa(lp1121
I131
aI194
aI116
aa(lp1122
I136
aI17
aa(lp1123
I65
aI198
aI1
aI0
aa(lp1124
I91
aa(lp1125
I93
aa(lp1126
I65
aI92
aa(lp1127
I65
aI93
aa(lp1128
I195
aasg13
(I32704
I33252
tp1129
sg14
I2
sg15
g16
ssS'_strtou32_or_err'
p1130
(dp1131
g7
g8
sg9
(lp1132
sg11
(lp1133
(lp1134
I85
aa(lp1135
I83
aa(lp1136
I72
aI137
aI245
aa(lp1137
I72
aI137
aI251
aa(lp1138
I72
aI131
aI236
aI8
aa(lp1139
I232
aI15
aI255
aI255
aI255
aa(lp1140
I186
aI255
aI255
aI255
aI255
aa(lp1141
I72
aI57
aI208
aa(lp1142
I119
aI7
aa(lp1143
I72
aI131
aI196
aI8
aa(lp1144
I91
aa(lp1145
I93
aa(lp1146
I195
aasg13
(tsg14
I3
sg15
g16
ssS'print_buffer'
p1147
(dp1148
g7
g8
sg9
(lp1149
sg11
(lp1150
sg13
(tsg14
I3
sg15
g16
ssS'memcpy'
p1151
(dp1152
g7
g8
sg9
(lp1153
sg11
(lp1154
sg13
(tsg14
I3
sg15
g16
ssS'get_exp'
p1155
(dp1156
g7
g8
sg9
(lp1157
sg11
(lp1158
sg13
(tsg14
I1
sg15
g16
ssS'fileno'
p1159
(dp1160
g7
g8
sg9
(lp1161
sg11
(lp1162
sg13
(tsg14
I0
sg15
g16
ssS'colors_on'
p1163
(dp1164
g7
g8
sg9
(lp1165
sg11
(lp1166
(lp1167
I128
aI37
aI29
aI120
aI32
aI0
aI253
aa(lp1168
I195
aasg13
(I44208
I44216
tp1169
sg14
I0
sg15
g16
ssS'strtox32_or_err'
p1170
(dp1171
g7
g8
sg9
(lp1172
sg11
(lp1173
(lp1174
I186
aI16
aI0
aI0
aI0
aa(lp1175
I233
aI246
aI247
aI255
aI255
aa(lp1176
I102
aI15
aI31
aI68
aI0
aI0
aasg13
(I31472
I31482
tp1177
sg14
I2
sg15
g16
ssS'init_kmsg'
p1178
(dp1179
g7
g8
sg9
(lp1180
sg11
(lp1181
sg13
(tsg14
I1
sg15
g16
ssS'__open_alias'
p1182
(dp1183
g7
g8
sg9
(lp1184
sg11
(lp1185
sg13
(tsg14
I0
sg15
g16
ssS'__stack_chk_fail'
p1186
(dp1187
g7
g8
sg9
(lp1188
sg11
(lp1189
sg13
(tsg14
I0
sg15
g16
ssS'parse_timestamp'
p1190
(dp1191
g7
g8
sg9
(lp1192
sg11
(lp1193
(lp1194
I65
aI87
aa(lp1195
I65
aI86
aa(lp1196
I65
aI85
aa(lp1197
I65
aI84
aa(lp1198
I85
aa(lp1199
I83
aa(lp1200
I72
aI129
aI236
aI152
aI0
aI0
aI0
aa(lp1201
I100
aI72
aI139
aI4
aI37
aI40
aI0
aa(lp1202
I0
aI0
aa(lp1203
I72
aI137
aI132
aI36
aI136
aI0
aI0
aI0
aa(lp1204
I49
aI192
aa(lp1205
I72
aI133
aI255
aa(lp1206
I72
aI199
aI68
aI36
aI64
aI0
aI0
aa(lp1207
I0
aI0
aa(lp1208
I72
aI199
aI68
aI36
aI72
aI0
aI0
aa(lp1209
I0
aI0
aa(lp1210
I15
aI132
aI214
aI7
aI0
aI0
aa(lp1211
I72
aI133
aI246
aa(lp1212
I72
aI137
aI245
aa(lp1213
I15
aI132
aI171
aI7
aI0
aI0
aa(lp1214
I73
aI137
aI254
aa(lp1215
I72
aI141
aI92
aI36
aI80
aa(lp1216
I49
aI255
aa(lp1217
I232
aI230
aI163
aI255
aI255
aa(lp1218
I72
aI141
aI124
aI36
aI56
aa(lp1219
I72
aI137
aI222
aa(lp1220
I72
aI137
aI68
aI36
aI56
aa(lp1221
I232
aI52
aI160
aI255
aI255
aa(lp1222
I72
aI141
aI61
aI13
aI57
aI0
aI0
aa(lp1223
I185
aI4
aI0
aI0
aI0
aa(lp1224
I76
aI137
aI246
aa(lp1225
I199
aI68
aI36
aI112
aI255
aI255
aI255
aa(lp1226
I255
aa(lp1227
I243
aI166
aa(lp1228
I15
aI151
aI192
aa(lp1229
I28
aI0
aa(lp1230
I132
aI192
aa(lp1231
I116
aI47
aa(lp1232
I72
aI141
aI61
aI239
aI56
aI0
aI0
aa(lp1233
I185
aI6
aI0
aI0
aI0
aa(lp1234
I76
aI137
aI246
aa(lp1235
I243
aI166
aa(lp1236
I15
aI151
aI192
aa(lp1237
I28
aI0
aa(lp1238
I132
aI192
aa(lp1239
I15
aI133
aI132
aI0
aI0
aI0
aa(lp1240
I72
aI199
aI68
aI36
aI80
aI0
aI0
aa(lp1241
I0
aI0
aa(lp1242
I199
aI68
aI36
aI88
aI0
aI0
aI0
aI0
aa(lp1243
I72
aI137
aI223
aa(lp1244
I232
aI107
aI164
aI255
aI255
aa(lp1245
I72
aI131
aI248
aI255
aa(lp1246
I72
aI137
aI68
aI36
aI56
aa(lp1247
I15
aI132
aI163
aI4
aI0
aI0
aa(lp1248
I72
aI105
aI192
aI64
aI66
aI15
aI0
aa(lp1249
I72
aI139
aI76
aI36
aI72
aa(lp1250
I72
aI3
aI68
aI36
aI64
aa(lp1251
I72
aI137
aI194
aa(lp1252
I72
aI41
aI202
aa(lp1253
I72
aI57
aI193
aa(lp1254
I184
aI0
aI0
aI0
aI0
aa(lp1255
I72
aI15
aI66
aI194
aa(lp1256
I72
aI137
aI69
aI0
aa(lp1257
I49
aI192
aa(lp1258
I72
aI139
aI156
aI36
aI136
aI0
aI0
aI0
aa(lp1259
I100
aI72
aI51
aI28
aI37
aI40
aI0
aa(lp1260
I0
aI0
aa(lp1261
I15
aI133
aI221
aI6
aI0
aI0
aa(lp1262
I72
aI129
aI196
aI152
aI0
aI0
aI0
aa(lp1263
I91
aa(lp1264
I93
aa(lp1265
I65
aI92
aa(lp1266
I65
aI93
aa(lp1267
I65
aI94
aa(lp1268
I65
aI95
aa(lp1269
I195
aasg13
(I37008
I39108
tp1270
sg14
I2
sg15
g16
ssS'skip_nonspaces'
p1271
(dp1272
g7
g8
sg9
(lp1273
sg11
(lp1274
sg13
(tsg14
I1
sg15
g16
ssS'close_stdout'
p1275
(dp1276
g7
g8
sg9
(lp1277
sg11
(lp1278
(lp1279
I85
aa(lp1280
I83
aa(lp1281
I72
aI131
aI236
aI8
aa(lp1282
I72
aI139
aI45
aI171
aI189
aI32
aI0
aa(lp1283
I232
aI126
aI205
aI255
aI255
aa(lp1284
I199
aI0
aI0
aI0
aI0
aI0
aa(lp1285
I72
aI137
aI195
aa(lp1286
I72
aI137
aI239
aa(lp1287
I232
aI221
aI205
aI255
aI255
aa(lp1288
I133
aI192
aa(lp1289
I116
aI121
aa(lp1290
I139
aI3
aa(lp1291
I131
aI248
aI9
aa(lp1292
I117
aI50
aa(lp1293
I72
aI139
aI45
aI155
aI189
aI32
aI0
aa(lp1294
I199
aI3
aI0
aI0
aI0
aI0
aa(lp1295
I72
aI137
aI239
aa(lp1296
I232
aI189
aI205
aI255
aI255
aa(lp1297
I133
aI192
aa(lp1298
I15
aI132
aI157
aI0
aI0
aI0
aa(lp1299
I131
aI59
aI9
aa(lp1300
I117
aI64
aa(lp1301
I72
aI131
aI196
aI8
aa(lp1302
I91
aa(lp1303
I93
aa(lp1304
I195
aasg13
(I25456
I25775
tp1305
sg14
I0
sg15
g16
ssS'iswspace'
p1306
(dp1307
g7
g8
sg9
(lp1308
sg11
(lp1309
sg13
(tsg14
I0
sg15
g16
ssS'string_to_bitmask'
p1310
(dp1311
g7
g8
sg9
(lp1312
sg11
(lp1313
(lp1314
I72
aI133
aI210
aa(lp1315
I65
aI86
aa(lp1316
I65
aI85
aa(lp1317
I65
aI84
aa(lp1318
I73
aI137
aI212
aa(lp1319
I15
aI148
aI194
aa(lp1320
I72
aI133
aI246
aa(lp1321
I85
aa(lp1322
I83
aa(lp1323
I15
aI148
aI192
aa(lp1324
I8
aI194
aa(lp1325
I15
aI133
aI179
aI0
aI0
aI0
aa(lp1326
I72
aI133
aI255
aa(lp1327
I72
aI137
aI251
aa(lp1328
I15
aI132
aI167
aI0
aI0
aI0
aa(lp1329
I15
aI182
aI7
aa(lp1330
I49
aI255
aa(lp1331
I73
aI137
aI246
aa(lp1332
I132
aI192
aa(lp1333
I15
aI132
aI140
aI0
aI0
aI0
aa(lp1334
I72
aI133
aI255
aa(lp1335
I72
aI15
aI68
aI251
aa(lp1336
I72
aI131
aI195
aI1
aa(lp1337
I60
aI44
aa(lp1338
I72
aI141
aI107
aI255
aa(lp1339
I73
aI137
aI221
aa(lp1340
I15
aI182
aI19
aa(lp1341
I116
aI68
aa(lp1342
I132
aI210
aa(lp1343
I117
aI96
aa(lp1344
I72
aI137
aI221
aa(lp1345
I72
aI57
aI239
aa(lp1346
I115
aI67
aa(lp1347
I72
aI137
aI238
aa(lp1348
I72
aI41
aI254
aa(lp1349
I65
aI255
aI212
aa(lp1350
I72
aI133
aI192
aa(lp1351
I120
aI58
aa(lp1352
I73
aI9
aI6
aa(lp1353
I72
aI133
aI237
aa(lp1354
I116
aI6
aa(lp1355
I128
aI125
aI0
aI0
aa(lp1356
I116
aI75
aa(lp1357
I15
aI182
aI3
aa(lp1358
I132
aI192
aa(lp1359
I116
aI68
aa(lp1360
I72
aI131
aI195
aI1
aa(lp1361
I60
aI44
aa(lp1362
I76
aI137
aI239
aa(lp1363
I72
aI141
aI107
aI255
aa(lp1364
I73
aI137
aI221
aa(lp1365
I15
aI182
aI19
aa(lp1366
I117
aI188
aa(lp1367
I132
aI210
aa(lp1368
I72
aI15
aI68
aI235
aa(lp1369
I72
aI57
aI239
aa(lp1370
I114
aI189
aa(lp1371
I184
aI255
aI255
aI255
aI255
aa(lp1372
I91
aa(lp1373
I93
aa(lp1374
I65
aI92
aa(lp1375
I65
aI93
aa(lp1376
I65
aI94
aa(lp1377
I195
aasg13
(I34624
I34841
tp1378
sg14
I3
sg15
g16
ssS'wait_for_pager_signal'
p1379
(dp1380
g7
g8
sg9
(lp1381
sg11
(lp1382
(lp1383
I139
aI5
aI226
aI182
aI32
aI0
aa(lp1384
I133
aI192
aa(lp1385
I117
aI6
aa(lp1386
I233
aI33
aI198
aI255
aI255
aa(lp1387
I144
aa(lp1388
I72
aI131
aI236
aI24
aa(lp1389
I137
aI124
aI36
aI12
aa(lp1390
I232
aI3
aI255
aI255
aI255
aa(lp1391
I139
aI124
aI36
aI12
aa(lp1392
I72
aI131
aI196
aI24
aa(lp1393
I233
aI6
aI198
aI255
aI255
aa(lp1394
I102
aI15
aI31
aI68
aI0
aI0
aasg13
(I27264
I27306
tp1395
sg14
I1
sg15
g16
ssS'gettime_monotonic'
p1396
(dp1397
g7
g8
sg9
(lp1398
sg11
(lp1399
(lp1400
I83
aa(lp1401
I72
aI137
aI251
aa(lp1402
I191
aI4
aI0
aI0
aI0
aa(lp1403
I72
aI131
aI236
aI32
aa(lp1404
I72
aI137
aI230
aa(lp1405
I100
aI72
aI139
aI4
aI37
aI40
aI0
aa(lp1406
I0
aI0
aa(lp1407
I72
aI137
aI68
aI36
aI24
aa(lp1408
I49
aI192
aa(lp1409
I232
aI187
aI207
aI255
aI255
aa(lp1410
I133
aI192
aa(lp1411
I137
aI193
aa(lp1412
I117
aI43
aa(lp1413
I72
aI139
aI4
aI36
aa(lp1414
I72
aI139
aI116
aI36
aI8
aa(lp1415
I72
aI186
aI207
aI247
aI83
aI227
aI165
aa(lp1416
I155
aI196
aI32
aa(lp1417
I72
aI137
aI3
aa(lp1418
I72
aI137
aI240
aa(lp1419
I72
aI193
aI254
aI63
aa(lp1420
I72
aI247
aI234
aa(lp1421
I72
aI193
aI250
aI7
aa(lp1422
I72
aI41
aI242
aa(lp1423
I72
aI137
aI83
aI8
aa(lp1424
I72
aI139
aI124
aI36
aI24
aa(lp1425
I100
aI72
aI51
aI60
aI37
aI40
aI0
aa(lp1426
I0
aI0
aa(lp1427
I137
aI200
aa(lp1428
I117
aI6
aa(lp1429
I72
aI131
aI196
aI32
aa(lp1430
I91
aa(lp1431
I195
aasg13
(I26048
I26163
tp1432
sg14
I1
sg15
g16
ssS'strcmp'
p1433
(dp1434
g7
g8
sg9
(lp1435
sg11
(lp1436
sg13
(tsg14
I0
sg15
g16
ssS'strncmp'
p1437
(dp1438
g7
g8
sg9
(lp1439
sg11
(lp1440
sg13
(tsg14
I0
sg15
g16
ssS'klogctl'
p1441
(dp1442
g7
g8
sg9
(lp1443
sg11
(lp1444
sg13
(tsg14
I0
sg15
g16
ssS'colors_reset'
p1445
(dp1446
g7
g8
sg9
(lp1447
sg11
(lp1448
sg13
(tsg14
I1
sg15
g16
ssS'get_boot_time'
p1449
(dp1450
g7
g8
sg9
(lp1451
sg11
(lp1452
(lp1453
I83
aa(lp1454
I72
aI137
aI251
aa(lp1455
I49
aI246
aa(lp1456
I72
aI129
aI236
aI160
aI0
aI0
aI0
aa(lp1457
I72
aI141
aI124
aI36
aI16
aa(lp1458
I100
aI72
aI139
aI4
aI37
aI40
aI0
aa(lp1459
I0
aI0
aa(lp1460
I72
aI137
aI132
aI36
aI152
aI0
aI0
aI0
aa(lp1461
I49
aI192
aa(lp1462
I232
aI134
aI206
aI255
aI255
aa(lp1463
I133
aI192
aa(lp1464
I116
aI50
aa(lp1465
I232
aI29
aI204
aI255
aI255
aa(lp1466
I139
aI8
aa(lp1467
I247
aI217
aa(lp1468
I72
aI139
aI156
aI36
aI152
aI0
aI0
aI0
aa(lp1469
I100
aI72
aI51
aI28
aI37
aI40
aI0
aa(lp1470
I0
aI0
aa(lp1471
I137
aI200
aa(lp1472
I15
aI133
aI174
aI0
aI0
aI0
aa(lp1473
I72
aI129
aI196
aI160
aI0
aI0
aI0
aa(lp1474
I91
aa(lp1475
I195
aasg13
(I25776
I26035
tp1476
sg14
I1
sg15
g16
ssS'snprintf'
p1477
(dp1478
g7
g8
sg9
(lp1479
sg11
(lp1480
sg13
(tsg14
I3
sg15
g16
ssS'fgetc'
p1481
(dp1482
g7
g8
sg9
(lp1483
sg11
(lp1484
sg13
(tsg14
I0
sg15
g16
ssS'memset'
p1485
(dp1486
g7
g8
sg9
(lp1487
sg11
(lp1488
sg13
(tsg14
I3
sg15
g16
ssS'which_time_format'
p1489
(dp1490
g7
g8
sg9
(lp1491
sg11
(lp1492
sg13
(tsg14
I1
sg15
g16
ssS'parse_size'
p1493
(dp1494
g7
g8
sg9
(lp1495
sg11
(lp1496
(lp1497
I65
aI87
aa(lp1498
I65
aI86
aa(lp1499
I73
aI137
aI255
aa(lp1500
I65
aI85
aa(lp1501
I65
aI84
aa(lp1502
I73
aI137
aI212
aa(lp1503
I85
aa(lp1504
I83
aa(lp1505
I72
aI137
aI245
aa(lp1506
I72
aI131
aI236
aI72
aa(lp1507
I72
aI199
aI6
aI0
aI0
aI0
aI0
aa(lp1508
I100
aI72
aI139
aI4
aI37
aI40
aI0
aa(lp1509
I0
aI0
aa(lp1510
I72
aI137
aI68
aI36
aI56
aa(lp1511
I49
aI192
aa(lp1512
I232
aI157
aI189
aI255
aI255
aa(lp1513
I77
aI133
aI255
aa(lp1514
I72
aI137
aI195
aa(lp1515
I116
aI61
aa(lp1516
I69
aI15
aI182
aI55
aa(lp1517
I69
aI132
aI246
aa(lp1518
I116
aI52
aa(lp1519
I232
aI231
aI195
aI255
aI255
aa(lp1520
I73
aI137
aI197
aa(lp1521
I72
aI139
aI8
aa(lp1522
I76
aI137
aI248
aa(lp1523
I235
aI12
aa(lp1524
I15
aI31
aI64
aI0
aa(lp1525
I72
aI131
aI192
aI1
aa(lp1526
I68
aI15
aI182
aI48
aa(lp1527
I65
aI15
aI182
aI214
aa(lp1528
I246
aI68
aI81
aI1
aI32
aa(lp1529
I117
aI237
aa(lp1530
I65
aI128
aI254
aI45
aa(lp1531
I117
aI63
aa(lp1532
I15
aI31
aI128
aI0
aI0
aI0
aI0
aa(lp1533
I184
aI22
aI0
aI0
aI0
aa(lp1534
I185
aI234
aI255
aI255
aI255
aa(lp1535
I137
aI3
aa(lp1536
I72
aI139
aI124
aI36
aI56
aa(lp1537
I100
aI72
aI51
aI60
aI37
aI40
aI0
aa(lp1538
I0
aI0
aa(lp1539
I137
aI200
aa(lp1540
I15
aI133
aI19
aI4
aI0
aI0
aa(lp1541
I72
aI131
aI196
aI72
aa(lp1542
I91
aa(lp1543
I93
aa(lp1544
I65
aI92
aa(lp1545
I65
aI93
aa(lp1546
I65
aI94
aa(lp1547
I65
aI95
aa(lp1548
I195
aasg13
(I29488
I30690
tp1549
sg14
I3
sg15
g16
ssS'readdir'
p1550
(dp1551
g7
g8
sg9
(lp1552
sg11
(lp1553
sg13
(tsg14
I0
sg15
g16
ssS'colors_debug'
p1554
(dp1555
g7
g8
sg9
(lp1556
sg11
(lp1557
sg13
(tsg14
I1
sg15
g16
ssS'atexit'
p1558
(dp1559
g7
g8
sg9
(lp1560
sg11
(lp1561
(lp1562
I72
aI139
aI21
aI225
aI74
aI32
aI0
aa(lp1563
I49
aI246
aa(lp1564
I233
aI114
aI129
aI255
aI255
aasg13
(tsg14
I0
sg15
g16
ssS'strtod'
p1565
(dp1566
g7
g8
sg9
(lp1567
sg11
(lp1568
sg13
(tsg14
I0
sg15
g16
ssS'fgets'
p1569
(dp1570
g7
g8
sg9
(lp1571
sg11
(lp1572
sg13
(tsg14
I3
sg15
g16
ssS'close'
p1573
(dp1574
g7
g8
sg9
(lp1575
sg11
(lp1576
sg13
(tsg14
I0
sg15
g16
ssS'getgid'
p1577
(dp1578
g7
g8
sg9
(lp1579
sg11
(lp1580
sg13
(tsg14
I0
sg15
g16
ssS'colors_add_scheme'
p1581
(dp1582
g7
g8
sg9
(lp1583
sg11
(lp1584
sg13
(tsg14
I3
sg15
g16
ssS'time'
p1585
(dp1586
g7
g8
sg9
(lp1587
sg11
(lp1588
sg13
(tsg14
I0
sg15
g16
ssS'strutils_set_exitcode'
p1589
(dp1590
g7
g8
sg9
(lp1591
sg11
(lp1592
(lp1593
I137
aI61
aI218
aI173
aI32
aI0
aa(lp1594
I195
aasg13
(I29472
I29479
tp1595
sg14
I1
sg15
g16
ssS'ul_debug_parse_mask'
p1596
(dp1597
g7
g8
sg9
(lp1598
sg11
(lp1599
sg13
(tsg14
I2
sg15
g16
ssS'strchr'
p1600
(dp1601
g7
g8
sg9
(lp1602
sg11
(lp1603
sg13
(tsg14
I0
sg15
g16
ssS'parse_facility'
p1604
(dp1605
g7
g8
sg9
(lp1606
sg11
(lp1607
(lp1608
I65
aI87
aa(lp1609
I65
aI86
aa(lp1610
I65
aI85
aa(lp1611
I65
aI84
aa(lp1612
I85
aa(lp1613
I83
aa(lp1614
I72
aI131
aI236
aI24
aa(lp1615
I100
aI72
aI139
aI4
aI37
aI40
aI0
aa(lp1616
I0
aI0
aa(lp1617
I72
aI137
aI68
aI36
aI8
aa(lp1618
I49
aI192
aa(lp1619
I72
aI133
aI255
aa(lp1620
I15
aI132
aI66
aI1
aI0
aI0
aa(lp1621
I72
aI133
aI246
aa(lp1622
I73
aI137
aI253
aa(lp1623
I73
aI137
aI244
aa(lp1624
I15
aI132
aI154
aI0
aI0
aI0
aa(lp1625
I232
aI149
aI222
aI255
aI255
aa(lp1626
I199
aI0
aI0
aI0
aI0
aI0
aa(lp1627
I73
aI137
aI198
aa(lp1628
I49
aI219
aa(lp1629
I232
aI229
aI228
aI255
aI255
aa(lp1630
I73
aI15
aI190
aI85
aI0
aa(lp1631
I72
aI139
aI0
aa(lp1632
I72
aI141
aI45
aI186
aI98
aI0
aI0
aa(lp1633
I76
aI141
aI61
aI207
aI161
aI32
aI0
aa(lp1634
I246
aI68
aI80
aI1
aI8
aa(lp1635
I116
aI19
aa(lp1636
I235
aI118
aa(lp1637
I102
aI15
aI31
aI68
aI0
aI0
aa(lp1638
I72
aI137
aI216
aa(lp1639
I72
aI193
aI224
aI4
aa(lp1640
I73
aI139
aI44
aI7
aa(lp1641
I76
aI137
aI226
aa(lp1642
I72
aI137
aI238
aa(lp1643
I76
aI137
aI239
aa(lp1644
I232
aI135
aI226
aI255
aI255
aa(lp1645
I133
aI192
aa(lp1646
I117
aI12
aa(lp1647
I66
aI128
aI124
aI37
aI0
aI0
aa(lp1648
I15
aI132
aI175
aI0
aI0
aI0
aa(lp1649
I72
aI131
aI195
aI1
aa(lp1650
I72
aI131
aI251
aI12
aa(lp1651
I117
aI205
aa(lp1652
I72
aI141
aI53
aI111
aI98
aI0
aI0
aa(lp1653
I186
aI5
aI0
aI0
aI0
aa(lp1654
I49
aI255
aa(lp1655
I232
aI122
aI223
aI255
aI255
aa(lp1656
I76
aI137
aI234
aa(lp1657
I72
aI137
aI198
aa(lp1658
I191
aI1
aI0
aI0
aI0
aa(lp1659
I49
aI192
aa(lp1660
I232
aI200
aI223
aI255
aI255
aa(lp1661
I15
aI31
aI132
aI0
aI0
aI0
aI0
aI0
aa(lp1662
I232
aI107
aI223
aI255
aI255
aa(lp1663
I73
aI137
aI196
aa(lp1664
I233
aI89
aI255
aI255
aI255
aa(lp1665
I15
aI31
aI0
aa(lp1666
I186
aI10
aI0
aI0
aI0
aa(lp1667
I72
aI137
aI230
aa(lp1668
I76
aI137
aI239
aa(lp1669
I72
aI199
aI4
aI36
aI0
aI0
aI0
aI0
aa(lp1670
I232
aI120
aI225
aI255
aI255
aa(lp1671
I65
aI139
aI22
aa(lp1672
I133
aI210
aa(lp1673
I117
aI33
aa(lp1674
I72
aI139
aI20
aI36
aa(lp1675
I72
aI133
aI210
aa(lp1676
I116
aI155
aa(lp1677
I76
aI57
aI234
aa(lp1678
I118
aI150
aa(lp1679
I76
aI41
aI234
aa(lp1680
I76
aI57
aI226
aa(lp1681
I117
aI142
aa(lp1682
I72
aI131
aI248
aI11
aa(lp1683
I119
aI136
aa(lp1684
I235
aI45
aa(lp1685
I15
aI31
aI0
aa(lp1686
I72
aI141
aI53
aI8
aI98
aI0
aI0
aa(lp1687
I186
aI5
aI0
aI0
aI0
aa(lp1688
I49
aI255
aa(lp1689
I232
aI253
aI222
aI255
aI255
aa(lp1690
I76
aI137
aI234
aa(lp1691
I72
aI137
aI198
aa(lp1692
I191
aI1
aI0
aI0
aI0
aa(lp1693
I49
aI192
aa(lp1694
I232
aI171
aI225
aI255
aI255
aa(lp1695
I15
aI31
aI0
aa(lp1696
I137
aI216
aa(lp1697
I72
aI139
aI76
aI36
aI8
aa(lp1698
I100
aI72
aI51
aI12
aI37
aI40
aI0
aa(lp1699
I0
aI0
aa(lp1700
I117
aI22
aa(lp1701
I72
aI131
aI196
aI24
aa(lp1702
I91
aa(lp1703
I93
aa(lp1704
I65
aI92
aa(lp1705
I65
aI93
aa(lp1706
I65
aI94
aa(lp1707
I65
aI95
aa(lp1708
I195
aasg13
(I21040
I21413
tp1709
sg14
I2
sg15
g16
ssS'streq_paths'
p1710
(dp1711
g7
g8
sg9
(lp1712
sg11
(lp1713
(lp1714
I65
aI87
aa(lp1715
I65
aI86
aa(lp1716
I65
aI85
aa(lp1717
I65
aI84
aa(lp1718
I85
aa(lp1719
I83
aa(lp1720
I72
aI131
aI236
aI40
aa(lp1721
I100
aI72
aI139
aI4
aI37
aI40
aI0
aa(lp1722
I0
aI0
aa(lp1723
I72
aI137
aI68
aI36
aI24
aa(lp1724
I49
aI192
aa(lp1725
I72
aI133
aI246
aa(lp1726
I15
aI132
aI185
aI0
aI0
aI0
aa(lp1727
I72
aI133
aI255
aa(lp1728
I15
aI132
aI176
aI0
aI0
aI0
aa(lp1729
I72
aI137
aI243
aa(lp1730
I76
aI141
aI116
aI36
aI8
aa(lp1731
I76
aI141
aI108
aI36
aI16
aa(lp1732
I235
aI65
aa(lp1733
I144
aa(lp1734
I77
aI133
aI228
aa(lp1735
I15
aI148
aI194
aa(lp1736
I72
aI133
aI219
aa(lp1737
I15
aI148
aI192
aa(lp1738
I8
aI194
aa(lp1739
I15
aI133
aI140
aI0
aI0
aI0
aa(lp1740
I76
aI57
aI253
aa(lp1741
I15
aI133
aI131
aI0
aI0
aI0
aa(lp1742
I72
aI137
aI234
aa(lp1743
I72
aI137
aI222
aa(lp1744
I76
aI137
aI231
aa(lp1745
I232
aI85
aI167
aI255
aI255
aa(lp1746
I133
aI192
aa(lp1747
I117
aI113
aa(lp1748
I76
aI1
aI251
aa(lp1749
I73
aI141
aI60
aI44
aa(lp1750
I73
aI1
aI236
aa(lp1751
I116
aI101
aa(lp1752
I72
aI133
aI219
aa(lp1753
I116
aI96
aa(lp1754
I76
aI137
aI246
aa(lp1755
I232
aI8
aI231
aI255
aI255
aa(lp1756
I72
aI137
aI223
aa(lp1757
I76
aI137
aI238
aa(lp1758
I73
aI137
aI196
aa(lp1759
I232
aI250
aI230
aI255
aI255
aa(lp1760
I72
aI139
aI108
aI36
aI8
aa(lp1761
I76
aI139
aI124
aI36
aI16
aa(lp1762
I72
aI137
aI195
aa(lp1763
I72
aI137
aI232
aa(lp1764
I76
aI1
aI248
aa(lp1765
I116
aI37
aa(lp1766
I72
aI131
aI248
aI1
aa(lp1767
I117
aI143
aa(lp1768
I77
aI133
aI228
aa(lp1769
I116
aI7
aa(lp1770
I65
aI128
aI60
aI36
aI47
aa(lp1771
I116
aI19
aa(lp1772
I72
aI133
aI219
aa(lp1773
I116
aI30
aa(lp1774
I128
aI59
aI47
aa(lp1775
I15
aI133
aI117
aI255
aI255
aI255
aa(lp1776
I15
aI31
aI68
aI0
aI0
aa(lp1777
I184
aI1
aI0
aI0
aI0
aa(lp1778
I235
aI11
aa(lp1779
I102
aI15
aI31
aI132
aI0
aI0
aI0
aa(lp1780
I0
aI0
aa(lp1781
I49
aI192
aa(lp1782
I72
aI139
aI76
aI36
aI24
aa(lp1783
I100
aI72
aI51
aI12
aI37
aI40
aI0
aa(lp1784
I0
aI0
aa(lp1785
I117
aI15
aa(lp1786
I72
aI131
aI196
aI40
aa(lp1787
I91
aa(lp1788
I93
aa(lp1789
I65
aI92
aa(lp1790
I65
aI93
aa(lp1791
I65
aI94
aa(lp1792
I65
aI95
aa(lp1793
I195
aasg13
(I35168
I35430
tp1794
sg14
I2
sg15
g16
ssS'color_sequence_from_colorname'
p1795
(dp1796
g7
g8
sg9
(lp1797
sg11
(lp1798
(lp1799
I72
aI133
aI255
aa(lp1800
I15
aI132
aI136
aI0
aI0
aI0
aa(lp1801
I65
aI87
aa(lp1802
I65
aI86
aa(lp1803
I65
aI191
aI21
aI0
aI0
aI0
aa(lp1804
I65
aI85
aa(lp1805
I65
aI84
aa(lp1806
I73
aI137
aI253
aa(lp1807
I85
aa(lp1808
I83
aa(lp1809
I69
aI49
aI228
aa(lp1810
I76
aI141
aI53
aI186
aI68
aI32
aI0
aa(lp1811
I72
aI131
aI236
aI8
aa(lp1812
I235
aI12
aa(lp1813
I15
aI31
aI64
aI0
aa(lp1814
I76
aI57
aI227
aa(lp1815
I118
aI75
aa(lp1816
I73
aI137
aI223
aa(lp1817
I75
aI141
aI28
aI60
aa(lp1818
I76
aI137
aI239
aa(lp1819
I72
aI209
aI235
aa(lp1820
I72
aI137
aI221
aa(lp1821
I72
aI193
aI229
aI4
aa(lp1822
I76
aI1
aI245
aa(lp1823
I72
aI139
aI117
aI0
aa(lp1824
I232
aI27
aI128
aI255
aI255
aa(lp1825
I133
aI192
aa(lp1826
I120
aI215
aa(lp1827
I116
aI14
aa(lp1828
I76
aI141
aI99
aI1
aa(lp1829
I77
aI57
aI252
aa(lp1830
I115
aI28
aa(lp1831
I76
aI137
aI251
aa(lp1832
I235
aI204
aa(lp1833
I72
aI139
aI69
aI8
aa(lp1834
I72
aI131
aI196
aI8
aa(lp1835
I91
aa(lp1836
I93
aa(lp1837
I65
aI92
aa(lp1838
I65
aI93
aa(lp1839
I65
aI94
aa(lp1840
I65
aI95
aa(lp1841
I195
aasg13
(I46080
I46228
tp1842
sg14
I1
sg15
g16
ssS'parse_range'
p1843
(dp1844
g7
g8
sg9
(lp1845
sg11
(lp1846
(lp1847
I65
aI87
aa(lp1848
I65
aI86
aa(lp1849
I65
aI85
aa(lp1850
I65
aI84
aa(lp1851
I85
aa(lp1852
I83
aa(lp1853
I72
aI131
aI236
aI24
aa(lp1854
I100
aI72
aI139
aI4
aI37
aI40
aI0
aa(lp1855
I0
aI0
aa(lp1856
I72
aI137
aI68
aI36
aI8
aa(lp1857
I49
aI192
aa(lp1858
I72
aI133
aI255
aa(lp1859
I72
aI199
aI4
aI36
aI0
aI0
aI0
aI0
aa(lp1860
I116
aI112
aa(lp1861
I73
aI137
aI247
aa(lp1862
I72
aI137
aI213
aa(lp1863
I72
aI137
aI251
aa(lp1864
I65
aI137
aI15
aa(lp1865
I137
aI77
aI0
aa(lp1866
I65
aI137
aI205
aa(lp1867
I232
aI158
aI168
aI255
aI255
aa(lp1868
I199
aI0
aI0
aI0
aI0
aI0
aa(lp1869
I128
aI59
aI58
aa(lp1870
I73
aI137
aI198
aa(lp1871
I116
aI112
aa(lp1872
I73
aI137
aI228
aa(lp1873
I186
aI10
aI0
aI0
aI0
aa(lp1874
I72
aI137
aI223
aa(lp1875
I76
aI137
aI230
aa(lp1876
I232
aI29
aI172
aI255
aI255
aa(lp1877
I65
aI137
aI7
aa(lp1878
I137
aI69
aI0
aa(lp1879
I65
aI139
aI6
aa(lp1880
I133
aI192
aa(lp1881
I15
aI133
aI188
aI0
aI0
aI0
aa(lp1882
I72
aI139
aI60
aI36
aa(lp1883
I72
aI57
aI223
aa(lp1884
I15
aI132
aI175
aI0
aI0
aI0
aa(lp1885
I72
aI133
aI255
aa(lp1886
I15
aI132
aI166
aI0
aI0
aI0
aa(lp1887
I15
aI182
aI23
aa(lp1888
I128
aI250
aI58
aa(lp1889
I15
aI132
aI138
aI0
aI0
aI0
aa(lp1890
I128
aI250
aI45
aa(lp1891
I116
aI101
aa(lp1892
I49
aI192
aa(lp1893
I72
aI139
aI76
aI36
aI8
aa(lp1894
I100
aI72
aI51
aI12
aI37
aI40
aI0
aa(lp1895
I0
aI0
aa(lp1896
I15
aI133
aI137
aI0
aI0
aI0
aa(lp1897
I72
aI131
aI196
aI24
aa(lp1898
I91
aa(lp1899
I93
aa(lp1900
I65
aI92
aa(lp1901
I65
aI93
aa(lp1902
I65
aI94
aa(lp1903
I65
aI95
aa(lp1904
I195
aasg13
(I34848
I35167
tp1905
sg14
I4
sg15
g16
ssS'strtou64_or_err'
p1906
(dp1907
g7
g8
sg9
(lp1908
sg11
(lp1909
(lp1910
I186
aI10
aI0
aI0
aI0
aa(lp1911
I233
aI150
aI245
aI255
aI255
aa(lp1912
I102
aI15
aI31
aI68
aI0
aI0
aasg13
(I31856
I31866
tp1913
sg14
I2
sg15
g16
ssS'finish_command'
p1914
(dp1915
g7
g8
sg9
(lp1916
sg11
(lp1917
sg13
(tsg14
I1
sg15
g16
ssS'colormode_or_err'
p1918
(dp1919
g7
g8
sg9
(lp1920
sg11
(lp1921
(lp1922
I85
aa(lp1923
I83
aa(lp1924
I72
aI137
aI245
aa(lp1925
I72
aI137
aI251
aa(lp1926
I72
aI131
aI236
aI8
aa(lp1927
I72
aI133
aI255
aa(lp1928
I116
aI11
aa(lp1929
I49
aI192
aa(lp1930
I128
aI63
aI61
aa(lp1931
I15
aI148
aI192
aa(lp1932
I72
aI1
aI195
aa(lp1933
I72
aI137
aI223
aa(lp1934
I232
aI108
aI255
aI255
aI255
aa(lp1935
I133
aI192
aa(lp1936
I120
aI7
aa(lp1937
I72
aI131
aI196
aI8
aa(lp1938
I91
aa(lp1939
I93
aa(lp1940
I195
aasg13
(I46000
I46072
tp1941
sg14
I2
sg15
g16
ssS'color_disable'
p1942
(dp1943
g7
g8
sg9
(lp1944
sg11
(lp1945
sg13
(tsg14
I0
sg15
g16
ssS'time_is_thisyear'
p1946
(dp1947
g7
g8
sg9
(lp1948
sg11
(lp1949
sg13
(tsg14
I2
sg15
g16
ssS'mmap_file_buffer'
p1950
(dp1951
g7
g8
sg9
(lp1952
sg11
(lp1953
sg13
(tsg14
I2
sg15
g16
ssS'exit'
p1954
(dp1955
g7
g8
sg9
(lp1956
sg11
(lp1957
sg13
(tsg14
I0
sg15
g16
ssS'strncpy'
p1958
(dp1959
g7
g8
sg9
(lp1960
sg11
(lp1961
sg13
(tsg14
I3
sg15
g16
ssS'strtos16_or_err'
p1962
(dp1963
g7
g8
sg9
(lp1964
sg11
(lp1965
(lp1966
I85
aa(lp1967
I83
aa(lp1968
I72
aI137
aI253
aa(lp1969
I72
aI137
aI243
aa(lp1970
I72
aI131
aI236
aI8
aa(lp1971
I232
aI159
aI255
aI255
aI255
aa(lp1972
I141
aI144
aI0
aI128
aI0
aI0
aa(lp1973
I129
aI250
aI255
aI255
aI0
aI0
aa(lp1974
I119
aI7
aa(lp1975
I72
aI131
aI196
aI8
aa(lp1976
I91
aa(lp1977
I93
aa(lp1978
I195
aasg13
(I31776
I31851
tp1979
sg14
I2
sg15
g16
ssS'__ctype_b_loc'
p1980
(dp1981
g7
g8
sg9
(lp1982
sg11
(lp1983
sg13
(tsg14
I0
sg15
g16
ssS'accept_record'
p1984
(dp1985
g7
g8
sg9
(lp1986
sg11
(lp1987
sg13
(tsg14
I2
sg15
g16
ssS'string_to_bitarray'
p1988
(dp1989
g7
g8
sg9
(lp1990
sg11
(lp1991
(lp1992
I65
aI87
aa(lp1993
I65
aI86
aa(lp1994
I65
aI85
aa(lp1995
I65
aI84
aa(lp1996
I73
aI137
aI212
aa(lp1997
I85
aa(lp1998
I83
aa(lp1999
I72
aI131
aI236
aI8
aa(lp2000
I72
aI133
aI210
aa(lp2001
I15
aI148
aI194
aa(lp2002
I72
aI133
aI246
aa(lp2003
I15
aI148
aI192
aa(lp2004
I8
aI194
aa(lp2005
I15
aI133
aI211
aI0
aI0
aI0
aa(lp2006
I72
aI133
aI255
aa(lp2007
I72
aI137
aI251
aa(lp2008
I15
aI132
aI199
aI0
aI0
aI0
aa(lp2009
I15
aI182
aI7
aa(lp2010
I49
aI255
aa(lp2011
I73
aI137
aI246
aa(lp2012
I65
aI189
aI1
aI0
aI0
aI0
aa(lp2013
I132
aI192
aa(lp2014
I15
aI132
aI160
aI0
aI0
aI0
aa(lp2015
I72
aI133
aI255
aa(lp2016
I72
aI15
aI68
aI251
aa(lp2017
I72
aI131
aI195
aI1
aa(lp2018
I60
aI44
aa(lp2019
I72
aI141
aI107
aI255
aa(lp2020
I73
aI137
aI223
aa(lp2021
I15
aI182
aI19
aa(lp2022
I116
aI86
aa(lp2023
I132
aI210
aa(lp2024
I117
aI116
aa(lp2025
I72
aI137
aI221
aa(lp2026
I72
aI57
aI239
aa(lp2027
I115
aI85
aa(lp2028
I72
aI137
aI238
aa(lp2029
I72
aI41
aI254
aa(lp2030
I65
aI255
aI212
aa(lp2031
I133
aI192
aa(lp2032
I120
aI77
aa(lp2033
I137
aI194
aa(lp2034
I131
aI224
aI7
aa(lp2035
I68
aI137
aI238
aa(lp2036
I193
aI250
aI3
aa(lp2037
I137
aI193
aa(lp2038
I72
aI99
aI210
aa(lp2039
I211
aI230
aa(lp2040
I65
aI8
aI52
aI22
aa(lp2041
I72
aI133
aI237
aa(lp2042
I116
aI6
aa(lp2043
I128
aI125
aI0
aI0
aa(lp2044
I116
aI77
aa(lp2045
I15
aI182
aI3
aa(lp2046
I132
aI192
aa(lp2047
I116
aI70
aa(lp2048
I72
aI131
aI195
aI1
aa(lp2049
I60
aI44
aa(lp2050
I76
aI137
aI255
aa(lp2051
I72
aI141
aI107
aI255
aa(lp2052
I73
aI137
aI223
aa(lp2053
I15
aI182
aI19
aa(lp2054
I117
aI170
aa(lp2055
I132
aI210
aa(lp2056
I72
aI15
aI68
aI235
aa(lp2057
I72
aI57
aI239
aa(lp2058
I114
aI171
aa(lp2059
I184
aI255
aI255
aI255
aI255
aa(lp2060
I72
aI131
aI196
aI8
aa(lp2061
I91
aa(lp2062
I93
aa(lp2063
I65
aI92
aa(lp2064
I65
aI93
aa(lp2065
I65
aI94
aa(lp2066
I65
aI95
aa(lp2067
I195
aasg13
(I34368
I34623
tp2068
sg14
I3
sg15
g16
ssS'strnappend'
p2069
(dp2070
g7
g8
sg9
(lp2071
sg11
(lp2072
(lp2073
I65
aI87
aa(lp2074
I65
aI86
aa(lp2075
I65
aI85
aa(lp2076
I65
aI84
aa(lp2077
I73
aI137
aI245
aa(lp2078
I85
aa(lp2079
I83
aa(lp2080
I72
aI131
aI236
aI8
aa(lp2081
I72
aI133
aI255
aa(lp2082
I117
aI5
aa(lp2083
I72
aI133
aI246
aa(lp2084
I116
aI117
aa(lp2085
I72
aI133
aI255
aa(lp2086
I15
aI132
aI148
aI0
aI0
aI0
aa(lp2087
I77
aI133
aI237
aa(lp2088
I116
aI110
aa(lp2089
I73
aI137
aI212
aa(lp2090
I72
aI137
aI251
aa(lp2091
I232
aI204
aI167
aI255
aI255
aa(lp2092
I72
aI137
aI197
aa(lp2093
I72
aI247
aI208
aa(lp2094
I73
aI57
aI196
aa(lp2095
I119
aI113
aa(lp2096
I77
aI141
aI52
aI44
aa(lp2097
I73
aI141
aI126
aI1
aa(lp2098
I232
aI116
aI170
aI255
aI255
aa(lp2099
I72
aI133
aI192
aa(lp2100
I73
aI137
aI199
aa(lp2101
I116
aI34
aa(lp2102
I72
aI137
aI234
aa(lp2103
I72
aI137
aI222
aa(lp2104
I72
aI137
aI199
aa(lp2105
I232
aI238
aI169
aI255
aI255
aa(lp2106
I73
aI141
aI60
aI47
aa(lp2107
I76
aI137
aI226
aa(lp2108
I76
aI137
aI238
aa(lp2109
I232
aI223
aI169
aI255
aI255
aa(lp2110
I67
aI198
aI4
aI55
aI0
aa(lp2111
I72
aI131
aI196
aI8
aa(lp2112
I76
aI137
aI248
aa(lp2113
I91
aa(lp2114
I93
aa(lp2115
I65
aI92
aa(lp2116
I65
aI93
aa(lp2117
I65
aI94
aa(lp2118
I65
aI95
aa(lp2119
I195
aasg13
(tsg14
I3
sg15
g16
ssS'munmap'
p2120
(dp2121
g7
g8
sg9
(lp2122
sg11
(lp2123
sg13
(tsg14
I0
sg15
g16
ssS'ferror'
p2124
(dp2125
g7
g8
sg9
(lp2126
sg11
(lp2127
sg13
(tsg14
I0
sg15
g16
ssS'strtol_or_err'
p2128
(dp2129
g7
g8
sg9
(lp2130
sg11
(lp2131
(lp2132
I65
aI84
aa(lp2133
I85
aa(lp2134
I73
aI137
aI244
aa(lp2135
I83
aa(lp2136
I72
aI137
aI251
aa(lp2137
I72
aI131
aI236
aI16
aa(lp2138
I100
aI72
aI139
aI4
aI37
aI40
aI0
aa(lp2139
I0
aI0
aa(lp2140
I72
aI137
aI68
aI36
aI8
aa(lp2141
I49
aI192
aa(lp2142
I72
aI199
aI4
aI36
aI0
aI0
aI0
aI0
aa(lp2143
I232
aI117
aI179
aI255
aI255
aa(lp2144
I72
aI133
aI219
aa(lp2145
I199
aI0
aI0
aI0
aI0
aI0
aa(lp2146
I139
aI61
aI102
aI163
aI32
aI0
aa(lp2147
I116
aI5
aa(lp2148
I128
aI59
aI0
aa(lp2149
I117
aI23
aa(lp2150
I72
aI141
aI53
aI10
aI76
aI0
aI0
aa(lp2151
I72
aI137
aI217
aa(lp2152
I76
aI137
aI226
aa(lp2153
I49
aI192
aa(lp2154
I232
aI11
aI181
aI255
aI255
aa(lp2155
I15
aI31
aI0
aa(lp2156
I72
aI137
aI197
aa(lp2157
I186
aI10
aI0
aI0
aI0
aa(lp2158
I72
aI137
aI230
aa(lp2159
I72
aI137
aI223
aa(lp2160
I232
aI213
aI182
aI255
aI255
aa(lp2161
I139
aI85
aI0
aa(lp2162
I133
aI210
aa(lp2163
I117
aI46
aa(lp2164
I72
aI139
aI20
aI36
aa(lp2165
I72
aI57
aI218
aa(lp2166
I116
aI69
aa(lp2167
I72
aI133
aI210
aa(lp2168
I116
aI5
aa(lp2169
I128
aI58
aI0
aa(lp2170
I117
aI59
aa(lp2171
I72
aI139
aI76
aI36
aI8
aa(lp2172
I100
aI72
aI51
aI12
aI37
aI40
aI0
aa(lp2173
I0
aI0
aa(lp2174
I117
aI54
aa(lp2175
I72
aI131
aI196
aI16
aa(lp2176
I91
aa(lp2177
I93
aa(lp2178
I65
aI92
aa(lp2179
I195
aasg13
(I32096
I32304
tp2180
sg14
I2
sg15
g16
ssS'flush_standard_stream'
p2181
(dp2182
g7
g8
sg9
(lp2183
sg11
(lp2184
sg13
(tsg14
I1
sg15
g16
ssS'getpagesize'
p2185
(dp2186
g7
g8
sg9
(lp2187
sg11
(lp2188
sg13
(tsg14
I0
sg15
g16
ssS'__vfprintf_chk'
p2189
(dp2190
g7
g8
sg9
(lp2191
sg11
(lp2192
sg13
(tsg14
I0
sg15
g16
ssS'strcspn'
p2193
(dp2194
g7
g8
sg9
(lp2195
sg11
(lp2196
sg13
(tsg14
I0
sg15
g16
ssS'strtotimeval_or_err'
p2197
(dp2198
g7
g8
sg9
(lp2199
sg11
(lp2200
(lp2201
I83
aa(lp2202
I72
aI137
aI243
aa(lp2203
I72
aI137
aI214
aa(lp2204
I232
aI4
aI253
aI255
aI255
aa(lp2205
I242
aI72
aI15
aI44
aI192
aa(lp2206
I102
aI15
aI239
aI201
aa(lp2207
I242
aI72
aI15
aI42
aI200
aa(lp2208
I72
aI137
aI3
aa(lp2209
I242
aI15
aI92
aI193
aa(lp2210
I242
aI15
aI89
aI5
aI119
aI73
aI0
aI0
aa(lp2211
I242
aI72
aI15
aI44
aI192
aa(lp2212
I72
aI137
aI67
aI8
aa(lp2213
I91
aa(lp2214
I195
aasg13
(I32640
I32692
tp2215
sg14
I3
sg15
g16
ssS'__printf_chk'
p2216
(dp2217
g7
g8
sg9
(lp2218
sg11
(lp2219
sg13
(tsg14
I0
sg15
g16
ssS'cmp_color_name'
p2220
(dp2221
g7
g8
sg9
(lp2222
sg11
(lp2223
sg13
(tsg14
I2
sg15
g16
ssS'free'
p2224
(dp2225
g7
g8
sg9
(lp2226
sg11
(lp2227
sg13
(tsg14
I0
sg15
g16
ssS'__strtoul_internal'
p2228
(dp2229
g7
g8
sg9
(lp2230
sg11
(lp2231
sg13
(tsg14
I0
sg15
g16
ssS'get_subsys_delimiter'
p2232
(dp2233
g7
g8
sg9
(lp2234
sg11
(lp2235
sg13
(tsg14
I2
sg15
g16
ssS'colors_get_scheme'
p2236
(dp2237
g7
g8
sg9
(lp2238
sg11
(lp2239
sg13
(tsg14
I2
sg15
g16
ssS'strtox64_or_err'
p2240
(dp2241
g7
g8
sg9
(lp2242
sg11
(lp2243
(lp2244
I186
aI16
aI0
aI0
aI0
aa(lp2245
I233
aI134
aI245
aI255
aI255
aa(lp2246
I102
aI15
aI31
aI68
aI0
aI0
aasg13
(I31872
I31882
tp2247
sg14
I2
sg15
g16
ssS'localtime_r'
p2248
(dp2249
g7
g8
sg9
(lp2250
sg11
(lp2251
sg13
(tsg14
I0
sg15
g16
ssS'color_scheme_enable'
p2252
(dp2253
g7
g8
sg9
(lp2254
sg11
(lp2255
sg13
(tsg14
I2
sg15
g16
ssS'pager_preexec'
p2256
(dp2257
g7
g8
sg9
(lp2258
sg11
(lp2259
(lp2260
I72
aI129
aI236
aI24
aI1
aI0
aI0
aa(lp2261
I185
aI16
aI0
aI0
aI0
aa(lp2262
I72
aI137
aI230
aa(lp2263
I100
aI72
aI139
aI4
aI37
aI40
aI0
aa(lp2264
I0
aI0
aa(lp2265
I72
aI137
aI132
aI36
aI8
aI1
aI0
aI0
aa(lp2266
I49
aI192
aa(lp2267
I72
aI137
aI247
aa(lp2268
I252
aa(lp2269
I243
aI72
aI171
aa(lp2270
I72
aI131
aI12
aI36
aI1
aa(lp2271
I72
aI141
aI140
aI36
aI128
aI0
aI0
aI0
aa(lp2272
I69
aI49
aI192
aa(lp2273
I49
aI210
aa(lp2274
I191
aI1
aI0
aI0
aI0
aa(lp2275
I102
aI15
aI111
aI4
aI36
aa(lp2276
I15
aI41
aI132
aI36
aI128
aI0
aI0
aI0
aa(lp2277
I102
aI15
aI111
aI68
aI36
aI16
aa(lp2278
I15
aI41
aI132
aI36
aI144
aI0
aI0
aI0
aa(lp2279
I102
aI15
aI111
aI68
aI36
aI32
aa(lp2280
I15
aI41
aI132
aI36
aI160
aI0
aI0
aI0
aa(lp2281
I102
aI15
aI111
aI68
aI36
aI48
aa(lp2282
I15
aI41
aI132
aI36
aI176
aI0
aI0
aI0
aa(lp2283
I102
aI15
aI111
aI68
aI36
aI64
aa(lp2284
I15
aI41
aI132
aI36
aI192
aI0
aI0
aI0
aa(lp2285
I102
aI15
aI111
aI68
aI36
aI80
aa(lp2286
I15
aI41
aI132
aI36
aI208
aI0
aI0
aI0
aa(lp2287
I102
aI15
aI111
aI68
aI36
aI96
aa(lp2288
I15
aI41
aI132
aI36
aI224
aI0
aI0
aI0
aa(lp2289
I102
aI15
aI111
aI68
aI36
aI112
aa(lp2290
I15
aI41
aI132
aI36
aI240
aI0
aI0
aI0
aa(lp2291
I232
aI156
aI201
aI255
aI255
aa(lp2292
I72
aI141
aI53
aI222
aI93
aI0
aI0
aa(lp2293
I72
aI141
aI61
aI220
aI93
aI0
aI0
aa(lp2294
I49
aI210
aa(lp2295
I232
aI103
aI198
aI255
aI255
aa(lp2296
I133
aI192
aa(lp2297
I116
aI36
aa(lp2298
I72
aI141
aI53
aI4
aI94
aI0
aI0
aa(lp2299
I49
aI255
aa(lp2300
I186
aI5
aI0
aI0
aI0
aa(lp2301
I232
aI208
aI198
aI255
aI255
aa(lp2302
I72
aI141
aI53
aI183
aI93
aI0
aI0
aa(lp2303
I72
aI137
aI199
aa(lp2304
I49
aI192
aa(lp2305
I232
aI175
aI197
aI255
aI255
aa(lp2306
I72
aI139
aI132
aI36
aI8
aI1
aI0
aI0
aa(lp2307
I100
aI72
aI51
aI4
aI37
aI40
aI0
aa(lp2308
I0
aI0
aa(lp2309
I117
aI8
aa(lp2310
I72
aI129
aI196
aI24
aI1
aI0
aI0
aa(lp2311
I195
aasg13
(tsg14
I0
sg15
g16
ssS'sysinfo'
p2312
(dp2313
g7
g8
sg9
(lp2314
sg11
(lp2315
sg13
(tsg14
I0
sg15
g16
ssS'putchar'
p2316
(dp2317
g7
g8
sg9
(lp2318
sg11
(lp2319
sg13
(tsg14
I1
sg15
g16
ssS'__strtol_internal'
p2320
(dp2321
g7
g8
sg9
(lp2322
sg11
(lp2323
sg13
(tsg14
I0
sg15
g16
ssS'raw_print'
p2324
(dp2325
g7
g8
sg9
(lp2326
sg11
(lp2327
sg13
(tsg14
I3
sg15
g16
ssS'mangle'
p2328
(dp2329
g7
g8
sg9
(lp2330
sg11
(lp2331
(lp2332
I65
aI87
aa(lp2333
I65
aI86
aa(lp2334
I65
aI85
aa(lp2335
I65
aI84
aa(lp2336
I85
aa(lp2337
I83
aa(lp2338
I72
aI131
aI236
aI8
aa(lp2339
I72
aI133
aI255
aa(lp2340
I15
aI132
aI185
aI0
aI0
aI0
aa(lp2341
I73
aI137
aI255
aa(lp2342
I232
aI17
aI204
aI255
aI255
aa(lp2343
I72
aI141
aI60
aI133
aI1
aI0
aI0
aI0
aa(lp2344
I232
aI196
aI206
aI255
aI255
aa(lp2345
I72
aI133
aI192
aa(lp2346
I73
aI137
aI196
aa(lp2347
I15
aI132
aI152
aI0
aI0
aI0
aa(lp2348
I69
aI15
aI182
aI47
aa(lp2349
I73
aI137
aI198
aa(lp2350
I72
aI141
aI45
aI170
aI98
aI0
aI0
aa(lp2351
I69
aI132
aI237
aa(lp2352
I117
aI63
aa(lp2353
I235
aI100
aa(lp2354
I15
aI31
aI0
aa(lp2355
I65
aI131
aI229
aI7
aa(lp2356
I73
aI131
aI199
aI1
aa(lp2357
I137
aI216
aa(lp2358
I65
aI131
aI197
aI48
aa(lp2359
I193
aI251
aI3
aa(lp2360
I192
aI232
aI6
aa(lp2361
I69
aI136
aI110
aI3
aa(lp2362
I69
aI15
aI182
aI47
aa(lp2363
I131
aI227
aI7
aa(lp2364
I131
aI192
aI48
aa(lp2365
I131
aI195
aI48
aa(lp2366
I65
aI198
aI6
aI92
aa(lp2367
I65
aI136
aI70
aI1
aa(lp2368
I65
aI136
aI94
aI2
aa(lp2369
I73
aI131
aI198
aI4
aa(lp2370
I69
aI132
aI237
aa(lp2371
I116
aI39
aa(lp2372
I65
aI15
aI190
aI221
aa(lp2373
I72
aI137
aI239
aa(lp2374
I137
aI222
aa(lp2375
I232
aI24
aI204
aI255
aI255
aa(lp2376
I72
aI133
aI192
aa(lp2377
I117
aI179
aa(lp2378
I73
aI131
aI199
aI1
aa(lp2379
I69
aI136
aI46
aa(lp2380
I73
aI131
aI198
aI1
aa(lp2381
I69
aI15
aI182
aI47
aa(lp2382
I69
aI132
aI237
aa(lp2383
I117
aI217
aa(lp2384
I65
aI198
aI6
aI0
aa(lp2385
I72
aI131
aI196
aI8
aa(lp2386
I76
aI137
aI224
aa(lp2387
I91
aa(lp2388
I93
aa(lp2389
I65
aI92
aa(lp2390
I65
aI93
aa(lp2391
I65
aI94
aa(lp2392
I65
aI95
aa(lp2393
I195
aasg13
(I26176
I26389
tp2394
sg14
I1
sg15
g16
ssS'strtosize_or_err'
p2395
(dp2396
g7
g8
sg9
(lp2397
sg11
(lp2398
(lp2399
I85
aa(lp2400
I83
aa(lp2401
I72
aI137
aI245
aa(lp2402
I72
aI137
aI251
aa(lp2403
I72
aI131
aI236
aI24
aa(lp2404
I72
aI137
aI230
aa(lp2405
I100
aI72
aI139
aI4
aI37
aI40
aI0
aa(lp2406
I0
aI0
aa(lp2407
I72
aI137
aI68
aI36
aI8
aa(lp2408
I49
aI192
aa(lp2409
I232
aI204
aI248
aI255
aI255
aa(lp2410
I133
aI192
aa(lp2411
I117
aI32
aa(lp2412
I72
aI139
aI84
aI36
aI8
aa(lp2413
I100
aI72
aI51
aI20
aI37
aI40
aI0
aa(lp2414
I0
aI0
aa(lp2415
I72
aI139
aI4
aI36
aa(lp2416
I117
aI57
aa(lp2417
I72
aI131
aI196
aI24
aa(lp2418
I91
aa(lp2419
I93
aa(lp2420
I195
aasg13
(I32512
I32634
tp2421
sg14
I2
sg15
g16
ssS'format_iso_time'
p2422
(dp2423
g7
g8
sg9
(lp2424
sg11
(lp2425
(lp2426
I65
aI86
aa(lp2427
I65
aI85
aa(lp2428
I73
aI137
aI246
aa(lp2429
I65
aI84
aa(lp2430
I85
aa(lp2431
I137
aI213
aa(lp2432
I131
aI226
aI1
aa(lp2433
I83
aa(lp2434
I73
aI137
aI253
aa(lp2435
I73
aI137
aI204
aa(lp2436
I76
aI137
aI195
aa(lp2437
I15
aI133
aI193
aI1
aI0
aI0
aa(lp2438
I137
aI232
aa(lp2439
I131
aI224
aI3
aa(lp2440
I131
aI248
aI3
aa(lp2441
I15
aI132
aI35
aI1
aI0
aI0
aa(lp2442
I64
aI246
aI197
aI2
aa(lp2443
I15
aI133
aI69
aI1
aI0
aI0
aa(lp2444
I64
aI246
aI197
aI8
aa(lp2445
I15
aI133
aI134
aI1
aI0
aI0
aa(lp2446
I64
aI246
aI197
aI16
aa(lp2447
I15
aI133
aI197
aI0
aI0
aI0
aa(lp2448
I131
aI229
aI4
aa(lp2449
I117
aI16
aa(lp2450
I49
aI192
aa(lp2451
I91
aa(lp2452
I93
aa(lp2453
I65
aI92
aa(lp2454
I65
aI93
aa(lp2455
I65
aI94
aa(lp2456
I195
aasg13
(I39136
I39696
tp2457
sg14
I5
sg15
g16
ssS'__builtin_fputc'
p2458
(dp2459
g7
g8
sg9
(lp2460
sg11
(lp2461
sg13
(tsg14
I0
sg15
g16
ssS'strtimeval_iso'
p2462
(dp2463
g7
g8
sg9
(lp2464
sg11
(lp2465
(lp2466
I65
aI86
aa(lp2467
I65
aI85
aa(lp2468
I73
aI137
aI206
aa(lp2469
I65
aI84
aa(lp2470
I85
aa(lp2471
I65
aI137
aI244
aa(lp2472
I83
aa(lp2473
I73
aI137
aI213
aa(lp2474
I72
aI137
aI251
aa(lp2475
I72
aI131
aI236
aI64
aa(lp2476
I100
aI72
aI139
aI4
aI37
aI40
aI0
aa(lp2477
I0
aI0
aa(lp2478
I72
aI137
aI68
aI36
aI56
aa(lp2479
I49
aI192
aa(lp2480
I72
aI137
aI229
aa(lp2481
I131
aI230
aI64
aa(lp2482
I72
aI137
aI238
aa(lp2483
I116
aI61
aa(lp2484
I232
aI232
aI151
aI255
aI255
aa(lp2485
I72
aI133
aI192
aa(lp2486
I116
aI58
aa(lp2487
I72
aI139
aI115
aI8
aa(lp2488
I77
aI137
aI240
aa(lp2489
I76
aI137
aI233
aa(lp2490
I68
aI137
aI226
aa(lp2491
I72
aI137
aI239
aa(lp2492
I232
aI126
aI253
aI255
aI255
aa(lp2493
I72
aI139
aI76
aI36
aI56
aa(lp2494
I100
aI72
aI51
aI12
aI37
aI40
aI0
aa(lp2495
I0
aI0
aa(lp2496
I117
aI63
aa(lp2497
I72
aI131
aI196
aI64
aa(lp2498
I91
aa(lp2499
I93
aa(lp2500
I65
aI92
aa(lp2501
I65
aI93
aa(lp2502
I65
aI94
aa(lp2503
I195
aasg13
(I39696
I39862
tp2504
sg14
I4
sg15
g16
ssS'__vasprintf_chk'
p2505
(dp2506
g7
g8
sg9
(lp2507
sg11
(lp2508
sg13
(tsg14
I0
sg15
g16
ssS'bsearch'
p2509
(dp2510
g7
g8
sg9
(lp2511
sg11
(lp2512
sg13
(tsg14
I5
sg15
g16
ssS'fwrite'
p2513
(dp2514
g7
g8
sg9
(lp2515
sg11
(lp2516
sg13
(tsg14
I0
sg15
g16
ssS'strtoul_or_err'
p2517
(dp2518
g7
g8
sg9
(lp2519
sg11
(lp2520
(lp2521
I65
aI84
aa(lp2522
I85
aa(lp2523
I73
aI137
aI244
aa(lp2524
I83
aa(lp2525
I72
aI137
aI251
aa(lp2526
I72
aI131
aI236
aI16
aa(lp2527
I100
aI72
aI139
aI4
aI37
aI40
aI0
aa(lp2528
I0
aI0
aa(lp2529
I72
aI137
aI68
aI36
aI8
aa(lp2530
I49
aI192
aa(lp2531
I72
aI199
aI4
aI36
aI0
aI0
aI0
aI0
aa(lp2532
I232
aI165
aI178
aI255
aI255
aa(lp2533
I72
aI133
aI219
aa(lp2534
I199
aI0
aI0
aI0
aI0
aI0
aa(lp2535
I139
aI61
aI150
aI162
aI32
aI0
aa(lp2536
I116
aI5
aa(lp2537
I128
aI59
aI0
aa(lp2538
I117
aI23
aa(lp2539
I72
aI141
aI53
aI58
aI75
aI0
aI0
aa(lp2540
I72
aI137
aI217
aa(lp2541
I76
aI137
aI226
aa(lp2542
I49
aI192
aa(lp2543
I232
aI59
aI180
aI255
aI255
aa(lp2544
I15
aI31
aI0
aa(lp2545
I72
aI137
aI197
aa(lp2546
I186
aI10
aI0
aI0
aI0
aa(lp2547
I72
aI137
aI230
aa(lp2548
I72
aI137
aI223
aa(lp2549
I232
aI229
aI183
aI255
aI255
aa(lp2550
I139
aI85
aI0
aa(lp2551
I133
aI210
aa(lp2552
I117
aI46
aa(lp2553
I72
aI139
aI20
aI36
aa(lp2554
I72
aI57
aI218
aa(lp2555
I116
aI69
aa(lp2556
I72
aI133
aI210
aa(lp2557
I116
aI5
aa(lp2558
I128
aI58
aI0
aa(lp2559
I117
aI59
aa(lp2560
I72
aI139
aI76
aI36
aI8
aa(lp2561
I100
aI72
aI51
aI12
aI37
aI40
aI0
aa(lp2562
I0
aI0
aa(lp2563
I117
aI54
aa(lp2564
I72
aI131
aI196
aI16
aa(lp2565
I91
aa(lp2566
I93
aa(lp2567
I65
aI92
aa(lp2568
I195
aasg13
(I32304
I32512
tp2569
sg14
I2
sg15
g16
ssS'_exit'
p2570
(dp2571
g7
g8
sg9
(lp2572
sg11
(lp2573
sg13
(tsg14
I0
sg15
g16
ssS'xmalloc'
p2574
(dp2575
g7
g8
sg9
(lp2576
sg11
(lp2577
sg13
(tsg14
I1
sg15
g16
ssS'strftime'
p2578
(dp2579
g7
g8
sg9
(lp2580
sg11
(lp2581
sg13
(tsg14
I0
sg15
g16
ssS'color_scheme_get_sequence'
p2582
(dp2583
g7
g8
sg9
(lp2584
sg11
(lp2585
(lp2586
I15
aI182
aI21
aI205
aI119
aI32
aI0
aa(lp2587
I49
aI192
aa(lp2588
I137
aI209
aa(lp2589
I131
aI225
aI3
aa(lp2590
I128
aI249
aI1
aa(lp2591
I15
aI133
aI193
aI0
aI0
aI0
aa(lp2592
I65
aI87
aa(lp2593
I65
aI86
aa(lp2594
I65
aI85
aa(lp2595
I65
aI84
aa(lp2596
I73
aI137
aI252
aa(lp2597
I85
aa(lp2598
I83
aa(lp2599
I72
aI131
aI236
aI24
aa(lp2600
I72
aI133
aI255
aa(lp2601
I72
aI137
aI116
aI36
aI8
aa(lp2602
I116
aI119
aa(lp2603
I128
aI63
aI0
aa(lp2604
I116
aI114
aa(lp2605
I131
aI226
aI4
aa(lp2606
I116
aI100
aa(lp2607
I76
aI139
aI53
aI125
aI119
aI32
aI0
aa(lp2608
I77
aI133
aI246
aa(lp2609
I116
aI97
aa(lp2610
I246
aI5
aI153
aI119
aI32
aI0
aI8
aa(lp2611
I15
aI133
aI139
aI0
aI0
aI0
aa(lp2612
I76
aI139
aI45
aI92
aI119
aI32
aI0
aa(lp2613
I49
aI237
aa(lp2614
I76
aI57
aI245
aa(lp2615
I114
aI13
aa(lp2616
I235
aI68
aa(lp2617
I15
aI31
aI0
aa(lp2618
I72
aI57
aI235
aa(lp2619
I73
aI137
aI222
aa(lp2620
I118
aI57
aa(lp2621
I74
aI141
aI92
aI53
aI0
aa(lp2622
I76
aI137
aI231
aa(lp2623
I72
aI209
aI235
aa(lp2624
I73
aI137
aI223
aa(lp2625
I73
aI193
aI231
aI4
aa(lp2626
I77
aI1
aI239
aa(lp2627
I73
aI139
aI55
aa(lp2628
I232
aI227
aI134
aI255
aI255
aa(lp2629
I133
aI192
aa(lp2630
I120
aI215
aa(lp2631
I116
aI42
aa(lp2632
I72
aI141
aI107
aI1
aa(lp2633
I235
aI197
aa(lp2634
I15
aI31
aI128
aI0
aI0
aI0
aI0
aa(lp2635
I232
aI219
aI247
aI255
aI255
aa(lp2636
I133
aI192
aa(lp2637
I116
aI147
aa(lp2638
I72
aI139
aI68
aI36
aI8
aa(lp2639
I72
aI131
aI196
aI24
aa(lp2640
I91
aa(lp2641
I93
aa(lp2642
I65
aI92
aa(lp2643
I65
aI93
aa(lp2644
I65
aI94
aa(lp2645
I65
aI95
aa(lp2646
I195
aasg13
(I44288
I44591
tp2647
sg14
I2
sg15
g16
ssS'strtos64_or_err'
p2648
(dp2649
g7
g8
sg9
(lp2650
sg11
(lp2651
(lp2652
I65
aI84
aa(lp2653
I85
aa(lp2654
I73
aI137
aI244
aa(lp2655
I83
aa(lp2656
I72
aI137
aI251
aa(lp2657
I72
aI131
aI236
aI16
aa(lp2658
I100
aI72
aI139
aI4
aI37
aI40
aI0
aa(lp2659
I0
aI0
aa(lp2660
I72
aI137
aI68
aI36
aI8
aa(lp2661
I49
aI192
aa(lp2662
I72
aI199
aI4
aI36
aI0
aI0
aI0
aI0
aa(lp2663
I232
aI213
aI181
aI255
aI255
aa(lp2664
I72
aI133
aI219
aa(lp2665
I199
aI0
aI0
aI0
aI0
aI0
aa(lp2666
I139
aI61
aI198
aI165
aI32
aI0
aa(lp2667
I116
aI5
aa(lp2668
I128
aI59
aI0
aa(lp2669
I117
aI23
aa(lp2670
I72
aI141
aI53
aI106
aI78
aI0
aI0
aa(lp2671
I72
aI137
aI217
aa(lp2672
I76
aI137
aI226
aa(lp2673
I49
aI192
aa(lp2674
I232
aI107
aI183
aI255
aI255
aa(lp2675
I15
aI31
aI0
aa(lp2676
I72
aI137
aI197
aa(lp2677
I49
aI201
aa(lp2678
I186
aI10
aI0
aI0
aI0
aa(lp2679
I72
aI137
aI230
aa(lp2680
I72
aI137
aI223
aa(lp2681
I232
aI163
aI182
aI255
aI255
aa(lp2682
I139
aI85
aI0
aa(lp2683
I133
aI210
aa(lp2684
I117
aI44
aa(lp2685
I72
aI139
aI20
aI36
aa(lp2686
I72
aI57
aI218
aa(lp2687
I116
aI67
aa(lp2688
I72
aI133
aI210
aa(lp2689
I116
aI5
aa(lp2690
I128
aI58
aI0
aa(lp2691
I117
aI57
aa(lp2692
I72
aI139
aI76
aI36
aI8
aa(lp2693
I100
aI72
aI51
aI12
aI37
aI40
aI0
aa(lp2694
I0
aI0
aa(lp2695
I117
aI52
aa(lp2696
I72
aI131
aI196
aI16
aa(lp2697
I91
aa(lp2698
I93
aa(lp2699
I65
aI92
aa(lp2700
I195
aasg13
(I31488
I31696
tp2701
sg14
I2
sg15
g16
ssS'cn_sequence'
p2702
(dp2703
g7
g8
sg9
(lp2704
sg11
(lp2705
sg13
(tsg14
I2
sg15
g16
ssS'setlocale'
p2706
(dp2707
g7
g8
sg9
(lp2708
sg11
(lp2709
sg13
(tsg14
I0
sg15
g16
ssS'realloc'
p2710
(dp2711
g7
g8
sg9
(lp2712
sg11
(lp2713
sg13
(tsg14
I0
sg15
g16
ssS'isxdigit_strend'
p2714
(dp2715
g7
g8
sg9
(lp2716
sg11
(lp2717
(lp2718
I72
aI133
aI255
aa(lp2719
I65
aI84
aa(lp2720
I73
aI137
aI244
aa(lp2721
I85
aa(lp2722
I83
aa(lp2723
I116
aI84
aa(lp2724
I15
aI182
aI31
aa(lp2725
I72
aI137
aI253
aa(lp2726
I132
aI219
aa(lp2727
I116
aI89
aa(lp2728
I232
aI197
aI190
aI255
aI255
aa(lp2729
I72
aI137
aI234
aa(lp2730
I72
aI139
aI0
aa(lp2731
I235
aI18
aa(lp2732
I15
aI31
aI68
aI0
aI0
aa(lp2733
I72
aI131
aI194
aI1
aa(lp2734
I116
aI50
aa(lp2735
I15
aI182
aI26
aa(lp2736
I132
aI219
aa(lp2737
I116
aI7
aa(lp2738
I246
aI68
aI88
aI1
aI16
aa(lp2739
I117
aI236
aa(lp2740
I77
aI133
aI228
aa(lp2741
I116
aI4
aa(lp2742
I73
aI137
aI20
aI36
aa(lp2743
I72
aI57
aI213
aa(lp2744
I115
aI10
aa(lp2745
I128
aI58
aI0
aa(lp2746
I184
aI1
aI0
aI0
aI0
aa(lp2747
I116
aI2
aa(lp2748
I49
aI192
aa(lp2749
I91
aa(lp2750
I93
aa(lp2751
I65
aI92
aa(lp2752
I195
aasg13
(I30848
I30970
tp2753
sg14
I2
sg15
g16
ssS'__setup_pager'
p2754
(dp2755
g7
g8
sg9
(lp2756
sg11
(lp2757
(lp2758
I65
aI86
aa(lp2759
I65
aI85
aa(lp2760
I72
aI141
aI61
aI125
aI93
aI0
aI0
aa(lp2761
I65
aI84
aa(lp2762
I85
aa(lp2763
I83
aa(lp2764
I72
aI129
aI236
aI160
aI0
aI0
aI0
aa(lp2765
I100
aI72
aI139
aI4
aI37
aI40
aI0
aa(lp2766
I0
aI0
aa(lp2767
I72
aI137
aI132
aI36
aI152
aI0
aI0
aI0
aa(lp2768
I49
aI192
aa(lp2769
I232
aI146
aI196
aI255
aI255
aa(lp2770
I191
aI1
aI0
aI0
aI0
aa(lp2771
I72
aI137
aI195
aa(lp2772
I232
aI133
aI197
aI255
aI255
aa(lp2773
I133
aI192
aa(lp2774
I116
aI49
aa(lp2775
I72
aI133
aI219
aa(lp2776
I15
aI132
aI184
aI1
aI0
aI0
aa(lp2777
I15
aI182
aI3
aa(lp2778
I132
aI192
aa(lp2779
I116
aI33
aa(lp2780
I72
aI141
aI61
aI56
aI93
aI0
aI0
aa(lp2781
I185
aI4
aI0
aI0
aI0
aa(lp2782
I72
aI137
aI222
aa(lp2783
I243
aI166
aa(lp2784
I15
aI151
aI194
aa(lp2785
I128
aI218
aI0
aa(lp2786
I132
aI210
aa(lp2787
I117
aI54
aa(lp2788
I102
aI15
aI31
aI68
aI0
aI0
aa(lp2789
I72
aI139
aI132
aI36
aI152
aI0
aI0
aI0
aa(lp2790
I100
aI72
aI51
aI4
aI37
aI40
aI0
aa(lp2791
I0
aI0
aa(lp2792
I15
aI133
aI174
aI2
aI0
aI0
aa(lp2793
I72
aI129
aI196
aI160
aI0
aI0
aI0
aa(lp2794
I91
aa(lp2795
I93
aa(lp2796
I65
aI92
aa(lp2797
I65
aI93
aa(lp2798
I65
aI94
aa(lp2799
I195
aasg13
(tsg14
I0
sg15
g16
ssS'__open_2'
p2800
(dp2801
g7
g8
sg9
(lp2802
sg11
(lp2803
sg13
(tsg14
I0
sg15
g16
ssS'errx'
p2804
(dp2805
g7
g8
sg9
(lp2806
sg11
(lp2807
sg13
(tsg14
I0
sg15
g16
ssS'printf'
p2808
(dp2809
g7
g8
sg9
(lp2810
sg11
(lp2811
sg13
(tsg14
I1
sg15
g16
ssS'parse_switch'
p2812
(dp2813
g7
g8
sg9
(lp2814
sg11
(lp2815
(lp2816
I65
aI85
aa(lp2817
I65
aI84
aa(lp2818
I73
aI137
aI244
aa(lp2819
I85
aa(lp2820
I83
aa(lp2821
I72
aI137
aI251
aa(lp2822
I72
aI131
aI236
aI88
aa(lp2823
I100
aI72
aI139
aI4
aI37
aI40
aI0
aa(lp2824
I0
aI0
aa(lp2825
I72
aI137
aI68
aI36
aI24
aa(lp2826
I49
aI192
aa(lp2827
I72
aI141
aI132
aI36
aI128
aI0
aI0
aI0
aa(lp2828
I72
aI137
aI84
aI36
aI48
aa(lp2829
I72
aI137
aI76
aI36
aI56
aa(lp2830
I76
aI137
aI68
aI36
aI64
aa(lp2831
I76
aI137
aI76
aI36
aI72
aa(lp2832
I72
aI137
aI68
aI36
aI8
aa(lp2833
I72
aI141
aI68
aI36
aI32
aa(lp2834
I199
aI4
aI36
aI16
aI0
aI0
aI0
aa(lp2835
I72
aI137
aI68
aI36
aI16
aa(lp2836
I72
aI137
aI197
aa(lp2837
I15
aI31
aI0
aa(lp2838
I139
aI4
aI36
aa(lp2839
I131
aI248
aI47
aa(lp2840
I119
aI74
aa(lp2841
I137
aI193
aa(lp2842
I141
aI80
aI8
aa(lp2843
I72
aI139
aI116
aI13
aI0
aa(lp2844
I137
aI20
aI36
aa(lp2845
I72
aI133
aI246
aa(lp2846
I116
aI30
aa(lp2847
I131
aI250
aI47
aa(lp2848
I15
aI135
aI161
aI0
aI0
aI0
aa(lp2849
I131
aI192
aI16
aa(lp2850
I72
aI1
aI234
aa(lp2851
I137
aI4
aI36
aa(lp2852
I235
aI70
aa(lp2853
I102
aI46
aI15
aI31
aI132
aI0
aI0
aa(lp2854
I0
aI0
aI0
aa(lp2855
I139
aI61
aI106
aI167
aI32
aI0
aa(lp2856
I72
aI141
aI53
aI21
aI80
aI0
aI0
aa(lp2857
I72
aI137
aI217
aa(lp2858
I76
aI137
aI226
aa(lp2859
I49
aI192
aa(lp2860
I232
aI22
aI185
aI255
aI255
aa(lp2861
I72
aI139
aI84
aI36
aI8
aa(lp2862
I72
aI137
aI208
aa(lp2863
I72
aI131
aI194
aI8
aa(lp2864
I72
aI139
aI48
aa(lp2865
I72
aI137
aI84
aI36
aI8
aa(lp2866
I72
aI133
aI246
aa(lp2867
I116
aI205
aa(lp2868
I72
aI141
aI66
aI8
aa(lp2869
I72
aI137
aI68
aI36
aI8
aa(lp2870
I76
aI139
aI42
aa(lp2871
I77
aI133
aI237
aa(lp2872
I116
aI188
aa(lp2873
I72
aI137
aI223
aa(lp2874
I232
aI148
aI186
aI255
aI255
aa(lp2875
I133
aI192
aa(lp2876
I116
aI48
aa(lp2877
I76
aI137
aI238
aa(lp2878
I72
aI137
aI223
aa(lp2879
I232
aI133
aI186
aI255
aI255
aa(lp2880
I133
aI192
aa(lp2881
I15
aI133
aI101
aI255
aI255
aI255
aa(lp2882
I72
aI139
aI124
aI36
aI24
aa(lp2883
I100
aI72
aI51
aI60
aI37
aI40
aI0
aa(lp2884
I0
aI0
aa(lp2885
I117
aI20
aa(lp2886
I72
aI131
aI196
aI88
aa(lp2887
I91
aa(lp2888
I93
aa(lp2889
I65
aI92
aa(lp2890
I65
aI93
aa(lp2891
I195
aasg13
(I30976
I31267
tp2892
sg14
I2
sg15
g16
ssS'fopen'
p2893
(dp2894
g7
g8
sg9
(lp2895
sg11
(lp2896
sg13
(tsg14
I0
sg15
g16
ssS'open'
p2897
(dp2898
g7
g8
sg9
(lp2899
sg11
(lp2900
sg13
(tsg14
I2
sg15
g16
ssS'select'
p2901
(dp2902
g7
g8
sg9
(lp2903
sg11
(lp2904
sg13
(tsg14
I0
sg15
g16
ssS'ul_debug'
p2905
(dp2906
g7
g8
sg9
(lp2907
sg11
(lp2908
(lp2909
I83
aa(lp2910
I72
aI129
aI236
aI208
aI0
aI0
aI0
aa(lp2911
I132
aI192
aa(lp2912
I72
aI137
aI116
aI36
aI40
aa(lp2913
I72
aI137
aI84
aI36
aI48
aa(lp2914
I72
aI137
aI76
aI36
aI56
aa(lp2915
I76
aI137
aI68
aI36
aI64
aa(lp2916
I76
aI137
aI76
aI36
aI72
aa(lp2917
I116
aI55
aa(lp2918
I15
aI41
aI68
aI36
aI80
aa(lp2919
I15
aI41
aI76
aI36
aI96
aa(lp2920
I15
aI41
aI84
aI36
aI112
aa(lp2921
I15
aI41
aI156
aI36
aI128
aI0
aI0
aI0
aa(lp2922
I15
aI41
aI164
aI36
aI144
aI0
aI0
aI0
aa(lp2923
I15
aI41
aI172
aI36
aI160
aI0
aI0
aI0
aa(lp2924
I15
aI41
aI180
aI36
aI176
aI0
aI0
aI0
aa(lp2925
I15
aI41
aI188
aI36
aI192
aI0
aI0
aI0
aa(lp2926
I100
aI72
aI139
aI4
aI37
aI40
aI0
aa(lp2927
I0
aI0
aa(lp2928
I72
aI137
aI68
aI36
aI24
aa(lp2929
I49
aI192
aa(lp2930
I72
aI141
aI132
aI36
aI224
aI0
aI0
aI0
aa(lp2931
I72
aI137
aI250
aa(lp2932
I72
aI137
aI225
aa(lp2933
I190
aI1
aI0
aI0
aI0
aa(lp2934
I72
aI139
aI29
aI146
aI97
aI32
aI0
aa(lp2935
I72
aI137
aI68
aI36
aI8
aa(lp2936
I72
aI141
aI68
aI36
aI32
aa(lp2937
I199
aI4
aI36
aI8
aI0
aI0
aI0
aa(lp2938
I199
aI68
aI36
aI4
aI48
aI0
aI0
aI0
aa(lp2939
I72
aI137
aI68
aI36
aI16
aa(lp2940
I72
aI139
aI59
aa(lp2941
I232
aI100
aI146
aI255
aI255
aa(lp2942
I72
aI139
aI51
aa(lp2943
I191
aI10
aI0
aI0
aI0
aa(lp2944
I232
aI135
aI149
aI255
aI255
aa(lp2945
I72
aI139
aI68
aI36
aI24
aa(lp2946
I100
aI72
aI51
aI4
aI37
aI40
aI0
aa(lp2947
I0
aI0
aa(lp2948
I117
aI9
aa(lp2949
I72
aI129
aI196
aI208
aI0
aI0
aI0
aa(lp2950
I91
aa(lp2951
I195
aasg13
(I40400
I40615
tp2952
sg14
I1
sg15
g16
ssS'next_path_segment'
p2953
(dp2954
g7
g8
sg9
(lp2955
sg11
(lp2956
(lp2957
I72
aI133
aI255
aa(lp2958
I72
aI199
aI6
aI0
aI0
aI0
aI0
aa(lp2959
I117
aI16
aa(lp2960
I235
aI98
aa(lp2961
I102
aI144
aa(lp2962
I128
aI127
aI1
aI47
aa(lp2963
I117
aI106
aa(lp2964
I72
aI131
aI199
aI1
aa(lp2965
I116
aI84
aa(lp2966
I15
aI182
aI23
aa(lp2967
I128
aI250
aI47
aa(lp2968
I116
aI236
aa(lp2969
I132
aI210
aa(lp2970
I72
aI137
aI248
aa(lp2971
I116
aI69
aa(lp2972
I72
aI199
aI6
aI1
aI0
aI0
aI0
aa(lp2973
I15
aI182
aI87
aI1
aa(lp2974
I128
aI250
aI47
aa(lp2975
I116
aI41
aa(lp2976
I132
aI210
aa(lp2977
I116
aI37
aa(lp2978
I186
aI2
aI0
aI0
aI0
aa(lp2979
I235
aI15
aa(lp2980
I102
aI46
aI15
aI31
aI132
aI0
aI0
aa(lp2981
I0
aI0
aI0
aa(lp2982
I128
aI249
aI47
aa(lp2983
I116
aI35
aa(lp2984
I72
aI137
aI22
aa(lp2985
I15
aI182
aI12
aI23
aa(lp2986
I72
aI131
aI194
aI1
aa(lp2987
I132
aI201
aa(lp2988
I117
aI236
aa(lp2989
I243
aI195
aa(lp2990
I102
aI46
aI15
aI31
aI132
aI0
aI0
aa(lp2991
I0
aI0
aI0
aa(lp2992
I49
aI192
aa(lp2993
I195
aasg13
(I28912
I29045
tp2994
sg14
I2
sg15
g16
ssS'skip_item'
p2995
(dp2996
g7
g8
sg9
(lp2997
sg11
(lp2998
sg13
(tsg14
I3
sg15
g16
ssS'raise'
p2999
(dp3000
g7
g8
sg9
(lp3001
sg11
(lp3002
sg13
(tsg14
I0
sg15
g16
ssS'get_syslog_buffer_size'
p3003
(dp3004
g7
g8
sg9
(lp3005
sg11
(lp3006
sg13
(tsg14
I0
sg15
g16
ssS'warnx'
p3007
(dp3008
g7
g8
sg9
(lp3009
sg11
(lp3010
sg13
(tsg14
I0
sg15
g16
ssS'wait_or_whine'
p3011
(dp3012
g7
g8
sg9
(lp3013
sg11
(lp3014
sg13
(tsg14
I1
sg15
g16
ssS'__fgets_alias'
p3015
(dp3016
g7
g8
sg9
(lp3017
sg11
(lp3018
sg13
(tsg14
I0
sg15
g16
ssS'mktime'
p3019
(dp3020
g7
g8
sg9
(lp3021
sg11
(lp3022
sg13
(tsg14
I0
sg15
g16
ssS'_strtou64_or_err'
p3023
(dp3024
g7
g8
sg9
(lp3025
sg11
(lp3026
(lp3027
I65
aI85
aa(lp3028
I65
aI84
aa(lp3029
I65
aI137
aI213
aa(lp3030
I85
aa(lp3031
I83
aa(lp3032
I72
aI137
aI251
aa(lp3033
I73
aI137
aI244
aa(lp3034
I72
aI131
aI236
aI24
aa(lp3035
I100
aI72
aI139
aI4
aI37
aI40
aI0
aa(lp3036
I0
aI0
aa(lp3037
I72
aI137
aI68
aI36
aI8
aa(lp3038
I49
aI192
aa(lp3039
I72
aI199
aI4
aI36
aI0
aI0
aI0
aI0
aa(lp3040
I232
aI192
aI190
aI255
aI255
aa(lp3041
I72
aI133
aI219
aa(lp3042
I199
aI0
aI0
aI0
aI0
aI0
aa(lp3043
I139
aI61
aI177
aI174
aI32
aI0
aa(lp3044
I116
aI5
aa(lp3045
I128
aI59
aI0
aa(lp3046
I117
aI26
aa(lp3047
I72
aI141
aI53
aI85
aI87
aI0
aI0
aa(lp3048
I72
aI137
aI217
aa(lp3049
I76
aI137
aI226
aa(lp3050
I49
aI192
aa(lp3051
I232
aI86
aI192
aI255
aI255
aa(lp3052
I102
aI15
aI31
aI68
aI0
aI0
aa(lp3053
I72
aI137
aI197
aa(lp3054
I49
aI201
aa(lp3055
I68
aI137
aI234
aa(lp3056
I72
aI137
aI230
aa(lp3057
I72
aI137
aI223
aa(lp3058
I232
aI29
aI193
aI255
aI255
aa(lp3059
I139
aI85
aI0
aa(lp3060
I133
aI210
aa(lp3061
I117
aI54
aa(lp3062
I72
aI139
aI20
aI36
aa(lp3063
I72
aI57
aI218
aa(lp3064
I116
aI77
aa(lp3065
I72
aI133
aI210
aa(lp3066
I116
aI5
aa(lp3067
I128
aI58
aI0
aa(lp3068
I117
aI67
aa(lp3069
I72
aI139
aI76
aI36
aI8
aa(lp3070
I100
aI72
aI51
aI12
aI37
aI40
aI0
aa(lp3071
I0
aI0
aa(lp3072
I117
aI62
aa(lp3073
I72
aI131
aI196
aI24
aa(lp3074
I91
aa(lp3075
I93
aa(lp3076
I65
aI92
aa(lp3077
I65
aI93
aa(lp3078
I195
aasg13
(I29200
I29424
tp3079
sg14
I3
sg15
g16
ssS'strcasecmp'
p3080
(dp3081
g7
g8
sg9
(lp3082
sg11
(lp3083
sg13
(tsg14
I0
sg15
g16
ssS'colors_off'
p3084
(dp3085
g7
g8
sg9
(lp3086
sg11
(lp3087
(lp3088
I128
aI13
aI45
aI120
aI32
aI0
aI2
aa(lp3089
I195
aasg13
(I44192
I44200
tp3090
sg14
I0
sg15
g16
ssS'dcgettext'
p3091
(dp3092
g7
g8
sg9
(lp3093
sg11
(lp3094
sg13
(tsg14
I0
sg15
g16
ssS'faccessat'
p3095
(dp3096
g7
g8
sg9
(lp3097
sg11
(lp3098
sg13
(tsg14
I0
sg15
g16
ssS'fclose'
p3099
(dp3100
g7
g8
sg9
(lp3101
sg11
(lp3102
sg13
(tsg14
I0
sg15
g16
ssS'strtoimax'
p3103
(dp3104
g7
g8
sg9
(lp3105
sg11
(lp3106
sg13
(tsg14
I3
sg15
g16
ssS'parse_kmsg_timestamp'
p3107
(dp3108
g7
g8
sg9
(lp3109
sg11
(lp3110
sg13
(tsg14
I2
sg15
g16
ssS'dup'
p3111
(dp3112
g7
g8
sg9
(lp3113
sg11
(lp3114
sg13
(tsg14
I0
sg15
g16
ssS'strdup'
p3115
(dp3116
g7
g8
sg9
(lp3117
sg11
(lp3118
sg13
(tsg14
I0
sg15
g16
ssS'strtou16_or_err'
p3119
(dp3120
g7
g8
sg9
(lp3121
sg11
(lp3122
(lp3123
I85
aa(lp3124
I83
aa(lp3125
I186
aI10
aI0
aI0
aI0
aa(lp3126
I72
aI137
aI251
aa(lp3127
I72
aI137
aI245
aa(lp3128
I72
aI131
aI236
aI8
aa(lp3129
I232
aI90
aI248
aI255
aI255
aa(lp3130
I61
aI255
aI255
aI0
aI0
aa(lp3131
I119
aI7
aa(lp3132
I72
aI131
aI196
aI8
aa(lp3133
I91
aa(lp3134
I93
aa(lp3135
I195
aasg13
(I31360
I31407
tp3136
sg14
I2
sg15
g16
ssS'record_ctime'
p3137
(dp3138
g7
g8
sg9
(lp3139
sg11
(lp3140
sg13
(tsg14
I4
sg15
g16
ssS'colors_free_schemes'
p3141
(dp3142
g7
g8
sg9
(lp3143
sg11
(lp3144
sg13
(tsg14
I1
sg15
g16
ssS'fork'
p3145
(dp3146
g7
g8
sg9
(lp3147
sg11
(lp3148
sg13
(tsg14
I0
sg15
g16
ssS'strtoumax'
p3149
(dp3150
g7
g8
sg9
(lp3151
sg11
(lp3152
sg13
(tsg14
I3
sg15
g16
ssS'short_ctime'
p3153
(dp3154
g7
g8
sg9
(lp3155
sg11
(lp3156
sg13
(tsg14
I3
sg15
g16
ssS'__fxstat'
p3157
(dp3158
g7
g8
sg9
(lp3159
sg11
(lp3160
sg13
(tsg14
I0
sg15
g16
ssS'qsort'
p3161
(dp3162
g7
g8
sg9
(lp3163
sg11
(lp3164
sg13
(tsg14
I0
sg15
g16
ssS'execvp'
p3165
(dp3166
g7
g8
sg9
(lp3167
sg11
(lp3168
sg13
(tsg14
I0
sg15
g16
ssS'fwrite_hex'
p3169
(dp3170
g7
g8
sg9
(lp3171
sg11
(lp3172
sg13
(tsg14
I3
sg15
g16
ssS'warn'
p3173
(dp3174
g7
g8
sg9
(lp3175
sg11
(lp3176
sg13
(tsg14
I0
sg15
g16
ssS'startswith_no_case'
p3177
(dp3178
g7
g8
sg9
(lp3179
sg11
(lp3180
sg13
(tsg14
I2
sg15
g16
ssS'gettimeofday'
p3181
(dp3182
g7
g8
sg9
(lp3183
sg11
(lp3184
sg13
(tsg14
I0
sg15
g16
ssS'colors_sort_schemes'
p3185
(dp3186
g7
g8
sg9
(lp3187
sg11
(lp3188
sg13
(tsg14
I1
sg15
g16
ssS'colors_readdir'
p3189
(dp3190
g7
g8
sg9
(lp3191
sg11
(lp3192
sg13
(tsg14
I2
sg15
g16
ssS'do_scale_by_power'
p3193
(dp3194
g7
g8
sg9
(lp3195
sg11
(lp3196
sg13
(tsg14
I3
sg15
g16
ssS'read_kmsg_one'
p3197
(dp3198
g7
g8
sg9
(lp3199
sg11
(lp3200
sg13
(tsg14
I1
sg15
g16
ssS'parse_kmsg_record'
p3201
(dp3202
g7
g8
sg9
(lp3203
sg11
(lp3204
sg13
(tsg14
I4
sg15
g16
ssS'colors_terminal_is_ready'
p3205
(dp3206
g7
g8
sg9
(lp3207
sg11
(lp3208
sg13
(tsg14
I0
sg15
g16
ssS'read_syslog_buffer'
p3209
(dp3210
g7
g8
sg9
(lp3211
sg11
(lp3212
sg13
(tsg14
I2
sg15
g16
ssS'isdigit_strend'
p3213
(dp3214
g7
g8
sg9
(lp3215
sg11
(lp3216
(lp3217
I72
aI133
aI255
aa(lp3218
I65
aI84
aa(lp3219
I73
aI137
aI244
aa(lp3220
I85
aa(lp3221
I83
aa(lp3222
I116
aI84
aa(lp3223
I15
aI182
aI31
aa(lp3224
I72
aI137
aI253
aa(lp3225
I132
aI219
aa(lp3226
I116
aI89
aa(lp3227
I232
aI69
aI191
aI255
aI255
aa(lp3228
I72
aI137
aI234
aa(lp3229
I72
aI139
aI0
aa(lp3230
I235
aI18
aa(lp3231
I15
aI31
aI68
aI0
aI0
aa(lp3232
I72
aI131
aI194
aI1
aa(lp3233
I116
aI50
aa(lp3234
I15
aI182
aI26
aa(lp3235
I132
aI219
aa(lp3236
I116
aI7
aa(lp3237
I246
aI68
aI88
aI1
aI8
aa(lp3238
I117
aI236
aa(lp3239
I77
aI133
aI228
aa(lp3240
I116
aI4
aa(lp3241
I73
aI137
aI20
aI36
aa(lp3242
I72
aI57
aI213
aa(lp3243
I115
aI10
aa(lp3244
I128
aI58
aI0
aa(lp3245
I184
aI1
aI0
aI0
aI0
aa(lp3246
I116
aI2
aa(lp3247
I49
aI192
aa(lp3248
I91
aa(lp3249
I93
aa(lp3250
I65
aI92
aa(lp3251
I195
aasg13
(I30720
I30842
tp3252
sg14
I2
sg15
g16
ssS'err'
p3253
(dp3254
g7
g8
sg9
(lp3255
sg11
(lp3256
sg13
(tsg14
I0
sg15
g16
ssS'__fprintf_chk'
p3257
(dp3258
g7
g8
sg9
(lp3259
sg11
(lp3260
sg13
(tsg14
I0
sg15
g16
ssS'localeconv'
p3261
(dp3262
g7
g8
sg9
(lp3263
sg11
(lp3264
sg13
(tsg14
I0
sg15
g16
ssS'access'
p3265
(dp3266
g7
g8
sg9
(lp3267
sg11
(lp3268
sg13
(tsg14
I0
sg15
g16
ssS'__errno_location'
p3269
(dp3270
g7
g8
sg9
(lp3271
sg11
(lp3272
sg13
(tsg14
I0
sg15
g16
ssS'strerror'
p3273
(dp3274
g7
g8
sg9
(lp3275
sg11
(lp3276
sg13
(tsg14
I0
sg15
g16
ssS'__builtin_strncpy'
p3277
(dp3278
g7
g8
sg9
(lp3279
sg11
(lp3280
sg13
(tsg14
I0
sg15
g16
ssS'parse_faclev'
p3281
(dp3282
g7
g8
sg9
(lp3283
sg11
(lp3284
(lp3285
I65
aI85
aa(lp3286
I65
aI84
aa(lp3287
I85
aa(lp3288
I83
aa(lp3289
I72
aI137
aI251
aa(lp3290
I72
aI131
aI236
aI24
aa(lp3291
I100
aI72
aI139
aI4
aI37
aI40
aI0
aa(lp3292
I0
aI0
aa(lp3293
I72
aI137
aI68
aI36
aI8
aa(lp3294
I49
aI192
aa(lp3295
I72
aI133
aI255
aa(lp3296
I72
aI199
aI4
aI36
aI0
aI0
aI0
aI0
aa(lp3297
I116
aI102
aa(lp3298
I73
aI137
aI244
aa(lp3299
I73
aI137
aI213
aa(lp3300
I232
aI91
aI223
aI255
aI255
aa(lp3301
I186
aI10
aI0
aI0
aI0
aa(lp3302
I72
aI137
aI197
aa(lp3303
I199
aI0
aI0
aI0
aI0
aI0
aa(lp3304
I72
aI137
aI230
aa(lp3305
I72
aI137
aI223
aa(lp3306
I232
aI226
aI226
aI255
aI255
aa(lp3307
I139
aI85
aI0
aa(lp3308
I133
aI210
aa(lp3309
I117
aI59
aa(lp3310
I72
aI139
aI20
aI36
aa(lp3311
I72
aI57
aI218
aa(lp3312
I118
aI50
aa(lp3313
I72
aI133
aI210
aa(lp3314
I116
aI45
aa(lp3315
I72
aI137
aI193
aa(lp3316
I131
aI224
aI7
aa(lp3317
I72
aI141
aI90
aI1
aa(lp3318
I72
aI193
aI249
aI3
aa(lp3319
I131
aI225
aI127
aa(lp3320
I65
aI137
aI12
aI36
aa(lp3321
I65
aI137
aI69
aI0
aa(lp3322
I185
aI255
aI255
aI255
aI255
aa(lp3323
I65
aI139
aI4
aI36
aa(lp3324
I131
aI248
aI13
aa(lp3325
I15
aI67
aI193
aa(lp3326
I65
aI137
aI4
aI36
aa(lp3327
I144
aa(lp3328
I72
aI139
aI76
aI36
aI8
aa(lp3329
I100
aI72
aI51
aI12
aI37
aI40
aI0
aa(lp3330
I0
aI0
aa(lp3331
I72
aI137
aI216
aa(lp3332
I117
aI11
aa(lp3333
I72
aI131
aI196
aI24
aa(lp3334
I91
aa(lp3335
I93
aa(lp3336
I65
aI92
aa(lp3337
I65
aI93
aa(lp3338
I195
aasg13
(I20848
I21027
tp3339
sg14
I3
sg15
g16
ssS'option_to_longopt'
p3340
(dp3341
g7
g8
sg9
(lp3342
sg11
(lp3343
sg13
(tsg14
I2
sg15
g16
ssS'parse_sec'
p3344
(dp3345
g7
g8
sg9
(lp3346
sg11
(lp3347
(lp3348
I65
aI87
aa(lp3349
I65
aI86
aa(lp3350
I65
aI85
aa(lp3351
I65
aI84
aa(lp3352
I85
aa(lp3353
I83
aa(lp3354
I72
aI131
aI236
aI72
aa(lp3355
I100
aI72
aI139
aI4
aI37
aI40
aI0
aa(lp3356
I0
aI0
aa(lp3357
I72
aI137
aI68
aI36
aI56
aa(lp3358
I49
aI192
aa(lp3359
I72
aI133
aI255
aa(lp3360
I72
aI137
aI116
aI36
aI40
aa(lp3361
I15
aI132
aI13
aI2
aI0
aI0
aa(lp3362
I76
aI141
aI45
aI189
aI103
aI32
aI0
aa(lp3363
I72
aI137
aI249
aa(lp3364
I49
aI219
aa(lp3365
I72
aI199
aI68
aI36
aI32
aI0
aI0
aa(lp3366
I0
aI0
aa(lp3367
I15
aI31
aI128
aI0
aI0
aI0
aI0
aa(lp3368
I72
aI141
aI53
aI128
aI59
aI0
aI0
aa(lp3369
I72
aI137
aI207
aa(lp3370
I72
aI137
aI76
aI36
aI8
aa(lp3371
I232
aI100
aI165
aI255
aI255
aa(lp3372
I72
aI139
aI76
aI36
aI8
aa(lp3373
I72
aI141
aI44
aI1
aa(lp3374
I128
aI125
aI0
aI0
aa(lp3375
I15
aI132
aI178
aI1
aI0
aI0
aa(lp3376
I76
aI141
aI100
aI36
aI48
aa(lp3377
I232
aI87
aI162
aI255
aI255
aa(lp3378
I186
aI10
aI0
aI0
aI0
aa(lp3379
I73
aI137
aI198
aa(lp3380
I199
aI0
aI0
aI0
aI0
aI0
aa(lp3381
I76
aI137
aI230
aa(lp3382
I72
aI137
aI239
aa(lp3383
I232
aI190
aI165
aI255
aI255
aa(lp3384
I72
aI137
aI68
aI36
aI16
aa(lp3385
I65
aI139
aI6
aa(lp3386
I133
aI192
aa(lp3387
I15
aI143
aI116
aI1
aI0
aI0
aa(lp3388
I72
aI131
aI124
aI36
aI16
aI0
aa(lp3389
I15
aI136
aI108
aI1
aI0
aI0
aa(lp3390
I72
aI139
aI92
aI36
aI48
aa(lp3391
I128
aI59
aI46
aa(lp3392
I15
aI132
aI20
aI1
aI0
aI0
aa(lp3393
I72
aI57
aI235
aa(lp3394
I15
aI132
aI227
aI0
aI0
aI0
aa(lp3395
I199
aI68
aI36
aI8
aI0
aI0
aI0
aI0
aa(lp3396
I72
aI199
aI68
aI36
aI24
aI0
aI0
aa(lp3397
I0
aI0
aa(lp3398
I72
aI141
aI53
aI242
aI58
aI0
aI0
aa(lp3399
I72
aI137
aI223
aa(lp3400
I69
aI49
aI246
aa(lp3401
I76
aI141
aI61
aI205
aI58
aI0
aI0
aa(lp3402
I232
aI209
aI164
aI255
aI255
aa(lp3403
I72
aI1
aI195
aa(lp3404
I72
aI137
aI92
aI36
aI48
aa(lp3405
I235
aI33
aa(lp3406
I15
aI31
aI128
aI0
aI0
aI0
aI0
aa(lp3407
I73
aI131
aI198
aI1
aa(lp3408
I73
aI131
aI254
aI28
aa(lp3409
I15
aI132
aI154
aI0
aI0
aI0
aa(lp3410
I76
aI137
aI240
aa(lp3411
I72
aI193
aI224
aI4
aa(lp3412
I77
aI139
aI124
aI5
aI0
aa(lp3413
I77
aI133
aI255
aa(lp3414
I69
aI137
aI244
aa(lp3415
I116
aI222
aa(lp3416
I76
aI137
aI255
aa(lp3417
I232
aI22
aI163
aI255
aI255
aa(lp3418
I72
aI133
aI219
aa(lp3419
I72
aI137
aI197
aa(lp3420
I116
aI206
aa(lp3421
I72
aI133
aI192
aa(lp3422
I116
aI201
aa(lp3423
I72
aI137
aI194
aa(lp3424
I76
aI137
aI254
aa(lp3425
I72
aI137
aI223
aa(lp3426
I232
aI171
aI161
aI255
aI255
aa(lp3427
I133
aI192
aa(lp3428
I117
aI183
aa(lp3429
I72
aI137
aI233
aa(lp3430
I72
aI1
aI217
aa(lp3431
I116
aI175
aa(lp3432
I73
aI193
aI228
aI4
aa(lp3433
I72
aI139
aI84
aI36
aI24
aa(lp3434
I139
aI68
aI36
aI8
aa(lp3435
I75
aI139
aI116
aI37
aI8
aa(lp3436
I72
aI15
aI175
aI214
aa(lp3437
I133
aI192
aa(lp3438
I116
aI29
aa(lp3439
I15
aI31
aI68
aI0
aI0
aa(lp3440
I72
aI184
aI205
aI204
aI204
aI204
aI204
aa(lp3441
I204
aI204
aI204
aa(lp3442
I72
aI247
aI226
aa(lp3443
I72
aI193
aI234
aI3
aa(lp3444
I131
aI108
aI36
aI8
aI1
aa(lp3445
I117
aI232
aa(lp3446
I76
aI139
aI116
aI36
aI16
aa(lp3447
I187
aI1
aI0
aI0
aI0
aa(lp3448
I76
aI15
aI175
aI246
aa(lp3449
I76
aI1
aI242
aa(lp3450
I72
aI1
aI84
aI36
aI32
aa(lp3451
I233
aI165
aI254
aI255
aI255
aa(lp3452
I15
aI31
aI68
aI0
aI0
aa(lp3453
I184
aI234
aI255
aI255
aI255
aa(lp3454
I72
aI139
aI116
aI36
aI56
aa(lp3455
I100
aI72
aI51
aI52
aI37
aI40
aI0
aa(lp3456
I0
aI0
aa(lp3457
I15
aI133
aI151
aI0
aI0
aI0
aa(lp3458
I72
aI131
aI196
aI72
aa(lp3459
I91
aa(lp3460
I93
aa(lp3461
I65
aI92
aa(lp3462
I65
aI93
aa(lp3463
I65
aI94
aa(lp3464
I65
aI95
aa(lp3465
I195
aasg13
(I36400
I37005
tp3466
sg14
I2
sg15
g16
ssS'clock_gettime'
p3467
(dp3468
g7
g8
sg9
(lp3469
sg11
(lp3470
sg13
(tsg14
I0
sg15
g16
ssS'set_level_color'
p3471
(dp3472
g7
g8
sg9
(lp3473
sg11
(lp3474
sg13
(tsg14
I3
sg15
g16
ssS'record_localtime'
p3475
(dp3476
g7
g8
sg9
(lp3477
sg11
(lp3478
sg13
(tsg14
I3
sg15
g16
ssS'gmtime_r'
p3479
(dp3480
g7
g8
sg9
(lp3481
sg11
(lp3482
sg13
(tsg14
I0
sg15
g16
ssS'skip_blank'
p3483
(dp3484
g7
g8
sg9
(lp3485
sg11
(lp3486
sg13
(tsg14
I1
sg15
g16
ssS'malloc'
p3487
(dp3488
g7
g8
sg9
(lp3489
sg11
(lp3490
sg13
(tsg14
I0
sg15
g16
ssS'strfappend'
p3491
(dp3492
g7
g8
sg9
(lp3493
sg11
(lp3494
(lp3495
I83
aa(lp3496
I72
aI137
aI251
aa(lp3497
I72
aI129
aI236
aI224
aI0
aI0
aI0
aa(lp3498
I132
aI192
aa(lp3499
I72
aI137
aI84
aI36
aI64
aa(lp3500
I72
aI137
aI76
aI36
aI72
aa(lp3501
I76
aI137
aI68
aI36
aI80
aa(lp3502
I76
aI137
aI76
aI36
aI88
aa(lp3503
I116
aI58
aa(lp3504
I15
aI41
aI68
aI36
aI96
aa(lp3505
I15
aI41
aI76
aI36
aI112
aa(lp3506
I15
aI41
aI148
aI36
aI128
aI0
aI0
aI0
aa(lp3507
I15
aI41
aI156
aI36
aI144
aI0
aI0
aI0
aa(lp3508
I15
aI41
aI164
aI36
aI160
aI0
aI0
aI0
aa(lp3509
I15
aI41
aI172
aI36
aI176
aI0
aI0
aI0
aa(lp3510
I15
aI41
aI180
aI36
aI192
aI0
aI0
aI0
aa(lp3511
I15
aI41
aI188
aI36
aI208
aI0
aI0
aI0
aa(lp3512
I100
aI72
aI139
aI4
aI37
aI40
aI0
aa(lp3513
I0
aI0
aa(lp3514
I72
aI137
aI68
aI36
aI40
aa(lp3515
I49
aI192
aa(lp3516
I72
aI141
aI132
aI36
aI240
aI0
aI0
aI0
aa(lp3517
I72
aI141
aI76
aI36
aI16
aa(lp3518
I72
aI141
aI124
aI36
aI8
aa(lp3519
I72
aI137
aI242
aa(lp3520
I190
aI1
aI0
aI0
aI0
aa(lp3521
I72
aI137
aI68
aI36
aI24
aa(lp3522
I72
aI141
aI68
aI36
aI48
aa(lp3523
I199
aI68
aI36
aI16
aI16
aI0
aI0
aI0
aa(lp3524
I199
aI68
aI36
aI20
aI48
aI0
aI0
aI0
aa(lp3525
I72
aI137
aI68
aI36
aI32
aa(lp3526
I232
aI37
aI169
aI255
aI255
aa(lp3527
I133
aI192
aa(lp3528
I120
aI65
aa(lp3529
I72
aI139
aI116
aI36
aI8
aa(lp3530
I72
aI137
aI223
aa(lp3531
I72
aI99
aI208
aa(lp3532
I232
aI33
aI254
aI255
aI255
aa(lp3533
I72
aI139
aI124
aI36
aI8
aa(lp3534
I72
aI137
aI195
aa(lp3535
I232
aI100
aI164
aI255
aI255
aa(lp3536
I72
aI137
aI216
aa(lp3537
I72
aI139
aI92
aI36
aI40
aa(lp3538
I100
aI72
aI51
aI28
aI37
aI40
aI0
aa(lp3539
I0
aI0
aa(lp3540
I117
aI21
aa(lp3541
I72
aI129
aI196
aI224
aI0
aI0
aI0
aa(lp3542
I91
aa(lp3543
I195
aasg13
(I35728
I35977
tp3544
sg14
I2
sg15
g16
ssS'sscanf'
p3545
(dp3546
g7
g8
sg9
(lp3547
sg11
(lp3548
sg13
(tsg14
I0
sg15
g16
ssS'feof'
p3549
(dp3550
g7
g8
sg9
(lp3551
sg11
(lp3552
sg13
(tsg14
I0
sg15
g16
ssS'__assert_fail'
p3553
(dp3554
g7
g8
sg9
(lp3555
sg11
(lp3556
sg13
(tsg14
I0
sg15
g16
ssS'strndup'
p3557
(dp3558
g7
g8
sg9
(lp3559
sg11
(lp3560
sg13
(tsg14
I0
sg15
g16
ssS'parse_level'
p3561
(dp3562
g7
g8
sg9
(lp3563
sg11
(lp3564
(lp3565
I65
aI87
aa(lp3566
I65
aI86
aa(lp3567
I65
aI85
aa(lp3568
I65
aI84
aa(lp3569
I85
aa(lp3570
I83
aa(lp3571
I72
aI131
aI236
aI40
aa(lp3572
I100
aI72
aI139
aI4
aI37
aI40
aI0
aa(lp3573
I0
aI0
aa(lp3574
I72
aI137
aI68
aI36
aI24
aa(lp3575
I49
aI192
aa(lp3576
I72
aI133
aI255
aa(lp3577
I15
aI132
aI102
aI1
aI0
aI0
aa(lp3578
I72
aI133
aI246
aa(lp3579
I72
aI137
aI253
aa(lp3580
I73
aI137
aI244
aa(lp3581
I199
aI68
aI36
aI12
aI0
aI0
aI0
aI0
aa(lp3582
I15
aI132
aI146
aI0
aI0
aI0
aa(lp3583
I232
aI13
aI221
aI255
aI255
aa(lp3584
I199
aI0
aI0
aI0
aI0
aI0
aa(lp3585
I73
aI137
aI198
aa(lp3586
I49
aI219
aa(lp3587
I232
aI93
aI227
aI255
aI255
aa(lp3588
I72
aI15
aI190
aI85
aI0
aa(lp3589
I72
aI139
aI0
aa(lp3590
I76
aI141
aI61
aI107
aI97
aI0
aI0
aa(lp3591
I76
aI141
aI45
aI7
aI161
aI32
aI0
aa(lp3592
I246
aI68
aI80
aI1
aI8
aa(lp3593
I116
aI20
aa(lp3594
I235
aI118
aa(lp3595
I102
aI15
aI31
aI68
aI0
aI0
aa(lp3596
I72
aI137
aI216
aa(lp3597
I72
aI193
aI224
aI4
aa(lp3598
I77
aI139
aI124
aI5
aI0
aa(lp3599
I76
aI137
aI226
aa(lp3600
I76
aI137
aI254
aa(lp3601
I72
aI137
aI239
aa(lp3602
I232
aI254
aI224
aI255
aI255
aa(lp3603
I133
aI192
aa(lp3604
I117
aI11
aa(lp3605
I67
aI128
aI60
aI39
aI0
aa(lp3606
I15
aI132
aI199
aI0
aI0
aI0
aa(lp3607
I72
aI131
aI195
aI1
aa(lp3608
I72
aI131
aI251
aI8
aa(lp3609
I117
aI205
aa(lp3610
I72
aI141
aI53
aI33
aI97
aI0
aI0
aa(lp3611
I186
aI5
aI0
aI0
aI0
aa(lp3612
I49
aI255
aa(lp3613
I232
aI242
aI221
aI255
aI255
aa(lp3614
I72
aI137
aI234
aa(lp3615
I72
aI137
aI198
aa(lp3616
I191
aI1
aI0
aI0
aI0
aa(lp3617
I49
aI192
aa(lp3618
I232
aI64
aI222
aI255
aI255
aa(lp3619
I232
aI235
aI221
aI255
aI255
aa(lp3620
I199
aI68
aI36
aI12
aI1
aI0
aI0
aI0
aa(lp3621
I73
aI137
aI196
aa(lp3622
I233
aI89
aI255
aI255
aI255
aa(lp3623
I15
aI31
aI0
aa(lp3624
I72
aI141
aI116
aI36
aI16
aa(lp3625
I186
aI10
aI0
aI0
aI0
aa(lp3626
I72
aI137
aI239
aa(lp3627
I72
aI199
aI68
aI36
aI16
aI0
aI0
aa(lp3628
I0
aI0
aa(lp3629
I232
aI237
aI223
aI255
aI255
aa(lp3630
I65
aI139
aI22
aa(lp3631
I133
aI210
aa(lp3632
I117
aI54
aa(lp3633
I72
aI139
aI84
aI36
aI16
aa(lp3634
I72
aI133
aI210
aa(lp3635
I116
aI151
aa(lp3636
I72
aI57
aI234
aa(lp3637
I118
aI146
aa(lp3638
I72
aI41
aI234
aa(lp3639
I76
aI57
aI226
aa(lp3640
I117
aI138
aa(lp3641
I72
aI99
aI84
aI36
aI12
aa(lp3642
I72
aI41
aI208
aa(lp3643
I72
aI131
aI248
aI7
aa(lp3644
I15
aI135
aI120
aI255
aI255
aI255
aa(lp3645
I1
aI208
aa(lp3646
I235
aI55
aa(lp3647
I102
aI15
aI31
aI132
aI0
aI0
aI0
aa(lp3648
I0
aI0
aa(lp3649
I72
aI141
aI53
aI159
aI96
aI0
aI0
aa(lp3650
I186
aI5
aI0
aI0
aI0
aa(lp3651
I49
aI255
aa(lp3652
I232
aI93
aI221
aI255
aI255
aa(lp3653
I72
aI137
aI234
aa(lp3654
I72
aI137
aI198
aa(lp3655
I191
aI1
aI0
aI0
aI0
aa(lp3656
I49
aI192
aa(lp3657
I232
aI11
aI224
aI255
aI255
aa(lp3658
I15
aI31
aI0
aa(lp3659
I139
aI68
aI36
aI12
aa(lp3660
I1
aI216
aa(lp3661
I72
aI139
aI76
aI36
aI24
aa(lp3662
I100
aI72
aI51
aI12
aI37
aI40
aI0
aa(lp3663
I0
aI0
aa(lp3664
I117
aI22
aa(lp3665
I72
aI131
aI196
aI40
aa(lp3666
I91
aa(lp3667
I93
aa(lp3668
I65
aI92
aa(lp3669
I65
aI93
aa(lp3670
I65
aI94
aa(lp3671
I65
aI95
aa(lp3672
I195
aasg13
(I21424
I21833
tp3673
sg14
I2
sg15
g16
ssS'mbrtowc'
p3674
(dp3675
g7
g8
sg9
(lp3676
sg11
(lp3677
sg13
(tsg14
I0
sg15
g16
ssS'colors_get_homedir'
p3678
(dp3679
g7
g8
sg9
(lp3680
sg11
(lp3681
sg13
(tsg14
I2
sg15
g16
ssS'size_to_human_string'
p3682
(dp3683
g7
g8
sg9
(lp3684
sg11
(lp3685
(lp3686
I65
aI85
aa(lp3687
I65
aI84
aa(lp3688
I85
aa(lp3689
I83
aa(lp3690
I72
aI131
aI236
aI72
aa(lp3691
I100
aI72
aI139
aI4
aI37
aI40
aI0
aa(lp3692
I0
aI0
aa(lp3693
I72
aI137
aI68
aI36
aI56
aa(lp3694
I49
aI192
aa(lp3695
I64
aI246
aI199
aI2
aa(lp3696
I15
aI132
aI44
aI2
aI0
aI0
aa(lp3697
I72
aI141
aI92
aI36
aI11
aa(lp3698
I198
aI68
aI36
aI11
aI32
aa(lp3699
I76
aI141
aI67
aI1
aa(lp3700
I72
aI129
aI254
aI255
aI3
aI0
aI0
aa(lp3701
I15
aI134
aI249
aI1
aI0
aI0
aa(lp3702
I72
aI129
aI254
aI255
aI255
aI15
aI0
aa(lp3703
I15
aI134
aI68
aI2
aI0
aI0
aa(lp3704
I72
aI129
aI254
aI255
aI255
aI255
aI63
aa(lp3705
I15
aI134
aI79
aI2
aI0
aI0
aa(lp3706
I72
aI184
aI255
aI255
aI255
aI255
aI255
aa(lp3707
I0
aI0
aI0
aa(lp3708
I72
aI57
aI198
aa(lp3709
I15
aI134
aI68
aI2
aI0
aI0
aa(lp3710
I72
aI184
aI255
aI255
aI255
aI255
aI255
aa(lp3711
I255
aI3
aI0
aa(lp3712
I72
aI57
aI198
aa(lp3713
I15
aI134
aI65
aI2
aI0
aI0
aa(lp3714
I72
aI184
aI255
aI255
aI255
aI255
aI255
aa(lp3715
I255
aI255
aI15
aa(lp3716
I77
aI141
aI88
aI1
aa(lp3717
I185
aI60
aI0
aI0
aI0
aa(lp3718
I72
aI57
aI198
aa(lp3719
I65
aI186
aI70
aI0
aI0
aI0
aa(lp3720
I15
aI134
aI47
aI2
aI0
aI0
aa(lp3721
I137
aI200
aa(lp3722
I186
aI205
aI204
aI204
aI204
aa(lp3723
I72
aI137
aI245
aa(lp3724
I247
aI226
aa(lp3725
I72
aI141
aI5
aI41
aI71
aI0
aI0
aa(lp3726
I72
aI211
aI237
aa(lp3727
I65
aI137
aI233
aa(lp3728
I193
aI234
aI3
aa(lp3729
I15
aI182
aI20
aI16
aa(lp3730
I72
aI199
aI192
aI255
aI255
aI255
aI255
aa(lp3731
I72
aI211
aI224
aa(lp3732
I72
aI247
aI208
aa(lp3733
I72
aI33
aI198
aa(lp3734
I128
aI250
aI66
aa(lp3735
I65
aI136
aI16
aa(lp3736
I116
aI21
aa(lp3737
I64
aI246
aI199
aI1
aa(lp3738
I116
aI15
aa(lp3739
I65
aI188
aI105
aI66
aI0
aI0
aa(lp3740
I77
aI141
aI88
aI3
aa(lp3741
I102
aI69
aI137
aI96
aI1
aa(lp3742
I72
aI133
aI246
aa(lp3743
I65
aI198
aI3
aI0
aa(lp3744
I15
aI132
aI229
aI0
aI0
aI0
aa(lp3745
I65
aI141
aI74
aI236
aa(lp3746
I72
aI211
aI238
aa(lp3747
I131
aI231
aI4
aa(lp3748
I15
aI132
aI165
aI0
aI0
aI0
aa(lp3749
I72
aI131
aI198
aI5
aa(lp3750
I72
aI185
aI205
aI204
aI204
aI204
aI204
aa(lp3751
I204
aI204
aI204
aa(lp3752
I72
aI137
aI240
aa(lp3753
I72
aI247
aI225
aa(lp3754
I72
aI193
aI234
aI3
aa(lp3755
I72
aI137
aI208
aa(lp3756
I73
aI137
aI213
aa(lp3757
I72
aI247
aI225
aa(lp3758
I72
aI193
aI234
aI3
aa(lp3759
I72
aI141
aI4
aI146
aa(lp3760
I72
aI1
aI192
aa(lp3761
I73
aI57
aI197
aa(lp3762
I15
aI132
aI32
aI1
aI0
aI0
aa(lp3763
I77
aI133
aI237
aa(lp3764
I15
aI132
aI151
aI0
aI0
aI0
aa(lp3765
I232
aI130
aI174
aI255
aI255
aa(lp3766
I72
aI133
aI192
aa(lp3767
I72
aI141
aI21
aI167
aI71
aI0
aI0
aa(lp3768
I116
aI26
aa(lp3769
I72
aI139
aI16
aa(lp3770
I72
aI133
aI210
aa(lp3771
I15
aI132
aI26
aI1
aI0
aI0
aa(lp3772
I128
aI58
aI0
aa(lp3773
I72
aI141
aI5
aI143
aI71
aI0
aI0
aa(lp3774
I72
aI15
aI68
aI208
aa(lp3775
I76
aI141
aI100
aI36
aI16
aa(lp3776
I72
aI131
aI236
aI8
aa(lp3777
I76
aI141
aI5
aI97
aI70
aI0
aI0
aa(lp3778
I83
aa(lp3779
I65
aI85
aa(lp3780
I65
aI137
aI233
aa(lp3781
I82
aa(lp3782
I185
aI32
aI0
aI0
aI0
aa(lp3783
I186
aI1
aI0
aI0
aI0
aa(lp3784
I190
aI32
aI0
aI0
aI0
aa(lp3785
I76
aI137
aI231
aa(lp3786
I49
aI192
aa(lp3787
I232
aI12
aI173
aI255
aI255
aa(lp3788
I72
aI131
aI196
aI32
aa(lp3789
I235
aI98
aa(lp3790
I102
aI15
aI31
aI68
aI0
aI0
aa(lp3791
I72
aI131
aI198
aI50
aa(lp3792
I72
aI186
aI195
aI245
aI40
aI92
aI143
aa(lp3793
I194
aI245
aI40
aa(lp3794
I72
aI193
aI238
aI2
aa(lp3795
I72
aI137
aI240
aa(lp3796
I72
aI247
aI226
aa(lp3797
I72
aI193
aI234
aI2
aa(lp3798
I72
aI131
aI250
aI10
aa(lp3799
I73
aI137
aI213
aa(lp3800
I15
aI133
aI103
aI255
aI255
aI255
aa(lp3801
I68
aI141
aI77
aI1
aa(lp3802
I15
aI31
aI0
aa(lp3803
I76
aI141
aI100
aI36
aI16
aa(lp3804
I72
aI131
aI236
aI8
aa(lp3805
I76
aI141
aI5
aI255
aI69
aI0
aI0
aa(lp3806
I83
aa(lp3807
I185
aI32
aI0
aI0
aI0
aa(lp3808
I186
aI1
aI0
aI0
aI0
aa(lp3809
I190
aI32
aI0
aI0
aI0
aa(lp3810
I76
aI137
aI231
aa(lp3811
I49
aI192
aa(lp3812
I232
aI166
aI172
aI255
aI255
aa(lp3813
I90
aa(lp3814
I89
aa(lp3815
I76
aI137
aI231
aa(lp3816
I232
aI252
aI178
aI255
aI255
aa(lp3817
I72
aI139
aI92
aI36
aI56
aa(lp3818
I100
aI72
aI51
aI28
aI37
aI40
aI0
aa(lp3819
I0
aI0
aa(lp3820
I15
aI133
aI176
aI0
aI0
aI0
aa(lp3821
I72
aI131
aI196
aI72
aa(lp3822
I91
aa(lp3823
I93
aa(lp3824
I65
aI92
aa(lp3825
I65
aI93
aa(lp3826
I195
aasg13
(I33264
I33997
tp3827
sg14
I2
sg15
g16
ssS'color_fenable'
p3828
(dp3829
g7
g8
sg9
(lp3830
sg11
(lp3831
(lp3832
I15
aI182
aI5
aI237
aI119
aI32
aI0
aa(lp3833
I131
aI224
aI3
aa(lp3834
I60
aI1
aa(lp3835
I117
aI5
aa(lp3836
I72
aI133
aI255
aa(lp3837
I117
aI5
aa(lp3838
I243
aI195
aa(lp3839
I15
aI31
aI0
aa(lp3840
I233
aI131
aI134
aI255
aI255
aa(lp3841
I15
aI31
aI0
aasg13
(tsg14
I2
sg15
g16
ssS'endswith'
p3842
(dp3843
g7
g8
sg9
(lp3844
sg11
(lp3845
sg13
(tsg14
I2
sg15
g16
ssS'abort'
p3846
(dp3847
g7
g8
sg9
(lp3848
sg11
(lp3849
sg13
(tsg14
I0
sg15
g16
ssS'fprintf'
p3850
(dp3851
g7
g8
sg9
(lp3852
sg11
(lp3853
sg13
(tsg14
I2
sg15
g16
ssS'string_add_to_idarray'
p3854
(dp3855
g7
g8
sg9
(lp3856
sg11
(lp3857
(lp3858
I72
aI133
aI255
aa(lp3859
I116
aI82
aa(lp3860
I72
aI133
aI201
aa(lp3861
I83
aa(lp3862
I15
aI182
aI7
aa(lp3863
I72
aI137
aI203
aa(lp3864
I116
aI63
aa(lp3865
I132
aI192
aa(lp3866
I116
aI59
aa(lp3867
I76
aI139
aI9
aa(lp3868
I73
aI57
aI209
aa(lp3869
I119
aI51
aa(lp3870
I60
aI43
aa(lp3871
I116
aI31
aa(lp3872
I72
aI199
aI1
aI0
aI0
aI0
aI0
aa(lp3873
I76
aI137
aI193
aa(lp3874
I232
aI192
aI254
aI255
aI255
aa(lp3875
I133
aI192
aa(lp3876
I126
aI6
aa(lp3877
I72
aI99
aI208
aa(lp3878
I72
aI1
aI19
aa(lp3879
I91
aa(lp3880
I195
aasg13
(I34272
I34365
tp3881
sg14
I5
sg15
g16
ssS'isatty'
p3882
(dp3883
g7
g8
sg9
(lp3884
sg11
(lp3885
sg13
(tsg14
I0
sg15
g16
ssS'unhexmangle_to_buffer'
p3886
(dp3887
g7
g8
sg9
(lp3888
sg11
(lp3889
(lp3890
I72
aI133
aI255
aa(lp3891
I15
aI132
aI55
aI1
aI0
aI0
aa(lp3892
I65
aI87
aa(lp3893
I65
aI86
aa(lp3894
I65
aI85
aa(lp3895
I65
aI84
aa(lp3896
I69
aI49
aI237
aa(lp3897
I85
aa(lp3898
I83
aa(lp3899
I76
aI141
aI98
aI255
aa(lp3900
I72
aI137
aI243
aa(lp3901
I72
aI131
aI236
aI40
aa(lp3902
I235
aI20
aa(lp3903
I15
aI31
aI68
aI0
aI0
aa(lp3904
I72
aI131
aI199
aI1
aa(lp3905
I64
aI136
aI43
aa(lp3906
I73
aI131
aI197
aI1
aa(lp3907
I72
aI131
aI195
aI1
aa(lp3908
I15
aI182
aI47
aa(lp3909
I64
aI132
aI237
aa(lp3910
I15
aI132
aI221
aI0
aI0
aI0
aa(lp3911
I77
aI57
aI229
aa(lp3912
I15
aI131
aI212
aI0
aI0
aI0
aa(lp3913
I64
aI128
aI253
aI92
aa(lp3914
I117
aI214
aa(lp3915
I73
aI141
aI69
aI3
aa(lp3916
I76
aI57
aI224
aa(lp3917
I115
aI205
aa(lp3918
I128
aI127
aI1
aI120
aa(lp3919
I117
aI199
aa(lp3920
I72
aI137
aI116
aI36
aI8
aa(lp3921
I72
aI137
aI60
aI36
aa(lp3922
I232
aI49
aI207
aI255
aI255
aa(lp3923
I72
aI139
aI60
aI36
aa(lp3924
I72
aI139
aI16
aa(lp3925
I72
aI139
aI116
aI36
aI8
aa(lp3926
I76
aI15
aI190
aI71
aI2
aa(lp3927
I66
aI15
aI183
aI12
aI66
aa(lp3928
I76
aI137
aI192
aa(lp3929
I246
aI197
aI16
aa(lp3930
I116
aI155
aa(lp3931
I76
aI15
aI190
aI127
aI3
aa(lp3932
I66
aI15
aI183
aI20
aI122
aa(lp3933
I77
aI137
aI254
aa(lp3934
I246
aI198
aI16
aa(lp3935
I116
aI137
aa(lp3936
I128
aI229
aI8
aa(lp3937
I15
aI133
aI155
aI0
aI0
aI0
aa(lp3938
I72
aI137
aI116
aI36
aI24
aa(lp3939
I72
aI137
aI124
aI36
aI16
aa(lp3940
I137
aI84
aI36
aI8
aa(lp3941
I76
aI137
aI4
aI36
aa(lp3942
I232
aI209
aI206
aI255
aI255
aa(lp3943
I76
aI139
aI4
aI36
aa(lp3944
I72
aI139
aI0
aa(lp3945
I72
aI139
aI116
aI36
aI24
aa(lp3946
I72
aI139
aI124
aI36
aI16
aa(lp3947
I139
aI84
aI36
aI8
aa(lp3948
I66
aI139
aI4
aI128
aa(lp3949
I131
aI232
aI87
aa(lp3950
I137
aI197
aa(lp3951
I193
aI229
aI4
aa(lp3952
I128
aI230
aI8
aa(lp3953
I65
aI141
aI70
aI208
aa(lp3954
I117
aI33
aa(lp3955
I72
aI137
aI116
aI36
aI8
aa(lp3956
I72
aI137
aI60
aI36
aa(lp3957
I232
aI153
aI206
aI255
aI255
aa(lp3958
I72
aI139
aI0
aa(lp3959
I72
aI139
aI116
aI36
aI8
aa(lp3960
I72
aI139
aI60
aI36
aa(lp3961
I66
aI139
aI4
aI184
aa(lp3962
I131
aI232
aI87
aa(lp3963
I9
aI232
aa(lp3964
I72
aI131
aI199
aI4
aa(lp3965
I73
aI131
aI197
aI4
aa(lp3966
I136
aI3
aa(lp3967
I233
aI24
aI255
aI255
aI255
aa(lp3968
I15
aI31
aI68
aI0
aI0
aa(lp3969
I198
aI3
aI0
aa(lp3970
I72
aI131
aI196
aI40
aa(lp3971
I72
aI41
aI243
aa(lp3972
I72
aI141
aI67
aI1
aa(lp3973
I91
aa(lp3974
I93
aa(lp3975
I65
aI92
aa(lp3976
I65
aI93
aa(lp3977
I65
aI94
aa(lp3978
I65
aI95
aa(lp3979
I195
aasg13
(I26560
I26890
tp3980
sg14
I3
sg15
g16
ssS'strlen'
p3981
(dp3982
g7
g8
sg9
(lp3983
sg11
(lp3984
sg13
(tsg14
I0
sg15
g16
ssS'bindtextdomain'
p3985
(dp3986
g7
g8
sg9
(lp3987
sg11
(lp3988
sg13
(tsg14
I0
sg15
g16
ssS'pager_open'
p3989
(dp3990
g7
g8
sg9
(lp3991
sg11
(lp3992
(lp3993
I139
aI5
aI114
aI177
aI32
aI0
aa(lp3994
I133
aI192
aa(lp3995
I116
aI6
aa(lp3996
I243
aI195
aa(lp3997
I15
aI31
aI64
aI0
aa(lp3998
I72
aI131
aI236
aI8
aa(lp3999
I191
aI1
aI0
aI0
aI0
aa(lp4000
I232
aI50
aI195
aI255
aI255
aa(lp4001
I191
aI2
aI0
aI0
aI0
aa(lp4002
I137
aI5
aI99
aI177
aI32
aI0
aa(lp4003
I232
aI34
aI195
aI255
aI255
aa(lp4004
I137
aI5
aI84
aI177
aI32
aI0
aa(lp4005
I72
aI131
aI196
aI8
aa(lp4006
I233
aI163
aI251
aI255
aI255
aa(lp4007
I15
aI31
aI0
aasg13
(I28656
I28717
tp4008
sg14
I0
sg15
g16
ssS'c_isgraph'
p4009
(dp4010
g7
g8
sg9
(lp4011
sg11
(lp4012
sg13
(tsg14
I1
sg15
g16
ssS'memmem'
p4013
(dp4014
g7
g8
sg9
(lp4015
sg11
(lp4016
sg13
(tsg14
I0
sg15
g16
ssS'strcspn_escaped'
p4017
(dp4018
g7
g8
sg9
(lp4019
sg11
(lp4020
(lp4021
I65
aI85
aa(lp4022
I65
aI84
aa(lp4023
I73
aI137
aI244
aa(lp4024
I85
aa(lp4025
I83
aa(lp4026
I49
aI192
aa(lp4027
I72
aI131
aI236
aI8
aa(lp4028
I15
aI190
aI55
aa(lp4029
I64
aI132
aI246
aa(lp4030
I116
aI93
aa(lp4031
I72
aI137
aI253
aa(lp4032
I49
aI219
aa(lp4033
I15
aI31
aI64
aI0
aa(lp4034
I64
aI128
aI254
aI92
aa(lp4035
I116
aI50
aa(lp4036
I72
aI99
aI195
aa(lp4037
I76
aI141
aI108
aI5
aI1
aa(lp4038
I76
aI137
aI231
aa(lp4039
I232
aI58
aI193
aI255
aI255
aa(lp4040
I72
aI133
aI192
aa(lp4041
I117
aI69
aa(lp4042
I65
aI15
aI190
aI117
aI0
aa(lp4043
I131
aI195
aI1
aa(lp4044
I64
aI132
aI246
aa(lp4045
I116
aI56
aa(lp4046
I73
aI131
aI197
aI1
aa(lp4047
I64
aI128
aI254
aI92
aa(lp4048
I117
aI220
aa(lp4049
I102
aI15
aI31
aI68
aI0
aI0
aa(lp4050
I141
aI67
aI1
aa(lp4051
I72
aI152
aa(lp4052
I128
aI124
aI5
aI0
aI0
aa(lp4053
I116
aI28
aa(lp4054
I131
aI195
aI2
aa(lp4055
I72
aI99
aI195
aa(lp4056
I15
aI190
aI116
aI5
aI0
aa(lp4057
I64
aI132
aI246
aa(lp4058
I117
aI172
aa(lp4059
I72
aI131
aI196
aI8
aa(lp4060
I91
aa(lp4061
I93
aa(lp4062
I65
aI92
aa(lp4063
I65
aI93
aa(lp4064
I195
aasg13
(I29056
I29198
tp4065
sg14
I2
sg15
g16
ssS'geteuid'
p4066
(dp4067
g7
g8
sg9
(lp4068
sg11
(lp4069
sg13
(tsg14
I0
sg15
g16
ssS'_strtou16_or_err'
p4070
(dp4071
g7
g8
sg9
(lp4072
sg11
(lp4073
sg13
(tsg14
I3
sg15
g16
ssS'safe_fwrite'
p4074
(dp4075
g7
g8
sg9
(lp4076
sg11
(lp4077
sg13
(tsg14
I5
sg15
g16
ssS'colormode_from_string'
p4078
(dp4079
g7
g8
sg9
(lp4080
sg11
(lp4081
(lp4082
I72
aI133
aI255
aa(lp4083
I116
aI91
aa(lp4084
I128
aI63
aI0
aa(lp4085
I116
aI86
aa(lp4086
I65
aI84
aa(lp4087
I72
aI141
aI53
aI111
aI4
aI0
aI0
aa(lp4088
I85
aa(lp4089
I72
aI137
aI253
aa(lp4090
I83
aa(lp4091
I49
aI219
aa(lp4092
I72
aI137
aI239
aa(lp4093
I76
aI141
aI37
aI92
aI69
aI32
aI0
aa(lp4094
I232
aI103
aI125
aI255
aI255
aa(lp4095
I133
aI192
aa(lp4096
I116
aI26
aa(lp4097
I72
aI131
aI195
aI1
aa(lp4098
I72
aI131
aI251
aI4
aa(lp4099
I116
aI25
aa(lp4100
I73
aI139
aI52
aI220
aa(lp4101
I72
aI137
aI239
aa(lp4102
I232
aI77
aI125
aI255
aI255
aa(lp4103
I133
aI192
aa(lp4104
I117
aI230
aa(lp4105
I137
aI216
aa(lp4106
I91
aa(lp4107
I93
aa(lp4108
I65
aI92
aa(lp4109
I195
aasg13
(tsg14
I1
sg15
g16
ssS'record_count_delta'
p4110
(dp4111
g7
g8
sg9
(lp4112
sg11
(lp4113
sg13
(tsg14
I2
sg15
g16
ssS'xstrdup'
p4114
(dp4115
g7
g8
sg9
(lp4116
sg11
(lp4117
sg13
(tsg14
I1
sg15
g16
ssS'sigaction'
p4118
(dp4119
g7
g8
sg9
(lp4120
sg11
(lp4121
sg13
(tsg14
I0
sg15
g16
ssS'split'
p4122
(dp4123
g7
g8
sg9
(lp4124
sg11
(lp4125
(lp4126
I65
aI87
aa(lp4127
I65
aI86
aa(lp4128
I65
aI85
aa(lp4129
I65
aI84
aa(lp4130
I85
aa(lp4131
I83
aa(lp4132
I72
aI131
aI236
aI24
aa(lp4133
I72
aI139
aI31
aa(lp4134
I100
aI72
aI139
aI4
aI37
aI40
aI0
aa(lp4135
I0
aI0
aa(lp4136
I72
aI137
aI68
aI36
aI8
aa(lp4137
I49
aI192
aa(lp4138
I128
aI59
aI0
aa(lp4139
I15
aI132
aI38
aI1
aI0
aI0
aa(lp4140
I72
aI137
aI253
aa(lp4141
I73
aI137
aI246
aa(lp4142
I72
aI137
aI223
aa(lp4143
I72
aI137
aI214
aa(lp4144
I73
aI137
aI213
aa(lp4145
I65
aI137
aI207
aa(lp4146
I232
aI31
aI167
aI255
aI255
aa(lp4147
I72
aI1
aI195
aa(lp4148
I68
aI15
aI182
aI35
aa(lp4149
I69
aI132
aI228
aa(lp4150
I15
aI132
aI239
aI0
aI0
aI0
aa(lp4151
I69
aI133
aI255
aa(lp4152
I116
aI122
aa(lp4153
I72
aI141
aI61
aI247
aI60
aI0
aI0
aa(lp4154
I65
aI15
aI190
aI244
aa(lp4155
I232
aI250
aI165
aI255
aI255
aa(lp4156
I72
aI133
aI192
aa(lp4157
I15
aI132
aI161
aI0
aI0
aI0
aa(lp4158
I76
aI141
aI123
aI1
aa(lp4159
I72
aI141
aI116
aI36
aI6
aa(lp4160
I68
aI136
aI100
aI36
aI6
aa(lp4161
I198
aI68
aI36
aI7
aI0
aa(lp4162
I76
aI137
aI255
aa(lp4163
I232
aI102
aI228
aI255
aI255
aa(lp4164
I73
aI137
aI6
aa(lp4165
I15
aI182
aI84
aI3
aI1
aa(lp4166
I132
aI210
aa(lp4167
I15
aI132
aI166
aI0
aI0
aI0
aa(lp4168
I65
aI56
aI212
aa(lp4169
I15
aI133
aI157
aI0
aI0
aI0
aa(lp4170
I76
aI141
aI100
aI3
aI2
aa(lp4171
I65
aI15
aI190
aI52
aI36
aa(lp4172
I64
aI132
aI246
aa(lp4173
I116
aI17
aa(lp4174
I76
aI137
aI239
aa(lp4175
I232
aI166
aI165
aI255
aI255
aa(lp4176
I72
aI133
aI192
aa(lp4177
I15
aI132
aI125
aI0
aI0
aI0
aa(lp4178
I76
aI137
aI101
aI0
aa(lp4179
I76
aI137
aI251
aa(lp4180
I235
aI25
aa(lp4181
I15
aI31
aI64
aI0
aa(lp4182
I76
aI137
aI238
aa(lp4183
I72
aI137
aI223
aa(lp4184
I232
aI181
aI166
aI255
aI255
aa(lp4185
I73
aI137
aI6
aa(lp4186
I72
aI1
aI216
aa(lp4187
I72
aI137
aI69
aI0
aa(lp4188
I72
aI139
aI76
aI36
aI8
aa(lp4189
I100
aI72
aI51
aI12
aI37
aI40
aI0
aa(lp4190
I0
aI0
aa(lp4191
I72
aI137
aI216
aa(lp4192
I117
aI92
aa(lp4193
I72
aI131
aI196
aI24
aa(lp4194
I91
aa(lp4195
I93
aa(lp4196
I65
aI92
aa(lp4197
I65
aI93
aa(lp4198
I65
aI94
aa(lp4199
I65
aI95
aa(lp4200
I195
aasg13
(I35984
I36329
tp4201
sg14
I4
sg15
g16
ssS'get_gmtoff'
p4202
(dp4203
g7
g8
sg9
(lp4204
sg11
(lp4205
(lp4206
I139
aI87
aI32
aa(lp4207
I49
aI192
aa(lp4208
I133
aI210
aa(lp4209
I120
aI3
aa(lp4210
I139
aI71
aI40
aa(lp4211
I243
aI195
aa(lp4212
I102
aI144
aasg13
(I39120
I39134
tp4213
sg14
I1
sg15
g16
ssS'waitpid'
p4214
(dp4215
g7
g8
sg9
(lp4216
sg11
(lp4217
sg13
(tsg14
I0
sg15
g16
ssS'print_record'
p4218
(dp4219
g7
g8
sg9
(lp4220
sg11
(lp4221
sg13
(tsg14
I2
sg15
g16
ssS'colors_read_schemes'
p4222
(dp4223
g7
g8
sg9
(lp4224
sg11
(lp4225
sg13
(tsg14
I1
sg15
g16
ssS'wait_for_pager'
p4226
(dp4227
g7
g8
sg9
(lp4228
sg11
(lp4229
(lp4230
I139
aI5
aI2
aI183
aI32
aI0
aa(lp4231
I133
aI192
aa(lp4232
I117
aI6
aa(lp4233
I243
aI195
aa(lp4234
I15
aI31
aI64
aI0
aa(lp4235
I233
aI43
aI255
aI255
aI255
aa(lp4236
I144
aa(lp4237
I102
aI46
aI15
aI31
aI132
aI0
aI0
aa(lp4238
I0
aI0
aI0
aasg13
(tsg14
I0
sg15
g16
ssS'vasprintf'
p4239
(dp4240
g7
g8
sg9
(lp4241
sg11
(lp4242
sg13
(tsg14
I3
sg15
g16
ssS'strspn'
p4243
(dp4244
g7
g8
sg9
(lp4245
sg11
(lp4246
sg13
(tsg14
I0
sg15
g16
ssS'get_next_syslog_record'
p4247
(dp4248
g7
g8
sg9
(lp4249
sg11
(lp4250
sg13
(tsg14
I2
sg15
g16
ssS'__builtin___snprintf_chk'
p4251
(dp4252
g7
g8
sg9
(lp4253
sg11
(lp4254
sg13
(tsg14
I0
sg15
g16
ssS'getpid'
p4255
(dp4256
g7
g8
sg9
(lp4257
sg11
(lp4258
sg13
(tsg14
I0
sg15
g16
ssS'closedir'
p4259
(dp4260
g7
g8
sg9
(lp4261
sg11
(lp4262
sg13
(tsg14
I0
sg15
g16
ssS'strtime_iso'
p4263
(dp4264
g7
g8
sg9
(lp4265
sg11
(lp4266
(lp4267
I65
aI86
aa(lp4268
I65
aI85
aa(lp4269
I73
aI137
aI206
aa(lp4270
I65
aI84
aa(lp4271
I85
aa(lp4272
I137
aI245
aa(lp4273
I83
aa(lp4274
I73
aI137
aI252
aa(lp4275
I73
aI137
aI213
aa(lp4276
I72
aI131
aI236
aI64
aa(lp4277
I100
aI72
aI139
aI4
aI37
aI40
aI0
aa(lp4278
I0
aI0
aa(lp4279
I72
aI137
aI68
aI36
aI56
aa(lp4280
I49
aI192
aa(lp4281
I72
aI137
aI227
aa(lp4282
I131
aI230
aI64
aa(lp4283
I72
aI137
aI222
aa(lp4284
I116
aI62
aa(lp4285
I232
aI41
aI151
aI255
aI255
aa(lp4286
I72
aI133
aI192
aa(lp4287
I116
aI59
aa(lp4288
I77
aI137
aI240
aa(lp4289
I76
aI137
aI233
aa(lp4290
I137
aI234
aa(lp4291
I49
aI246
aa(lp4292
I72
aI137
aI223
aa(lp4293
I232
aI194
aI252
aI255
aI255
aa(lp4294
I72
aI139
aI76
aI36
aI56
aa(lp4295
I100
aI72
aI51
aI12
aI37
aI40
aI0
aa(lp4296
I0
aI0
aa(lp4297
I117
aI64
aa(lp4298
I72
aI131
aI196
aI64
aa(lp4299
I91
aa(lp4300
I93
aa(lp4301
I65
aI92
aa(lp4302
I65
aI93
aa(lp4303
I65
aI94
aa(lp4304
I195
aasg13
(I39888
I40051
tp4305
sg14
I4
sg15
g16
ssS'colors_wanted'
p4306
(dp4307
g7
g8
sg9
(lp4308
sg11
(lp4309
(lp4310
I15
aI182
aI5
aI13
aI120
aI32
aI0
aa(lp4311
I131
aI224
aI1
aa(lp4312
I195
aasg13
(I44224
I44235
tp4313
sg14
I0
sg15
g16
ssS'__ctype_tolower_loc'
p4314
(dp4315
g7
g8
sg9
(lp4316
sg11
(lp4317
sg13
(tsg14
I0
sg15
g16
ssS'getopt_long'
p4318
(dp4319
g7
g8
sg9
(lp4320
sg11
(lp4321
sg13
(tsg14
I0
sg15
g16
ssS'strtime_short'
p4322
(dp4323
g7
g8
sg9
(lp4324
sg11
(lp4325
(lp4326
I65
aI87
aa(lp4327
I65
aI86
aa(lp4328
I73
aI137
aI255
aa(lp4329
I65
aI85
aa(lp4330
I65
aI84
aa(lp4331
I65
aI137
aI214
aa(lp4332
I85
aa(lp4333
I83
aa(lp4334
I73
aI137
aI205
aa(lp4335
I72
aI137
aI243
aa(lp4336
I77
aI137
aI196
aa(lp4337
I72
aI129
aI236
aI136
aI0
aI0
aI0
aa(lp4338
I100
aI72
aI139
aI4
aI37
aI40
aI0
aa(lp4339
I0
aI0
aa(lp4340
I72
aI137
aI68
aI36
aI120
aa(lp4341
I49
aI192
aa(lp4342
I72
aI131
aI62
aI0
aa(lp4343
I15
aI132
aI158
aI0
aI0
aI0
aa(lp4344
I72
aI137
aI229
aa(lp4345
I76
aI137
aI255
aa(lp4346
I72
aI137
aI238
aa(lp4347
I232
aI104
aI148
aI255
aI255
aa(lp4348
I72
aI141
aI116
aI36
aI64
aa(lp4349
I72
aI137
aI223
aa(lp4350
I232
aI91
aI148
aI255
aI255
aa(lp4351
I139
aI68
aI36
aI92
aa(lp4352
I57
aI68
aI36
aI28
aa(lp4353
I139
aI68
aI36
aI84
aa(lp4354
I116
aI85
aa(lp4355
I57
aI68
aI36
aI20
aa(lp4356
I117
aI85
aa(lp4357
I65
aI131
aI230
aI2
aa(lp4358
I72
aI137
aI233
aa(lp4359
I116
aI126
aa(lp4360
I72
aI141
aI21
aI248
aI45
aI0
aI0
aa(lp4361
I76
aI137
aI230
aa(lp4362
I76
aI137
aI239
aa(lp4363
I232
aI28
aI153
aI255
aI255
aa(lp4364
I133
aI192
aa(lp4365
I15
aI158
aI192
aa(lp4366
I15
aI182
aI192
aa(lp4367
I247
aI216
aa(lp4368
I72
aI139
aI84
aI36
aI120
aa(lp4369
I100
aI72
aI51
aI20
aI37
aI40
aI0
aa(lp4370
I0
aI0
aa(lp4371
I15
aI133
aI168
aI0
aI0
aI0
aa(lp4372
I72
aI129
aI196
aI136
aI0
aI0
aI0
aa(lp4373
I91
aa(lp4374
I93
aa(lp4375
I65
aI92
aa(lp4376
I65
aI93
aa(lp4377
I65
aI94
aa(lp4378
I65
aI95
aa(lp4379
I195
aasg13
(I40064
I40399
tp4380
sg14
I5
sg15
g16
ssS'strnchr'
p4381
(dp4382
g7
g8
sg9
(lp4383
sg11
(lp4384
(lp4385
I72
aI133
aI246
aa(lp4386
I116
aI47
aa(lp4387
I15
aI182
aI7
aa(lp4388
I132
aI192
aa(lp4389
I116
aI40
aa(lp4390
I56
aI208
aa(lp4391
I137
aI209
aa(lp4392
I116
aI46
aa(lp4393
I72
aI1
aI254
aa(lp4394
I235
aI20
aa(lp4395
I102
aI15
aI31
aI132
aI0
aI0
aI0
aa(lp4396
I0
aI0
aa(lp4397
I15
aI182
aI7
aa(lp4398
I132
aI192
aa(lp4399
I116
aI13
aa(lp4400
I56
aI200
aa(lp4401
I116
aI21
aa(lp4402
I72
aI131
aI199
aI1
aa(lp4403
I72
aI57
aI254
aa(lp4404
I117
aI236
aa(lp4405
I49
aI192
aa(lp4406
I195
aasg13
(I31280
I31348
tp4407
sg14
I3
sg15
g16
ssS'read_kmsg'
p4408
(dp4409
g7
g8
sg9
(lp4410
sg11
(lp4411
sg13
(tsg14
I1
sg15
g16
ssS'pager_close'
p4412
(dp4413
g7
g8
sg9
(lp4414
sg11
(lp4415
(lp4416
I139
aI5
aI50
aI177
aI32
aI0
aa(lp4417
I133
aI192
aa(lp4418
I117
aI6
aa(lp4419
I243
aI195
aa(lp4420
I15
aI31
aI64
aI0
aa(lp4421
I83
aa(lp4422
I72
aI141
aI29
aI24
aI177
aI32
aI0
aa(lp4423
I232
aI83
aI249
aI255
aI255
aa(lp4424
I139
aI61
aI41
aI177
aI32
aI0
aa(lp4425
I190
aI1
aI0
aI0
aI0
aa(lp4426
I232
aI131
aI194
aI255
aI255
aa(lp4427
I139
aI61
aI21
aI177
aI32
aI0
aa(lp4428
I190
aI2
aI0
aI0
aI0
aa(lp4429
I232
aI115
aI194
aI255
aI255
aa(lp4430
I139
aI61
aI9
aI177
aI32
aI0
aa(lp4431
I232
aI88
aI195
aI255
aI255
aa(lp4432
I139
aI61
aI250
aI176
aI32
aI0
aa(lp4433
I232
aI77
aI195
aI255
aI255
aa(lp4434
I72
aI141
aI115
aI32
aa(lp4435
I49
aI210
aa(lp4436
I191
aI2
aI0
aI0
aI0
aa(lp4437
I232
aI13
aI193
aI255
aI255
aa(lp4438
I72
aI141
aI179
aI184
aI0
aI0
aI0
aa(lp4439
I49
aI210
aa(lp4440
I191
aI1
aI0
aI0
aI0
aa(lp4441
I232
aI250
aI192
aI255
aI255
aa(lp4442
I72
aI141
aI179
aI80
aI1
aI0
aI0
aa(lp4443
I49
aI210
aa(lp4444
I191
aI15
aI0
aI0
aI0
aa(lp4445
I232
aI231
aI192
aI255
aI255
aa(lp4446
I72
aI141
aI179
aI232
aI1
aI0
aI0
aa(lp4447
I49
aI210
aa(lp4448
I191
aI3
aI0
aI0
aI0
aa(lp4449
I232
aI212
aI192
aI255
aI255
aa(lp4450
I72
aI141
aI179
aI128
aI2
aI0
aI0
aa(lp4451
I191
aI13
aI0
aI0
aI0
aa(lp4452
I49
aI210
aa(lp4453
I232
aI193
aI192
aI255
aI255
aa(lp4454
I72
aI137
aI223
aa(lp4455
I185
aI101
aI0
aI0
aI0
aa(lp4456
I49
aI192
aa(lp4457
I243
aI72
aI171
aa(lp4458
I91
aa(lp4459
I195
aasg13
(I28720
I28910
tp4460
sg14
I0
sg15
g16
ssS'getuid'
p4461
(dp4462
g7
g8
sg9
(lp4463
sg11
(lp4464
sg13
(tsg14
I0
sg15
g16
ssS'opendir'
p4465
(dp4466
g7
g8
sg9
(lp4467
sg11
(lp4468
sg13
(tsg14
I0
sg15
g16
ssS'termcolors_init_debug'
p4469
(dp4470
g7
g8
sg9
(lp4471
sg11
(lp4472
sg13
(tsg14
I0
sg15
g16
ssS'iswprint'
p4473
(dp4474
g7
g8
sg9
(lp4475
sg11
(lp4476
sg13
(tsg14
I0
sg15
g16
ssS'strtox16_or_err'
p4477
(dp4478
g7
g8
sg9
(lp4479
sg11
(lp4480
(lp4481
I85
aa(lp4482
I83
aa(lp4483
I186
aI16
aI0
aI0
aI0
aa(lp4484
I72
aI137
aI251
aa(lp4485
I72
aI137
aI245
aa(lp4486
I72
aI131
aI236
aI8
aa(lp4487
I232
aI42
aI248
aI255
aI255
aa(lp4488
I61
aI255
aI255
aI0
aI0
aa(lp4489
I119
aI7
aa(lp4490
I72
aI131
aI196
aI8
aa(lp4491
I91
aa(lp4492
I93
aa(lp4493
I195
aasg13
(I31408
I31455
tp4494
sg14
I2
sg15
g16
ssS'pipe'
p4495
(dp4496
g7
g8
sg9
(lp4497
sg11
(lp4498
sg13
(tsg14
I0
sg15
g16
ssS'time_is_today'
p4499
(dp4500
g7
g8
sg9
(lp4501
sg11
(lp4502
sg13
(tsg14
I2
sg15
g16
ssS'textdomain'
p4503
(dp4504
g7
g8
sg9
(lp4505
sg11
(lp4506
sg13
(tsg14
I0
sg15
g16
ssS'unmangle_to_buffer'
p4507
(dp4508
g7
g8
sg9
(lp4509
sg11
(lp4510
(lp4511
I72
aI133
aI255
aa(lp4512
I15
aI132
aI146
aI0
aI0
aI0
aa(lp4513
I49
aI201
aa(lp4514
I72
aI131
aI234
aI1
aa(lp4515
I235
aI18
aa(lp4516
I15
aI31
aI128
aI0
aI0
aI0
aI0
aa(lp4517
I72
aI131
aI199
aI1
aa(lp4518
I136
aI70
aI255
aa(lp4519
I72
aI131
aI193
aI1
aa(lp4520
I15
aI182
aI7
aa(lp4521
I132
aI192
aa(lp4522
I116
aI110
aa(lp4523
I72
aI57
aI209
aa(lp4524
I115
aI105
aa(lp4525
I72
aI131
aI198
aI1
aa(lp4526
I60
aI92
aa(lp4527
I117
aI225
aa(lp4528
I76
aI141
aI65
aI3
aa(lp4529
I73
aI57
aI208
aa(lp4530
I115
aI216
aa(lp4531
I68
aI15
aI182
aI71
aI1
aa(lp4532
I69
aI137
aI193
aa(lp4533
I65
aI131
aI225
aI248
aa(lp4534
I65
aI128
aI249
aI48
aa(lp4535
I117
aI198
aa(lp4536
I68
aI15
aI182
aI79
aI2
aa(lp4537
I69
aI137
aI202
aa(lp4538
I65
aI131
aI226
aI248
aa(lp4539
I65
aI128
aI250
aI48
aa(lp4540
I117
aI180
aa(lp4541
I68
aI15
aI182
aI87
aI3
aa(lp4542
I69
aI137
aI211
aa(lp4543
I65
aI131
aI227
aI248
aa(lp4544
I65
aI128
aI251
aI48
aa(lp4545
I117
aI162
aa(lp4546
I65
aI131
aI225
aI7
aa(lp4547
I65
aI131
aI226
aI7
aa(lp4548
I72
aI131
aI199
aI4
aa(lp4549
I71
aI141
aI4
aI193
aa(lp4550
I72
aI131
aI193
aI4
aa(lp4551
I67
aI141
aI4
aI194
aa(lp4552
I136
aI70
aI255
aa(lp4553
I235
aI144
aa(lp4554
I15
aI31
aI68
aI0
aI0
aa(lp4555
I198
aI6
aI0
aa(lp4556
I243
aI195
aa(lp4557
I15
aI31
aI0
aasg13
(tsg14
I3
sg15
g16
ssS'strtm_iso'
p4558
(dp4559
g7
g8
sg9
(lp4560
sg11
(lp4561
(lp4562
I73
aI137
aI200
aa(lp4563
I72
aI137
aI209
aa(lp4564
I137
aI242
aa(lp4565
I49
aI246
aa(lp4566
I233
aI17
aI253
aI255
aI255
aa(lp4567
I144
aasg13
(I39872
I39887
tp4568
sg14
I4
sg15
g16
ssS'colors_deinit'
p4569
(dp4570
g7
g8
sg9
(lp4571
sg11
(lp4572
sg13
(tsg14
I0
sg15
g16
ssS'time_diff'
p4573
(dp4574
g7
g8
sg9
(lp4575
sg11
(lp4576
sg13
(tsg14
I2
sg15
g16
ssS'setlinebuf'
p4577
(dp4578
g7
g8
sg9
(lp4579
sg11
(lp4580
sg13
(tsg14
I0
sg15
g16
ssS'__builtin_memcpy'
p4581
(dp4582
g7
g8
sg9
(lp4583
sg11
(lp4584
sg13
(tsg14
I0
sg15
g16
ssS'iso_8601_time'
p4585
(dp4586
g7
g8
sg9
(lp4587
sg11
(lp4588
sg13
(tsg14
I4
sg15
g16
ssS'vfprintf'
p4589
(dp4590
g7
g8
sg9
(lp4591
sg11
(lp4592
sg13
(tsg14
I3
sg15
g16
sssS'function_calls'
p4593
(dp4594
sS'binary_filename'
p4595
S'dmesg'
p4596
sS'structures'
p4597
(dp4598
sS'extern_functions'
p4599
(dp4600
sS'arch'
p4601
S'amd64'
p4602
sS'bin_raw_bytes'
p4603
g8
s.