(dp0
S'text_addr'
p1
S'0xe40'
p2
sS'functions'
p3
(dp4
S'warnx'
p5
(dp6
S'ret_type'
p7
S''
p8
sS'args_type'
p9
(lp10
sS'inst_bytes'
p11
(lp12
sS'boundaries'
p13
(tsS'num_args'
p14
I0
sS'inst_strings'
p15
(lp16
ssS'err_exclusive_options'
p17
(dp18
g7
g8
sg9
(lp19
sg11
(lp20
sg13
(tsg14
I4
sg15
g16
ssS'setlocale'
p21
(dp22
g7
g8
sg9
(lp23
sg11
(lp24
sg13
(tsg14
I0
sg15
g16
ssS'ferror'
p25
(dp26
g7
g8
sg9
(lp27
sg11
(lp28
sg13
(tsg14
I0
sg15
g16
ssS'__fprintf_chk'
p29
(dp30
g7
g8
sg9
(lp31
sg11
(lp32
sg13
(tsg14
I0
sg15
g16
ssS'errx'
p33
(dp34
g7
g8
sg9
(lp35
sg11
(lp36
sg13
(tsg14
I0
sg15
g16
ssS'fprintf'
p37
(dp38
g7
g8
sg9
(lp39
sg11
(lp40
sg13
(tsg14
I2
sg15
g16
ssS'close_stdout_atexit'
p41
(dp42
g7
g8
sg9
(lp43
sg11
(lp44
sg13
(tsg14
I0
sg15
g16
ssS'printf'
p45
(dp46
g7
g8
sg9
(lp47
sg11
(lp48
sg13
(tsg14
I1
sg15
g16
ssS'close'
p49
(dp50
g7
g8
sg9
(lp51
sg11
(lp52
sg13
(tsg14
I0
sg15
g16
ssS'bindtextdomain'
p53
(dp54
g7
g8
sg9
(lp55
sg11
(lp56
sg13
(tsg14
I0
sg15
g16
ssS'open'
p57
(dp58
g7
g8
sg9
(lp59
sg11
(lp60
sg13
(tsg14
I2
sg15
g16
ssS'fflush'
p61
(dp62
g7
g8
sg9
(lp63
sg11
(lp64
sg13
(tsg14
I0
sg15
g16
ssS'fputc'
p65
(dp66
g7
g8
sg9
(lp67
sg11
(lp68
sg13
(tsg14
I0
sg15
g16
ssS'c_isgraph'
p69
(dp70
g7
g8
sg9
(lp71
sg11
(lp72
sg13
(tsg14
I1
sg15
g16
ssS'dcgettext'
p73
(dp74
g7
g8
sg9
(lp75
sg11
(lp76
sg13
(tsg14
I0
sg15
g16
ssS'fputs'
p77
(dp78
g7
g8
sg9
(lp79
sg11
(lp80
sg13
(tsg14
I0
sg15
g16
ssS'exit'
p81
(dp82
g7
g8
sg9
(lp83
sg11
(lp84
sg13
(tsg14
I0
sg15
g16
ssS'__fxstat'
p85
(dp86
g7
g8
sg9
(lp87
sg11
(lp88
sg13
(tsg14
I0
sg15
g16
ssS'usage'
p89
(dp90
g7
g8
sg9
(lp91
sg11
(lp92
sg13
(tsg14
I0
sg15
g16
ssS'main'
p93
(dp94
g7
g8
sg9
(lp95
sg11
(lp96
(lp97
I65
aI84
aa(lp98
I85
aa(lp99
I73
aI137
aI244
aa(lp100
I83
aa(lp101
I72
aI141
aI53
aI60
aI9
aI0
aI0
aa(lp102
I137
aI253
aa(lp103
I191
aI6
aI0
aI0
aI0
aa(lp104
I49
aI219
aa(lp105
I72
aI129
aI236
aI176
aI0
aI0
aI0
aa(lp106
I100
aI72
aI139
aI4
aI37
aI40
aI0
aa(lp107
I0
aI0
aa(lp108
I72
aI137
aI132
aI36
aI168
aI0
aI0
aI0
aa(lp109
I49
aI192
aa(lp110
I72
aI199
aI68
aI36
aI8
aI0
aI0
aa(lp111
I0
aI0
aa(lp112
I232
aI81
aI255
aI255
aI255
aa(lp113
I72
aI141
aI53
aI74
aI8
aI0
aI0
aa(lp114
I72
aI141
aI61
aI85
aI8
aI0
aI0
aa(lp115
I232
aI78
aI254
aI255
aI255
aa(lp116
I72
aI141
aI61
aI73
aI8
aI0
aI0
aa(lp117
I232
aI50
aI254
aI255
aI255
aa(lp118
I72
aI141
aI61
aI43
aI6
aI0
aI0
aa(lp119
I232
aI230
aI7
aI0
aI0
aa(lp120
I72
aI141
aI13
aI175
aI13
aI32
aI0
aa(lp121
I72
aI141
aI21
aI5
aI9
aI0
aI0
aa(lp122
I69
aI49
aI192
aa(lp123
I76
aI137
aI230
aa(lp124
I137
aI239
aa(lp125
I232
aI75
aI254
aI255
aI255
aa(lp126
I131
aI248
aI255
aa(lp127
I15
aI132
aI124
aI1
aI0
aI0
aa(lp128
I131
aI248
aI101
aa(lp129
I126
aI74
aa(lp130
I72
aI141
aI76
aI36
aI8
aa(lp131
I72
aI141
aI29
aI161
aI10
aI0
aI0
aa(lp132
I186
aI102
aI0
aI0
aI0
aa(lp133
I15
aI31
aI64
aI0
aa(lp134
I57
aI208
aa(lp135
I124
aI31
aa(lp136
I116
aI21
aa(lp137
I72
aI137
aI222
aa(lp138
I72
aI131
aI198
aI4
aa(lp139
I139
aI22
aa(lp140
I57
aI208
aa(lp141
I124
aI16
aa(lp142
I133
aI210
aa(lp143
I116
aI12
aa(lp144
I57
aI208
aa(lp145
I117
aI238
aa(lp146
I139
aI17
aa(lp147
I133
aI210
aa(lp148
I117
aI103
aa(lp149
I137
aI1
aa(lp150
I72
aI131
aI195
aI64
aa(lp151
I139
aI19
aa(lp152
I72
aI131
aI193
aI4
aa(lp153
I133
aI210
aa(lp154
I116
aI4
aa(lp155
I57
aI208
aa(lp156
I125
aI203
aa(lp157
I131
aI248
aI102
aa(lp158
I15
aI132
aI26
aI1
aI0
aI0
aa(lp159
I15
aI143
aI244
aI0
aI0
aI0
aa(lp160
I131
aI248
aI86
aa(lp161
I15
aI133
aI188
aI2
aI0
aI0
aa(lp162
I72
aI139
aI29
aI228
aI16
aI32
aI0
aa(lp163
I72
aI141
aI53
aI84
aI8
aI0
aI0
aa(lp164
I186
aI5
aI0
aI0
aI0
aa(lp165
I49
aI255
aa(lp166
I232
aI161
aI253
aI255
aI255
aa(lp167
I72
aI141
aI13
aI77
aI8
aI0
aI0
aa(lp168
I72
aI137
aI198
aa(lp169
I191
aI1
aI0
aI0
aI0
aa(lp170
I72
aI137
aI218
aa(lp171
I49
aI192
aa(lp172
I232
aI120
aI254
aI255
aI255
aa(lp173
I49
aI255
aa(lp174
I232
aI161
aI254
aI255
aI255
aa(lp175
I144
aa(lp176
I57
aI208
aa(lp177
I116
aI151
aa(lp178
I72
aI141
aI53
aI205
aI8
aI0
aI0
aa(lp179
I72
aI139
aI45
aI158
aI16
aI32
aI0
aa(lp180
I186
aI5
aI0
aI0
aI0
aa(lp181
I49
aI255
aa(lp182
I76
aI141
aI37
aI175
aI7
aI0
aI0
aa(lp183
I232
aI91
aI253
aI255
aI255
aa(lp184
I72
aI139
aI61
aI164
aI16
aI32
aI0
aa(lp185
I72
aI137
aI233
aa(lp186
I72
aI137
aI194
aa(lp187
I190
aI1
aI0
aI0
aI0
aa(lp188
I49
aI192
aa(lp189
I49
aI237
aa(lp190
I232
aI112
aI254
aI255
aI255
aa(lp191
I139
aI12
aI43
aa(lp192
I133
aI201
aa(lp193
I116
aI72
aa(lp194
I76
aI137
aI226
aa(lp195
I72
aI141
aI5
aI159
aI12
aI32
aI0
aa(lp196
I235
aI16
aa(lp197
I72
aI131
aI192
aI32
aa(lp198
I72
aI139
aI16
aa(lp199
I72
aI133
aI210
aa(lp200
I15
aI132
aI180
aI1
aI0
aI0
aa(lp201
I59
aI72
aI24
aa(lp202
I117
aI235
aa(lp203
I72
aI139
aI61
aI97
aI16
aI32
aI0
aa(lp204
I72
aI137
aI209
aa(lp205
I72
aI141
aI21
aI77
aI8
aI0
aI0
aa(lp206
I190
aI1
aI0
aI0
aI0
aa(lp207
I49
aI192
aa(lp208
I232
aI43
aI254
aI255
aI255
aa(lp209
I72
aI131
aI197
aI4
aa(lp210
I72
aI131
aI253
aI60
aa(lp211
I117
aI177
aa(lp212
I72
aI139
aI53
aI58
aI16
aI32
aI0
aa(lp213
I191
aI10
aI0
aI0
aI0
aa(lp214
I232
aI112
aI253
aI255
aI255
aa(lp215
I191
aI1
aI0
aI0
aI0
aa(lp216
I232
aI246
aI253
aI255
aI255
aa(lp217
I102
aI15
aI31
aI68
aI0
aI0
aa(lp218
I131
aI248
aI104
aa(lp219
I15
aI132
aI47
aI2
aI0
aI0
aa(lp220
I131
aI248
aI117
aa(lp221
I15
aI133
aI191
aI1
aI0
aI0
aa(lp222
I187
aI2
aI0
aI0
aI0
aa(lp223
I233
aI110
aI254
aI255
aI255
aa(lp224
I15
aI31
aI64
aI0
aa(lp225
I187
aI1
aI0
aI0
aI0
aa(lp226
I233
aI96
aI254
aI255
aI255
aa(lp227
I133
aI219
aa(lp228
I186
aI5
aI0
aI0
aI0
aa(lp229
I72
aI141
aI53
aI200
aI8
aI0
aI0
aa(lp230
I15
aI132
aI96
aI1
aI0
aI0
aa(lp231
I72
aI99
aI5
aI203
aI15
aI32
aI0
aa(lp232
I57
aI232
aa(lp233
I15
aI132
aI69
aI1
aI0
aI0
aa(lp234
I141
aI80
aI1
aa(lp235
I77
aI139
aI36
aI196
aa(lp236
I57
aI234
aa(lp237
I137
aI21
aI180
aI15
aI32
aI0
aa(lp238
I15
aI133
aI82
aI1
aI0
aI0
aa(lp239
I49
aI246
aa(lp240
I49
aI192
aa(lp241
I76
aI137
aI231
aa(lp242
I232
aI98
aI253
aI255
aI255
aa(lp243
I133
aI192
aa(lp244
I137
aI197
aa(lp245
I15
aI136
aI150
aI1
aI0
aI0
aa(lp246
I72
aI141
aI84
aI36
aI16
aa(lp247
I137
aI198
aa(lp248
I191
aI1
aI0
aI0
aI0
aa(lp249
I232
aI23
aI253
aI255
aI255
aa(lp250
I131
aI192
aI1
aa(lp251
I186
aI5
aI0
aI0
aI0
aa(lp252
I72
aI141
aI53
aI47
aI7
aI0
aI0
aa(lp253
I15
aI132
aI160
aI0
aI0
aI0
aa(lp254
I139
aI68
aI36
aI40
aa(lp255
I37
aI0
aI240
aI0
aI0
aa(lp256
I61
aI0
aI64
aI0
aI0
aa(lp257
I117
aI33
aa(lp258
I49
aI210
aa(lp259
I131
aI251
aI2
aa(lp260
I117
aI107
aa(lp261
I49
aI192
aa(lp262
I190
aI120
aI88
aI4
aI192
aa(lp263
I137
aI239
aa(lp264
I232
aI125
aI252
aI255
aI255
aa(lp265
I133
aI192
aa(lp266
I15
aI133
aI142
aI0
aI0
aI0
aa(lp267
I49
aI219
aa(lp268
I235
aI37
aa(lp269
I72
aI141
aI53
aI3
aI7
aI0
aI0
aa(lp270
I186
aI5
aI0
aI0
aI0
aa(lp271
I49
aI255
aa(lp272
I187
aI1
aI0
aI0
aI0
aa(lp273
I232
aI233
aI251
aI255
aI255
aa(lp274
I76
aI137
aI230
aa(lp275
I72
aI137
aI199
aa(lp276
I49
aI192
aa(lp277
I232
aI28
aI252
aI255
aI255
aa(lp278
I137
aI239
aa(lp279
I232
aI85
aI252
aI255
aI255
aa(lp280
I72
aI139
aI188
aI36
aI168
aI0
aI0
aI0
aa(lp281
I100
aI72
aI51
aI60
aI37
aI40
aI0
aa(lp282
I0
aI0
aa(lp283
I137
aI216
aa(lp284
I15
aI133
aI31
aI1
aI0
aI0
aa(lp285
I72
aI129
aI196
aI176
aI0
aI0
aI0
aa(lp286
I91
aa(lp287
I93
aa(lp288
I65
aI92
aa(lp289
I195
aasg13
(I3648
I5054
tp290
sg14
I2
sg15
g16
ssS'fstat'
p291
(dp292
g7
g8
sg9
(lp293
sg11
(lp294
sg13
(tsg14
I2
sg15
g16
ssS'flush_standard_stream'
p295
(dp296
g7
g8
sg9
(lp297
sg11
(lp298
sg13
(tsg14
I1
sg15
g16
ssS'__printf_chk'
p299
(dp300
g7
g8
sg9
(lp301
sg11
(lp302
sg13
(tsg14
I0
sg15
g16
ssS'warn'
p303
(dp304
g7
g8
sg9
(lp305
sg11
(lp306
sg13
(tsg14
I0
sg15
g16
ssS'dup'
p307
(dp308
g7
g8
sg9
(lp309
sg11
(lp310
sg13
(tsg14
I0
sg15
g16
ssS'ioctl'
p311
(dp312
g7
g8
sg9
(lp313
sg11
(lp314
sg13
(tsg14
I0
sg15
g16
ssS'getopt_long'
p315
(dp316
g7
g8
sg9
(lp317
sg11
(lp318
sg13
(tsg14
I0
sg15
g16
ssS'fileno'
p319
(dp320
g7
g8
sg9
(lp321
sg11
(lp322
sg13
(tsg14
I0
sg15
g16
ssS'err'
p323
(dp324
g7
g8
sg9
(lp325
sg11
(lp326
sg13
(tsg14
I0
sg15
g16
ssS'atexit'
p327
(dp328
g7
g8
sg9
(lp329
sg11
(lp330
(lp331
I72
aI139
aI21
aI113
aI9
aI32
aI0
aa(lp332
I49
aI246
aa(lp333
I233
aI98
aI247
aI255
aI255
aasg13
(tsg14
I0
sg15
g16
ssS'__open_alias'
p334
(dp335
g7
g8
sg9
(lp336
sg11
(lp337
sg13
(tsg14
I0
sg15
g16
ssS'__errno_location'
p338
(dp339
g7
g8
sg9
(lp340
sg11
(lp341
sg13
(tsg14
I0
sg15
g16
ssS'__stack_chk_fail'
p342
(dp343
g7
g8
sg9
(lp344
sg11
(lp345
sg13
(tsg14
I0
sg15
g16
ssS'__builtin_fputc'
p346
(dp347
g7
g8
sg9
(lp348
sg11
(lp349
sg13
(tsg14
I0
sg15
g16
ssS'close_stdout'
p350
(dp351
g7
g8
sg9
(lp352
sg11
(lp353
(lp354
I85
aa(lp355
I83
aa(lp356
I72
aI131
aI236
aI8
aa(lp357
I72
aI139
aI45
aI75
aI11
aI32
aI0
aa(lp358
I232
aI174
aI247
aI255
aI255
aa(lp359
I199
aI0
aI0
aI0
aI0
aI0
aa(lp360
I72
aI137
aI195
aa(lp361
I72
aI137
aI239
aa(lp362
I232
aI205
aI247
aI255
aI255
aa(lp363
I133
aI192
aa(lp364
I116
aI121
aa(lp365
I139
aI3
aa(lp366
I131
aI248
aI9
aa(lp367
I117
aI50
aa(lp368
I72
aI139
aI45
aI59
aI11
aI32
aI0
aa(lp369
I199
aI3
aI0
aI0
aI0
aI0
aa(lp370
I72
aI137
aI239
aa(lp371
I232
aI173
aI247
aI255
aI255
aa(lp372
I133
aI192
aa(lp373
I15
aI132
aI157
aI0
aI0
aI0
aa(lp374
I131
aI59
aI9
aa(lp375
I117
aI64
aa(lp376
I72
aI131
aI196
aI8
aa(lp377
I91
aa(lp378
I93
aa(lp379
I195
aasg13
(I5328
I5647
tp380
sg14
I0
sg15
g16
ssS'textdomain'
p381
(dp382
g7
g8
sg9
(lp383
sg11
(lp384
sg13
(tsg14
I0
sg15
g16
ssS'option_to_longopt'
p385
(dp386
g7
g8
sg9
(lp387
sg11
(lp388
sg13
(tsg14
I2
sg15
g16
ssS'_exit'
p389
(dp390
g7
g8
sg9
(lp391
sg11
(lp392
sg13
(tsg14
I0
sg15
g16
sssS'function_calls'
p393
(dp394
sS'binary_filename'
p395
S'fsfreeze'
p396
sS'structures'
p397
(dp398
sS'extern_functions'
p399
(dp400
sS'arch'
p401
S'amd64'
p402
sS'bin_raw_bytes'
p403
g8
s.