(dp0
S'text_addr'
p1
S'0x12e0'
p2
sS'functions'
p3
(dp4
S'warnx'
p5
(dp6
S'ret_type'
p7
S''
p8
sS'args_type'
p9
(lp10
sS'inst_bytes'
p11
(lp12
sS'boundaries'
p13
(tsS'num_args'
p14
I0
sS'inst_strings'
p15
(lp16
ssS'__builtin_puts'
p17
(dp18
g7
g8
sg9
(lp19
sg11
(lp20
sg13
(tsg14
I0
sg15
g16
ssS'__assert_fail'
p21
(dp22
g7
g8
sg9
(lp23
sg11
(lp24
sg13
(tsg14
I0
sg15
g16
ssS'setlocale'
p25
(dp26
g7
g8
sg9
(lp27
sg11
(lp28
sg13
(tsg14
I0
sg15
g16
ssS'realloc'
p29
(dp30
g7
g8
sg9
(lp31
sg11
(lp32
sg13
(tsg14
I0
sg15
g16
ssS'print_normalized'
p33
(dp34
g7
g8
sg9
(lp35
sg11
(lp36
(lp37
I65
aI86
aa(lp38
I65
aI85
aa(lp39
I65
aI84
aa(lp40
I85
aa(lp41
I72
aI137
aI245
aa(lp42
I83
aa(lp43
I246
aI71
aI40
aI8
aa(lp44
I15
aI132
aI3
aI1
aI0
aI0
aa(lp45
I73
aI137
aI253
aa(lp46
I72
aI137
aI247
aa(lp47
I232
aI64
aI245
aI255
aI255
aa(lp48
I72
aI141
aI28
aI133
aI3
aI0
aI0
aI0
aa(lp49
I72
aI137
aI223
aa(lp50
I232
aI0
aI246
aI255
aI255
aa(lp51
I72
aI133
aI192
aa(lp52
I73
aI137
aI198
aa(lp53
I15
aI132
aI69
aI1
aI0
aI0
aa(lp54
I15
aI182
aI93
aI0
aa(lp55
I76
aI141
aI96
aI1
aa(lp56
I198
aI0
aI39
aa(lp57
I132
aI219
aa(lp58
I116
aI125
aa(lp59
I69
aI139
aI109
aI0
aa(lp60
I235
aI36
aa(lp61
I15
aI31
aI128
aI0
aI0
aI0
aI0
aa(lp62
I128
aI251
aI39
aa(lp63
I15
aI132
aI159
aI0
aI0
aI0
aa(lp64
I65
aI136
aI28
aI36
aa(lp65
I73
aI131
aI196
aI1
aa(lp66
I72
aI131
aI197
aI1
aa(lp67
I15
aI182
aI93
aI0
aa(lp68
I132
aI219
aa(lp69
I116
aI83
aa(lp70
I65
aI131
aI253
aI1
aa(lp71
I117
aI221
aa(lp72
I128
aI251
aI33
aa(lp73
I15
aI132
aI236
aI0
aI0
aI0
aa(lp74
I128
aI251
aI92
aa(lp75
I15
aI132
aI203
aI0
aI0
aI0
aa(lp76
I128
aI251
aI10
aa(lp77
I15
aI132
aI170
aI0
aI0
aI0
aa(lp78
I232
aI53
aI246
aI255
aI255
aa(lp79
I72
aI139
aI8
aa(lp80
I72
aI15
aI190
aI211
aa(lp81
I246
aI68
aI81
aI1
aI32
aa(lp82
I116
aI175
aa(lp83
I186
aI39
aI92
aI0
aI0
aa(lp84
I65
aI136
aI92
aI36
aI2
aa(lp85
I65
aI198
aI68
aI36
aI3
aI39
aa(lp86
I102
aI65
aI137
aI20
aI36
aa(lp87
I73
aI131
aI196
aI4
aa(lp88
I235
aI165
aa(lp89
I15
aI31
aI64
aI0
aa(lp90
I184
aI39
aI0
aI0
aI0
aa(lp91
I72
aI141
aI53
aI15
aI6
aI0
aI0
aa(lp92
I76
aI137
aI242
aa(lp93
I102
aI65
aI137
aI4
aI36
aa(lp94
I191
aI1
aI0
aI0
aI0
aa(lp95
I49
aI192
aa(lp96
I232
aI136
aI245
aI255
aI255
aa(lp97
I91
aa(lp98
I76
aI137
aI247
aa(lp99
I93
aa(lp100
I65
aI92
aa(lp101
I65
aI93
aa(lp102
I65
aI94
aa(lp103
I233
aI184
aI243
aI255
aI255
aa(lp104
I15
aI31
aI132
aI0
aI0
aI0
aI0
aI0
aa(lp105
I65
aI199
aI4
aI36
aI39
aI92
aI39
aa(lp106
I39
aa(lp107
I73
aI131
aI196
aI4
aa(lp108
I233
aI88
aI255
aI255
aI255
aa(lp109
I15
aI31
aI128
aI0
aI0
aI0
aI0
aa(lp110
I91
aa(lp111
I93
aa(lp112
I65
aI92
aa(lp113
I65
aI93
aa(lp114
I65
aI94
aa(lp115
I72
aI137
aI242
aa(lp116
I72
aI141
aI53
aI185
aI5
aI0
aI0
aa(lp117
I191
aI1
aI0
aI0
aI0
aa(lp118
I49
aI192
aa(lp119
I233
aI58
aI245
aI255
aI255
aa(lp120
I102
aI46
aI15
aI31
aI132
aI0
aI0
aa(lp121
I0
aI0
aI0
aa(lp122
I185
aI92
aI110
aI0
aI0
aa(lp123
I73
aI131
aI196
aI2
aa(lp124
I102
aI65
aI137
aI76
aI36
aI254
aa(lp125
I233
aI21
aI255
aI255
aI255
aa(lp126
I15
aI31
aI64
aI0
aa(lp127
I190
aI92
aI92
aI0
aI0
aa(lp128
I73
aI131
aI196
aI2
aa(lp129
I102
aI65
aI137
aI116
aI36
aI254
aa(lp130
I233
aI253
aI254
aI255
aI255
aa(lp131
I15
aI31
aI64
aI0
aa(lp132
I65
aI199
aI4
aI36
aI39
aI92
aI33
aa(lp133
I39
aa(lp134
I73
aI131
aI196
aI4
aa(lp135
I233
aI232
aI254
aI255
aI255
aa(lp136
I72
aI141
aI53
aI95
aI5
aI0
aI0
aa(lp137
I72
aI137
aI218
aa(lp138
I191
aI3
aI0
aI0
aI0
aa(lp139
I49
aI192
aa(lp140
I232
aI137
aI244
aI255
aI255
aa(lp141
I102
aI15
aI31
aI132
aI0
aI0
aI0
aa(lp142
I0
aI0
aasg13
(tsg14
I2
sg15
g16
ssS'malloc'
p143
(dp144
g7
g8
sg9
(lp145
sg11
(lp146
sg13
(tsg14
I0
sg15
g16
ssS'xrealloc'
p147
(dp148
g7
g8
sg9
(lp149
sg11
(lp150
sg13
(tsg14
I2
sg15
g16
ssS'atexit'
p151
(dp152
g7
g8
sg9
(lp153
sg11
(lp154
(lp155
I72
aI139
aI21
aI129
aI29
aI32
aI0
aa(lp156
I49
aI246
aa(lp157
I233
aI242
aI239
aI255
aI255
aasg13
(tsg14
I0
sg15
g16
ssS'fprintf'
p158
(dp159
g7
g8
sg9
(lp160
sg11
(lp161
sg13
(tsg14
I2
sg15
g16
ssS'close_stdout_atexit'
p162
(dp163
g7
g8
sg9
(lp164
sg11
(lp165
sg13
(tsg14
I0
sg15
g16
ssS'printf'
p166
(dp167
g7
g8
sg9
(lp168
sg11
(lp169
sg13
(tsg14
I1
sg15
g16
ssS'close'
p170
(dp171
g7
g8
sg9
(lp172
sg11
(lp173
sg13
(tsg14
I0
sg15
g16
ssS'parse_error'
p174
(dp175
g7
g8
sg9
(lp176
sg11
(lp177
(lp178
I72
aI133
aI255
aa(lp179
I83
aa(lp180
I116
aI17
aa(lp181
I72
aI137
aI254
aa(lp182
I72
aI141
aI61
aI132
aI7
aI0
aI0
aa(lp183
I49
aI192
aa(lp184
I232
aI41
aI246
aI255
aI255
aa(lp185
I72
aI141
aI53
aI42
aI9
aI0
aI0
aa(lp186
I72
aI139
aI29
aI187
aI36
aI32
aI0
aa(lp187
I186
aI5
aI0
aI0
aI0
aa(lp188
I49
aI255
aa(lp189
I232
aI207
aI245
aI255
aI255
aa(lp190
I72
aI139
aI61
aI232
aI36
aI32
aI0
aa(lp191
I72
aI137
aI194
aa(lp192
I72
aI137
aI217
aa(lp193
I190
aI1
aI0
aI0
aI0
aa(lp194
I49
aI192
aa(lp195
I232
aI22
aI247
aI255
aI255
aa(lp196
I191
aI2
aI0
aI0
aI0
aa(lp197
I232
aI252
aI246
aI255
aI255
aa(lp198
I102
aI144
aa(lp199
I102
aI46
aI15
aI31
aI132
aI0
aI0
aa(lp200
I0
aI0
aI0
aasg13
(I6976
I7060
tp201
sg14
I1
sg15
g16
ssS'bindtextdomain'
p202
(dp203
g7
g8
sg9
(lp204
sg11
(lp205
sg13
(tsg14
I0
sg15
g16
ssS'strlen'
p206
(dp207
g7
g8
sg9
(lp208
sg11
(lp209
sg13
(tsg14
I0
sg15
g16
ssS'fflush'
p210
(dp211
g7
g8
sg9
(lp212
sg11
(lp213
sg13
(tsg14
I0
sg15
g16
ssS'strchr'
p214
(dp215
g7
g8
sg9
(lp216
sg11
(lp217
sg13
(tsg14
I0
sg15
g16
ssS'strtok'
p218
(dp219
g7
g8
sg9
(lp220
sg11
(lp221
sg13
(tsg14
I0
sg15
g16
ssS'__ctype_b_loc'
p222
(dp223
g7
g8
sg9
(lp224
sg11
(lp225
sg13
(tsg14
I0
sg15
g16
ssS'textdomain'
p226
(dp227
g7
g8
sg9
(lp228
sg11
(lp229
sg13
(tsg14
I0
sg15
g16
ssS'dcgettext'
p230
(dp231
g7
g8
sg9
(lp232
sg11
(lp233
sg13
(tsg14
I0
sg15
g16
ssS'xstrdup'
p234
(dp235
g7
g8
sg9
(lp236
sg11
(lp237
(lp238
I72
aI131
aI236
aI8
aa(lp239
I72
aI133
aI255
aa(lp240
I116
aI15
aa(lp241
I232
aI2
aI247
aI255
aI255
aa(lp242
I72
aI133
aI192
aa(lp243
I116
aI36
aa(lp244
I72
aI131
aI196
aI8
aa(lp245
I195
aasg13
(tsg14
I1
sg15
g16
ssS'exit'
p246
(dp247
g7
g8
sg9
(lp248
sg11
(lp249
sg13
(tsg14
I0
sg15
g16
ssS'__builtin_strcpy'
p250
(dp251
g7
g8
sg9
(lp252
sg11
(lp253
sg13
(tsg14
I0
sg15
g16
ssS'usage'
p254
(dp255
g7
g8
sg9
(lp256
sg11
(lp257
sg13
(tsg14
I0
sg15
g16
ssS'strdup'
p258
(dp259
g7
g8
sg9
(lp260
sg11
(lp261
sg13
(tsg14
I0
sg15
g16
ssS'main'
p262
(dp263
g7
g8
sg9
(lp264
sg11
(lp265
(lp266
I102
aI15
aI239
aI192
aa(lp267
I65
aI87
aa(lp268
I65
aI86
aa(lp269
I65
aI85
aa(lp270
I65
aI84
aa(lp271
I85
aa(lp272
I72
aI137
aI245
aa(lp273
I83
aa(lp274
I72
aI141
aI53
aI101
aI16
aI0
aI0
aa(lp275
I65
aI137
aI252
aa(lp276
I191
aI6
aI0
aI0
aI0
aa(lp277
I72
aI131
aI236
aI72
aa(lp278
I15
aI41
aI68
aI36
aI32
aa(lp279
I100
aI72
aI139
aI4
aI37
aI40
aI0
aa(lp280
I0
aI0
aa(lp281
I72
aI137
aI68
aI36
aI56
aa(lp282
I49
aI192
aa(lp283
I15
aI41
aI4
aI36
aa(lp284
I15
aI41
aI68
aI36
aI16
aa(lp285
I128
aI76
aI36
aI40
aI8
aa(lp286
I232
aI36
aI255
aI255
aI255
aa(lp287
I72
aI141
aI53
aI217
aI15
aI0
aI0
aa(lp288
I72
aI141
aI61
aI228
aI15
aI0
aI0
aa(lp289
I232
aI241
aI253
aI255
aI255
aa(lp290
I72
aI141
aI61
aI216
aI15
aI0
aI0
aa(lp291
I232
aI213
aI253
aI255
aI255
aa(lp292
I72
aI141
aI61
aI110
aI13
aI0
aI0
aa(lp293
I232
aI41
aI15
aI0
aI0
aa(lp294
I72
aI141
aI61
aI203
aI15
aI0
aI0
aa(lp295
I232
aI45
aI253
aI255
aI255
aa(lp296
I72
aI133
aI192
aa(lp297
I116
aI5
aa(lp298
I128
aI76
aI36
aI40
aI1
aa(lp299
I65
aI131
aI252
aI1
aa(lp300
I117
aI60
aa(lp301
I246
aI68
aI36
aI40
aI1
aa(lp302
I15
aI132
aI72
aI6
aI0
aI0
aa(lp303
I72
aI141
aI61
aI119
aI15
aI0
aI0
aa(lp304
I232
aI118
aI253
aI255
aI255
aa(lp305
I49
aI192
aa(lp306
I72
aI139
aI76
aI36
aI56
aa(lp307
I100
aI72
aI51
aI12
aI37
aI40
aI0
aa(lp308
I0
aI0
aa(lp309
I15
aI133
aI130
aI3
aI0
aI0
aa(lp310
I72
aI131
aI196
aI72
aa(lp311
I91
aa(lp312
I93
aa(lp313
I65
aI92
aa(lp314
I65
aI93
aa(lp315
I65
aI94
aa(lp316
I65
aI95
aa(lp317
I195
aasg13
(I4832
I6701
tp318
sg14
I2
sg15
g16
ssS'ferror'
p319
(dp320
g7
g8
sg9
(lp321
sg11
(lp322
sg13
(tsg14
I0
sg15
g16
ssS'shell_type'
p323
(dp324
g7
g8
sg9
(lp325
sg11
(lp326
sg13
(tsg14
I1
sg15
g16
ssS'flush_standard_stream'
p327
(dp328
g7
g8
sg9
(lp329
sg11
(lp330
sg13
(tsg14
I1
sg15
g16
ssS'add_long_options'
p331
(dp332
g7
g8
sg9
(lp333
sg11
(lp334
sg13
(tsg14
I2
sg15
g16
ssS'__printf_chk'
p335
(dp336
g7
g8
sg9
(lp337
sg11
(lp338
sg13
(tsg14
I0
sg15
g16
ssS'free'
p339
(dp340
g7
g8
sg9
(lp341
sg11
(lp342
sg13
(tsg14
I0
sg15
g16
ssS'getenv'
p343
(dp344
g7
g8
sg9
(lp345
sg11
(lp346
sg13
(tsg14
I0
sg15
g16
ssS'generate_output'
p347
(dp348
g7
g8
sg9
(lp349
sg11
(lp350
(lp351
I65
aI87
aa(lp352
I65
aI86
aa(lp353
I65
aI85
aa(lp354
I65
aI84
aa(lp355
I73
aI137
aI245
aa(lp356
I85
aa(lp357
I83
aa(lp358
I65
aI137
aI212
aa(lp359
I72
aI137
aI251
aa(lp360
I72
aI131
aI236
aI40
aa(lp361
I100
aI72
aI139
aI4
aI37
aI40
aI0
aa(lp362
I0
aI0
aa(lp363
I72
aI137
aI68
aI36
aI24
aa(lp364
I49
aI192
aa(lp365
I246
aI71
aI40
aI2
aa(lp366
I116
aI10
aa(lp367
I199
aI5
aI121
aI34
aI32
aI0
aI0
aa(lp368
I0
aI0
aI0
aa(lp369
I72
aI139
aI75
aI24
aa(lp370
I72
aI139
aI83
aI8
aa(lp371
I76
aI141
aI116
aI36
aI20
aa(lp372
I76
aI141
aI61
aI130
aI5
aI0
aI0
aa(lp373
I199
aI5
aI75
aI34
aI32
aI0
aI0
aa(lp374
I0
aI0
aI0
aa(lp375
I49
aI237
aa(lp376
I102
aI15
aI31
aI132
aI0
aI0
aI0
aa(lp377
I0
aI0
aa(lp378
I77
aI137
aI240
aa(lp379
I76
aI137
aI238
aa(lp380
I68
aI137
aI231
aa(lp381
I255
aI21
aI121
aI34
aI32
aI0
aa(lp382
I131
aI248
aI255
aa(lp383
I137
aI193
aa(lp384
I15
aI132
aI238
aI0
aI0
aI0
aa(lp385
I131
aI249
aI63
aa(lp386
I15
aI132
aI205
aI0
aI0
aI0
aa(lp387
I131
aI249
aI58
aa(lp388
I15
aI132
aI196
aI0
aI0
aI0
aa(lp389
I246
aI67
aI40
aI4
aa(lp390
I15
aI133
aI191
aI0
aI0
aI0
aa(lp391
I133
aI201
aa(lp392
I116
aI82
aa(lp393
I131
aI249
aI1
aa(lp394
I15
aI132
aI128
aI0
aI0
aI0
aa(lp395
I72
aI141
aI53
aI189
aI4
aI0
aI0
aa(lp396
I137
aI202
aa(lp397
I191
aI1
aI0
aI0
aI0
aa(lp398
I49
aI192
aa(lp399
I137
aI76
aI36
aI8
aa(lp400
I232
aI20
aI244
aI255
aI255
aa(lp401
I72
aI139
aI83
aI8
aa(lp402
I139
aI76
aI36
aI8
aa(lp403
I72
aI137
aI215
aa(lp404
I137
aI206
aa(lp405
I72
aI137
aI84
aI36
aI8
aa(lp406
I232
aI13
aI243
aI255
aI255
aa(lp407
I72
aI133
aI192
aa(lp408
I72
aI139
aI84
aI36
aI8
aa(lp409
I116
aI6
aa(lp410
I128
aI120
aI1
aI58
aa(lp411
I116
aI64
aa(lp412
I72
aI139
aI75
aI24
aa(lp413
I233
aI116
aI255
aI255
aI255
aa(lp414
I72
aI99
aI68
aI36
aI20
aa(lp415
I72
aI141
aI53
aI105
aI4
aI0
aI0
aa(lp416
I191
aI1
aI0
aI0
aI0
aa(lp417
I72
aI193
aI224
aI5
aa(lp418
I72
aI3
aI67
aI24
aa(lp419
I72
aI139
aI16
aa(lp420
I49
aI192
aa(lp421
I232
aI193
aI243
aI255
aI255
aa(lp422
I72
aI99
aI68
aI36
aI20
aa(lp423
I72
aI139
aI75
aI24
aa(lp424
I72
aI193
aI224
aI5
aa(lp425
I131
aI124
aI1
aI8
aI0
aa(lp426
I116
aI54
aa(lp427
I72
aI139
aI53
aI126
aI33
aI32
aI0
aa(lp428
I72
aI137
aI223
aa(lp429
I72
aI133
aI246
aa(lp430
I73
aI15
aI68
aI247
aa(lp431
I232
aI39
aI253
aI255
aI255
aa(lp432
I72
aI139
aI75
aI24
aa(lp433
I72
aI139
aI83
aI8
aa(lp434
I233
aI26
aI255
aI255
aI255
aa(lp435
I102
aI46
aI15
aI31
aI132
aI0
aI0
aa(lp436
I0
aI0
aI0
aa(lp437
I189
aI1
aI0
aI0
aI0
aa(lp438
I72
aI139
aI75
aI24
aa(lp439
I72
aI139
aI83
aI8
aa(lp440
I233
aI254
aI254
aI255
aI255
aa(lp441
I102
aI15
aI31
aI68
aI0
aI0
aa(lp442
I246
aI67
aI40
aI4
aa(lp443
I116
aI112
aa(lp444
I139
aI67
aI36
aa(lp445
I199
aI68
aI36
aI20
aI0
aI0
aI0
aI0
aa(lp446
I133
aI192
aa(lp447
I126
aI37
aa(lp448
I49
aI192
aa(lp449
I144
aa(lp450
I72
aI152
aa(lp451
I72
aI193
aI224
aI5
aa(lp452
I72
aI3
aI67
aI24
aa(lp453
I72
aI139
aI56
aa(lp454
I232
aI126
aI241
aI255
aI255
aa(lp455
I139
aI68
aI36
aI20
aa(lp456
I131
aI192
aI1
aa(lp457
I59
aI67
aI36
aa(lp458
I137
aI68
aI36
aI20
aa(lp459
I124
aI222
aa(lp460
I72
aI139
aI123
aI24
aa(lp461
I232
aI101
aI241
aI255
aI255
aa(lp462
I72
aI139
aI123
aI8
aa(lp463
I232
aI92
aI241
aI255
aI255
aa(lp464
I72
aI139
aI123
aI16
aa(lp465
I232
aI83
aI241
aI255
aI255
aa(lp466
I72
aI139
aI116
aI36
aI24
aa(lp467
I100
aI72
aI51
aI52
aI37
aI40
aI0
aa(lp468
I0
aI0
aa(lp469
I137
aI232
aa(lp470
I117
aI98
aa(lp471
I72
aI131
aI196
aI40
aa(lp472
I91
aa(lp473
I93
aa(lp474
I65
aI92
aa(lp475
I65
aI93
aa(lp476
I65
aI94
aa(lp477
I65
aI95
aa(lp478
I195
aasg13
(I7568
I8134
tp479
sg14
I3
sg15
g16
ssS'dup'
p480
(dp481
g7
g8
sg9
(lp482
sg11
(lp483
sg13
(tsg14
I0
sg15
g16
ssS'getopt_long'
p484
(dp485
g7
g8
sg9
(lp486
sg11
(lp487
sg13
(tsg14
I0
sg15
g16
ssS'__builtin_putchar'
p488
(dp489
g7
g8
sg9
(lp490
sg11
(lp491
sg13
(tsg14
I0
sg15
g16
ssS'fileno'
p492
(dp493
g7
g8
sg9
(lp494
sg11
(lp495
sg13
(tsg14
I0
sg15
g16
ssS'fputs'
p496
(dp497
g7
g8
sg9
(lp498
sg11
(lp499
sg13
(tsg14
I0
sg15
g16
ssS'err'
p500
(dp501
g7
g8
sg9
(lp502
sg11
(lp503
sg13
(tsg14
I0
sg15
g16
ssS'__fprintf_chk'
p504
(dp505
g7
g8
sg9
(lp506
sg11
(lp507
sg13
(tsg14
I0
sg15
g16
ssS'add_longopt'
p508
(dp509
g7
g8
sg9
(lp510
sg11
(lp511
(lp512
I65
aI85
aa(lp513
I65
aI84
aa(lp514
I73
aI137
aI245
aa(lp515
I85
aa(lp516
I83
aa(lp517
I72
aI137
aI253
aa(lp518
I72
aI131
aI236
aI24
aa(lp519
I72
aI99
aI95
aI36
aa(lp520
I139
aI71
aI32
aa(lp521
I72
aI139
aI127
aI24
aa(lp522
I57
aI216
aa(lp523
I116
aI113
aa(lp524
I72
aI193
aI227
aI5
aa(lp525
I72
aI1
aI251
aa(lp526
I77
aI133
aI237
aa(lp527
I117
aI45
aa(lp528
I72
aI199
aI3
aI0
aI0
aI0
aI0
aa(lp529
I199
aI67
aI8
aI0
aI0
aI0
aI0
aa(lp530
I72
aI199
aI67
aI16
aI0
aI0
aI0
aI0
aa(lp531
I199
aI67
aI24
aI0
aI0
aI0
aI0
aa(lp532
I72
aI131
aI196
aI24
aa(lp533
I91
aa(lp534
I93
aa(lp535
I65
aI92
aa(lp536
I65
aI93
aa(lp537
I195
aasg13
(I8144
I8378
tp538
sg14
I3
sg15
g16
ssS'__errno_location'
p539
(dp540
g7
g8
sg9
(lp541
sg11
(lp542
sg13
(tsg14
I0
sg15
g16
ssS'__stack_chk_fail'
p543
(dp544
g7
g8
sg9
(lp545
sg11
(lp546
sg13
(tsg14
I0
sg15
g16
ssS'warn'
p547
(dp548
g7
g8
sg9
(lp549
sg11
(lp550
sg13
(tsg14
I0
sg15
g16
ssS'__builtin_fputc'
p551
(dp552
g7
g8
sg9
(lp553
sg11
(lp554
sg13
(tsg14
I0
sg15
g16
ssS'close_stdout'
p555
(dp556
g7
g8
sg9
(lp557
sg11
(lp558
(lp559
I85
aa(lp560
I83
aa(lp561
I72
aI131
aI236
aI8
aa(lp562
I72
aI139
aI45
aI91
aI31
aI32
aI0
aa(lp563
I232
aI238
aI239
aI255
aI255
aa(lp564
I199
aI0
aI0
aI0
aI0
aI0
aa(lp565
I72
aI137
aI195
aa(lp566
I72
aI137
aI239
aa(lp567
I232
aI45
aI240
aI255
aI255
aa(lp568
I133
aI192
aa(lp569
I116
aI121
aa(lp570
I139
aI3
aa(lp571
I131
aI248
aI9
aa(lp572
I117
aI50
aa(lp573
I72
aI139
aI45
aI107
aI31
aI32
aI0
aa(lp574
I199
aI3
aI0
aI0
aI0
aI0
aa(lp575
I72
aI137
aI239
aa(lp576
I232
aI13
aI240
aI255
aI255
aa(lp577
I133
aI192
aa(lp578
I15
aI132
aI157
aI0
aI0
aI0
aa(lp579
I131
aI59
aI9
aa(lp580
I117
aI64
aa(lp581
I72
aI131
aI196
aI8
aa(lp582
I91
aa(lp583
I93
aa(lp584
I195
aasg13
(I8384
I8703
tp585
sg14
I0
sg15
g16
ssS'strcpy'
p586
(dp587
g7
g8
sg9
(lp588
sg11
(lp589
sg13
(tsg14
I2
sg15
g16
ssS'strspn'
p590
(dp591
g7
g8
sg9
(lp592
sg11
(lp593
sg13
(tsg14
I0
sg15
g16
ssS'_exit'
p594
(dp595
g7
g8
sg9
(lp596
sg11
(lp597
sg13
(tsg14
I0
sg15
g16
ssS'xmalloc'
p598
(dp599
g7
g8
sg9
(lp600
sg11
(lp601
sg13
(tsg14
I1
sg15
g16
ssS'strcmp'
p602
(dp603
g7
g8
sg9
(lp604
sg11
(lp605
sg13
(tsg14
I0
sg15
g16
sssS'function_calls'
p606
(dp607
sS'binary_filename'
p608
S'getopt'
p609
sS'structures'
p610
(dp611
sS'extern_functions'
p612
(dp613
sS'arch'
p614
S'amd64'
p615
sS'bin_raw_bytes'
p616
g8
s.