(dp0
S'text_addr'
p1
S'0x12e0'
p2
sS'functions'
p3
(dp4
S'rename'
p5
(dp6
S'ret_type'
p7
S''
p8
sS'args_type'
p9
(lp10
sS'inst_bytes'
p11
(lp12
sS'boundaries'
p13
(tsS'num_args'
p14
I0
sS'inst_strings'
p15
(lp16
ssS'warnx'
p17
(dp18
g7
g8
sg9
(lp19
sg11
(lp20
sg13
(tsg14
I0
sg15
g16
ssS'__builtin_puts'
p21
(dp22
g7
g8
sg9
(lp23
sg11
(lp24
sg13
(tsg14
I0
sg15
g16
ssS'lseek'
p25
(dp26
g7
g8
sg9
(lp27
sg11
(lp28
sg13
(tsg14
I0
sg15
g16
ssS'setlocale'
p29
(dp30
g7
g8
sg9
(lp31
sg11
(lp32
sg13
(tsg14
I0
sg15
g16
ssS'ferror'
p33
(dp34
g7
g8
sg9
(lp35
sg11
(lp36
sg13
(tsg14
I0
sg15
g16
ssS'realloc'
p37
(dp38
g7
g8
sg9
(lp39
sg11
(lp40
sg13
(tsg14
I0
sg15
g16
ssS'memset'
p41
(dp42
g7
g8
sg9
(lp43
sg11
(lp44
sg13
(tsg14
I3
sg15
g16
ssS'malloc'
p45
(dp46
g7
g8
sg9
(lp47
sg11
(lp48
sg13
(tsg14
I0
sg15
g16
ssS'xrealloc'
p49
(dp50
g7
g8
sg9
(lp51
sg11
(lp52
sg13
(tsg14
I2
sg15
g16
ssS'__lxstat'
p53
(dp54
g7
g8
sg9
(lp55
sg11
(lp56
sg13
(tsg14
I0
sg15
g16
ssS'atexit'
p57
(dp58
g7
g8
sg9
(lp59
sg11
(lp60
(lp61
I72
aI139
aI21
aI17
aI24
aI32
aI0
aa(lp62
I49
aI246
aa(lp63
I233
aI146
aI234
aI255
aI255
aasg13
(tsg14
I0
sg15
g16
ssS'errx'
p64
(dp65
g7
g8
sg9
(lp66
sg11
(lp67
sg13
(tsg14
I0
sg15
g16
ssS'fprintf'
p68
(dp69
g7
g8
sg9
(lp70
sg11
(lp71
sg13
(tsg14
I2
sg15
g16
ssS'close_stdout_atexit'
p72
(dp73
g7
g8
sg9
(lp74
sg11
(lp75
sg13
(tsg14
I0
sg15
g16
ssS'printf'
p76
(dp77
g7
g8
sg9
(lp78
sg11
(lp79
sg13
(tsg14
I1
sg15
g16
ssS'close'
p80
(dp81
g7
g8
sg9
(lp82
sg11
(lp83
sg13
(tsg14
I0
sg15
g16
ssS'bindtextdomain'
p84
(dp85
g7
g8
sg9
(lp86
sg11
(lp87
sg13
(tsg14
I0
sg15
g16
ssS'open'
p88
(dp89
g7
g8
sg9
(lp90
sg11
(lp91
sg13
(tsg14
I2
sg15
g16
ssS'fflush'
p92
(dp93
g7
g8
sg9
(lp94
sg11
(lp95
sg13
(tsg14
I0
sg15
g16
ssS'fileno'
p96
(dp97
g7
g8
sg9
(lp98
sg11
(lp99
sg13
(tsg14
I0
sg15
g16
ssS'fputc'
p100
(dp101
g7
g8
sg9
(lp102
sg11
(lp103
sg13
(tsg14
I0
sg15
g16
ssS'unlink'
p104
(dp105
g7
g8
sg9
(lp106
sg11
(lp107
sg13
(tsg14
I0
sg15
g16
ssS'puts'
p108
(dp109
g7
g8
sg9
(lp110
sg11
(lp111
sg13
(tsg14
I0
sg15
g16
ssS'fputs'
p112
(dp113
g7
g8
sg9
(lp114
sg11
(lp115
sg13
(tsg14
I0
sg15
g16
ssS'strlen'
p116
(dp117
g7
g8
sg9
(lp118
sg11
(lp119
sg13
(tsg14
I0
sg15
g16
ssS'opendir'
p120
(dp121
g7
g8
sg9
(lp122
sg11
(lp123
sg13
(tsg14
I0
sg15
g16
ssS'dcgettext'
p124
(dp125
g7
g8
sg9
(lp126
sg11
(lp127
sg13
(tsg14
I0
sg15
g16
ssS'exit'
p128
(dp129
g7
g8
sg9
(lp130
sg11
(lp131
sg13
(tsg14
I0
sg15
g16
ssS'__fxstat'
p132
(dp133
g7
g8
sg9
(lp134
sg11
(lp135
sg13
(tsg14
I0
sg15
g16
ssS'__read_chk'
p136
(dp137
g7
g8
sg9
(lp138
sg11
(lp139
sg13
(tsg14
I0
sg15
g16
ssS'usage'
p140
(dp141
g7
g8
sg9
(lp142
sg11
(lp143
sg13
(tsg14
I0
sg15
g16
ssS'main'
p144
(dp145
g7
g8
sg9
(lp146
sg11
(lp147
(lp148
I65
aI87
aa(lp149
I65
aI86
aa(lp150
I65
aI85
aa(lp151
I65
aI84
aa(lp152
I73
aI137
aI244
aa(lp153
I85
aa(lp154
I83
aa(lp155
I72
aI141
aI53
aI255
aI22
aI0
aI0
aa(lp156
I137
aI253
aa(lp157
I191
aI6
aI0
aI0
aI0
aa(lp158
I72
aI141
aI29
aI198
aI26
aI0
aI0
aa(lp159
I72
aI131
aI236
aI40
aa(lp160
I100
aI72
aI139
aI4
aI37
aI40
aI0
aa(lp161
I0
aI0
aa(lp162
I72
aI137
aI68
aI36
aI24
aa(lp163
I49
aI192
aa(lp164
I72
aI199
aI4
aI36
aI0
aI0
aI0
aI0
aa(lp165
I72
aI199
aI68
aI36
aI8
aI0
aI0
aa(lp166
I0
aI0
aa(lp167
I232
aI36
aI255
aI255
aI255
aa(lp168
I72
aI141
aI53
aI89
aI22
aI0
aI0
aa(lp169
I72
aI141
aI61
aI100
aI22
aI0
aI0
aa(lp170
I232
aI161
aI253
aI255
aI255
aa(lp171
I72
aI141
aI61
aI88
aI22
aI0
aI0
aa(lp172
I232
aI117
aI253
aI255
aI255
aa(lp173
I72
aI141
aI61
aI222
aI7
aI0
aI0
aa(lp174
I232
aI153
aI20
aI0
aI0
aa(lp175
I72
aI141
aI13
aI34
aI40
aI32
aI0
aa(lp176
I72
aI141
aI21
aI15
aI23
aI0
aI0
aa(lp177
I69
aI49
aI192
aa(lp178
I76
aI137
aI230
aa(lp179
I137
aI239
aa(lp180
I232
aI190
aI253
aI255
aI255
aa(lp181
I131
aI248
aI255
aa(lp182
I15
aI132
aI143
aI0
aI0
aI0
aa(lp183
I131
aI232
aI86
aa(lp184
I131
aI248
aI34
aa(lp185
I15
aI135
aI46
aI4
aI0
aI0
aa(lp186
I72
aI99
aI4
aI131
aa(lp187
I72
aI1
aI216
aa(lp188
I255
aI224
aa(lp189
I131
aI5
aI9
aI109
aI48
aI0
aI1
aa(lp190
I235
aI190
aa(lp191
I15
aI31
aI128
aI0
aI0
aI0
aI0
aa(lp192
I128
aI13
aI253
aI108
aI48
aI0
aI1
aa(lp193
I235
aI174
aa(lp194
I15
aI31
aI128
aI0
aI0
aI0
aI0
aa(lp195
I128
aI13
aI237
aI108
aI48
aI0
aI4
aa(lp196
I235
aI158
aa(lp197
I15
aI31
aI128
aI0
aI0
aI0
aI0
aa(lp198
I128
aI13
aI221
aI108
aI48
aI0
aI2
aa(lp199
I235
aI142
aa(lp200
I15
aI31
aI128
aI0
aI0
aI0
aI0
aa(lp201
I72
aI139
aI29
aI73
aI44
aI32
aI0
aa(lp202
I72
aI141
aI53
aI203
aI21
aI0
aI0
aa(lp203
I186
aI5
aI0
aI0
aI0
aa(lp204
I49
aI255
aa(lp205
I232
aI6
aI253
aI255
aI255
aa(lp206
I72
aI141
aI13
aI196
aI21
aI0
aI0
aa(lp207
I72
aI137
aI198
aa(lp208
I191
aI1
aI0
aI0
aI0
aa(lp209
I72
aI137
aI218
aa(lp210
I49
aI192
aa(lp211
I232
aI93
aI254
aI255
aI255
aa(lp212
I49
aI255
aa(lp213
I232
aI166
aI254
aI255
aI255
aa(lp214
I57
aI45
aI32
aI44
aI32
aI0
aa(lp215
I15
aI132
aI130
aI3
aI0
aI0
aa(lp216
I72
aI141
aI61
aI243
aI4
aI0
aI0
aa(lp217
I232
aI206
aI19
aI0
aI0
aa(lp218
I139
aI5
aI8
aI44
aI32
aI0
aa(lp219
I57
aI197
aa(lp220
I126
aI37
aa(lp221
I72
aI99
aI208
aa(lp222
I247
aI208
aa(lp223
I1
aI232
aa(lp224
I73
aI141
aI28
aI212
aa(lp225
I72
aI1
aI208
aa(lp226
I73
aI141
aI108
aI196
aI8
aa(lp227
I144
aa(lp228
I72
aI139
aI59
aa(lp229
I72
aI131
aI195
aI8
aa(lp230
I232
aI36
aI8
aI0
aI0
aa(lp231
I72
aI57
aI235
aa(lp232
I117
aI239
aa(lp233
I76
aI141
aI45
aI8
aI44
aI32
aI0
aa(lp234
I73
aI137
aI228
aa(lp235
I73
aI139
aI93
aI0
aa(lp236
I72
aI133
aI219
aa(lp237
I15
aI132
aI223
aI0
aI0
aI0
aa(lp238
I76
aI141
aI115
aI8
aa(lp239
I76
aI137
aI247
aa(lp240
I232
aI140
aI252
aI255
aI255
aa(lp241
I73
aI137
aI199
aa(lp242
I72
aI139
aI3
aa(lp243
I76
aI137
aI231
aa(lp244
I73
aI141
aI111
aI1
aa(lp245
I72
aI137
aI238
aa(lp246
I73
aI137
aI69
aI0
aa(lp247
I232
aI35
aI6
aI0
aI0
aa(lp248
I72
aI139
aI60
aI36
aa(lp249
I76
aI137
aI250
aa(lp250
I76
aI137
aI246
aa(lp251
I232
aI52
aI253
aI255
aI255
aa(lp252
I72
aI137
aI223
aa(lp253
I232
aI156
aI251
aI255
aI255
aa(lp254
I72
aI139
aI4
aI36
aa(lp255
I66
aI198
aI4
aI56
aI47
aa(lp256
I72
aI139
aI4
aI36
aa(lp257
I66
aI198
aI68
aI56
aI1
aI0
aa(lp258
I72
aI139
aI60
aI36
aa(lp259
I232
aI16
aI252
aI255
aI255
aa(lp260
I72
aI133
aI192
aa(lp261
I72
aI137
aI195
aa(lp262
I116
aI147
aa(lp263
I72
aI131
aI5
aI152
aI107
aI48
aI0
aa(lp264
I1
aa(lp265
I72
aI137
aI223
aa(lp266
I232
aI24
aI253
aI255
aI255
aa(lp267
I72
aI133
aI192
aa(lp268
I116
aI85
aa(lp269
I15
aI182
aI80
aI19
aa(lp270
I132
aI210
aa(lp271
I116
aI235
aa(lp272
I128
aI250
aI46
aa(lp273
I76
aI141
aI120
aI19
aa(lp274
I15
aI132
aI126
aI0
aI0
aI0
aa(lp275
I76
aI137
aI255
aa(lp276
I232
aI6
aI252
aI255
aI255
aa(lp277
I72
aI141
aI52
aI40
aa(lp278
I76
aI137
aI231
aa(lp279
I73
aI137
aI198
aa(lp280
I232
aI167
aI5
aI0
aI0
aa(lp281
I72
aI139
aI60
aI36
aa(lp282
I73
aI141
aI86
aI1
aa(lp283
I76
aI137
aI254
aa(lp284
I72
aI1
aI239
aa(lp285
I232
aI180
aI252
aI255
aI255
aa(lp286
I72
aI139
aI60
aI36
aa(lp287
I232
aI75
aI7
aI0
aI0
aa(lp288
I72
aI137
aI223
aa(lp289
I232
aI195
aI252
aI255
aI255
aa(lp290
I72
aI133
aI192
aa(lp291
I117
aI171
aa(lp292
I72
aI137
aI223
aa(lp293
I232
aI102
aI252
aI255
aI255
aa(lp294
I73
aI139
aI93
aI0
aa(lp295
I72
aI133
aI219
aa(lp296
I15
aI133
aI33
aI255
aI255
aI255
aa(lp297
I49
aI192
aa(lp298
I72
aI139
aI76
aI36
aI24
aa(lp299
I100
aI72
aI51
aI12
aI37
aI40
aI0
aa(lp300
I0
aI0
aa(lp301
I15
aI133
aI149
aI2
aI0
aI0
aa(lp302
I72
aI131
aI196
aI40
aa(lp303
I91
aa(lp304
I93
aa(lp305
I65
aI92
aa(lp306
I65
aI93
aa(lp307
I65
aI94
aa(lp308
I65
aI95
aa(lp309
I195
aasg13
(I4832
I6135
tp310
sg14
I2
sg15
g16
ssS'fstat'
p311
(dp312
g7
g8
sg9
(lp313
sg11
(lp314
sg13
(tsg14
I2
sg15
g16
ssS'dup'
p315
(dp316
g7
g8
sg9
(lp317
sg11
(lp318
sg13
(tsg14
I0
sg15
g16
ssS'flush_standard_stream'
p319
(dp320
g7
g8
sg9
(lp321
sg11
(lp322
sg13
(tsg14
I1
sg15
g16
ssS'process_path'
p323
(dp324
g7
g8
sg9
(lp325
sg11
(lp326
sg13
(tsg14
I2
sg15
g16
ssS'hash'
p327
(dp328
g7
g8
sg9
(lp329
sg11
(lp330
sg13
(tsg14
I2
sg15
g16
ssS'lstat'
p331
(dp332
g7
g8
sg9
(lp333
sg11
(lp334
sg13
(tsg14
I2
sg15
g16
ssS'read'
p335
(dp336
g7
g8
sg9
(lp337
sg11
(lp338
sg13
(tsg14
I3
sg15
g16
ssS'__printf_chk'
p339
(dp340
g7
g8
sg9
(lp341
sg11
(lp342
sg13
(tsg14
I0
sg15
g16
ssS'free'
p343
(dp344
g7
g8
sg9
(lp345
sg11
(lp346
sg13
(tsg14
I0
sg15
g16
ssS'warn'
p347
(dp348
g7
g8
sg9
(lp349
sg11
(lp350
sg13
(tsg14
I0
sg15
g16
ssS'closedir'
p351
(dp352
g7
g8
sg9
(lp353
sg11
(lp354
sg13
(tsg14
I0
sg15
g16
ssS'link'
p355
(dp356
g7
g8
sg9
(lp357
sg11
(lp358
sg13
(tsg14
I0
sg15
g16
ssS'readdir'
p359
(dp360
g7
g8
sg9
(lp361
sg11
(lp362
sg13
(tsg14
I0
sg15
g16
ssS'getopt_long'
p363
(dp364
g7
g8
sg9
(lp365
sg11
(lp366
sg13
(tsg14
I0
sg15
g16
ssS'memcpy'
p367
(dp368
g7
g8
sg9
(lp369
sg11
(lp370
sg13
(tsg14
I3
sg15
g16
ssS'growstr'
p371
(dp372
g7
g8
sg9
(lp373
sg11
(lp374
(lp375
I72
aI57
aI119
aI8
aa(lp376
I119
aI58
aa(lp377
I85
aa(lp378
I83
aa(lp379
I72
aI137
aI243
aa(lp380
I72
aI137
aI253
aa(lp381
I72
aI131
aI236
aI8
aa(lp382
I72
aI131
aI195
aI1
aa(lp383
I114
aI64
aa(lp384
I72
aI137
aI95
aI8
aa(lp385
I72
aI139
aI63
aa(lp386
I72
aI137
aI222
aa(lp387
I232
aI105
aI247
aI255
aI255
aa(lp388
I72
aI133
aI192
aa(lp389
I116
aI22
aa(lp390
I72
aI137
aI69
aI0
aa(lp391
I72
aI131
aI196
aI8
aa(lp392
I91
aa(lp393
I93
aa(lp394
I195
aasg13
(tsg14
I2
sg15
g16
ssS'__builtin_memcmp'
p395
(dp396
g7
g8
sg9
(lp397
sg11
(lp398
sg13
(tsg14
I0
sg15
g16
ssS'add3'
p399
(dp400
g7
g8
sg9
(lp401
sg11
(lp402
sg13
(tsg14
I3
sg15
g16
ssS'add2'
p403
(dp404
g7
g8
sg9
(lp405
sg11
(lp406
sg13
(tsg14
I2
sg15
g16
ssS'err'
p407
(dp408
g7
g8
sg9
(lp409
sg11
(lp410
sg13
(tsg14
I0
sg15
g16
ssS'__fprintf_chk'
p411
(dp412
g7
g8
sg9
(lp413
sg11
(lp414
sg13
(tsg14
I0
sg15
g16
ssS'__open_alias'
p415
(dp416
g7
g8
sg9
(lp417
sg11
(lp418
sg13
(tsg14
I0
sg15
g16
ssS'__errno_location'
p419
(dp420
g7
g8
sg9
(lp421
sg11
(lp422
sg13
(tsg14
I0
sg15
g16
ssS'__stack_chk_fail'
p423
(dp424
g7
g8
sg9
(lp425
sg11
(lp426
sg13
(tsg14
I0
sg15
g16
ssS'__builtin_memcpy'
p427
(dp428
g7
g8
sg9
(lp429
sg11
(lp430
sg13
(tsg14
I0
sg15
g16
ssS'__builtin_fputc'
p431
(dp432
g7
g8
sg9
(lp433
sg11
(lp434
sg13
(tsg14
I0
sg15
g16
ssS'close_stdout'
p435
(dp436
g7
g8
sg9
(lp437
sg11
(lp438
(lp439
I85
aa(lp440
I83
aa(lp441
I72
aI131
aI236
aI8
aa(lp442
I72
aI139
aI45
aI235
aI36
aI32
aI0
aa(lp443
I232
aI14
aI245
aI255
aI255
aa(lp444
I199
aI0
aI0
aI0
aI0
aI0
aa(lp445
I72
aI137
aI195
aa(lp446
I72
aI137
aI239
aa(lp447
I232
aI93
aI245
aI255
aI255
aa(lp448
I133
aI192
aa(lp449
I116
aI121
aa(lp450
I139
aI3
aa(lp451
I131
aI248
aI9
aa(lp452
I117
aI50
aa(lp453
I72
aI139
aI45
aI219
aI36
aI32
aI0
aa(lp454
I199
aI3
aI0
aI0
aI0
aI0
aa(lp455
I72
aI137
aI239
aa(lp456
I232
aI61
aI245
aI255
aI255
aa(lp457
I133
aI192
aa(lp458
I15
aI132
aI157
aI0
aI0
aI0
aa(lp459
I131
aI59
aI9
aa(lp460
I117
aI64
aa(lp461
I72
aI131
aI196
aI8
aa(lp462
I91
aa(lp463
I93
aa(lp464
I195
aasg13
(I6960
I7279
tp465
sg14
I0
sg15
g16
ssS'textdomain'
p466
(dp467
g7
g8
sg9
(lp468
sg11
(lp469
sg13
(tsg14
I0
sg15
g16
ssS'stcmp'
p470
(dp471
g7
g8
sg9
(lp472
sg11
(lp473
sg13
(tsg14
I3
sg15
g16
ssS'_exit'
p474
(dp475
g7
g8
sg9
(lp476
sg11
(lp477
sg13
(tsg14
I0
sg15
g16
ssS'xmalloc'
p478
(dp479
g7
g8
sg9
(lp480
sg11
(lp481
sg13
(tsg14
I1
sg15
g16
ssS'print_summary'
p482
(dp483
g7
g8
sg9
(lp484
sg11
(lp485
(lp486
I139
aI5
aI138
aI103
aI48
aI0
aa(lp487
I133
aI192
aa(lp488
I15
aI132
aI82
aI1
aI0
aI0
aa(lp489
I131
aI248
aI1
aa(lp490
I83
aa(lp491
I118
aI14
aa(lp492
I72
aI131
aI61
aI92
aI103
aI48
aI0
aI0
aa(lp493
I15
aI133
aI94
aI1
aI0
aI0
aa(lp494
I72
aI139
aI29
aI47
aI103
aI48
aI0
aa(lp495
I72
aI141
aI53
aI212
aI14
aI0
aI0
aa(lp496
I49
aI255
aa(lp497
I186
aI5
aI0
aI0
aI0
aa(lp498
I232
aI164
aI247
aI255
aI255
aa(lp499
I72
aI137
aI218
aa(lp500
I72
aI137
aI198
aa(lp501
I191
aI1
aI0
aI0
aI0
aa(lp502
I49
aI192
aa(lp503
I232
aI2
aI249
aI255
aI255
aa(lp504
I72
aI139
aI29
aI11
aI103
aI48
aI0
aa(lp505
I72
aI141
aI53
aI190
aI14
aI0
aI0
aa(lp506
I49
aI255
aa(lp507
I186
aI5
aI0
aI0
aI0
aa(lp508
I232
aI120
aI247
aI255
aI255
aa(lp509
I72
aI137
aI218
aa(lp510
I72
aI137
aI198
aa(lp511
I191
aI1
aI0
aI0
aI0
aa(lp512
I49
aI192
aa(lp513
I232
aI214
aI248
aI255
aI255
aa(lp514
I72
aI139
aI29
aI231
aI102
aI48
aI0
aa(lp515
I72
aI141
aI53
aI168
aI14
aI0
aI0
aa(lp516
I49
aI255
aa(lp517
I186
aI5
aI0
aI0
aI0
aa(lp518
I232
aI76
aI247
aI255
aI255
aa(lp519
I72
aI137
aI218
aa(lp520
I72
aI137
aI198
aa(lp521
I191
aI1
aI0
aI0
aI0
aa(lp522
I49
aI192
aa(lp523
I232
aI170
aI248
aI255
aI255
aa(lp524
I72
aI139
aI29
aI195
aI102
aI48
aI0
aa(lp525
I72
aI141
aI53
aI146
aI14
aI0
aI0
aa(lp526
I49
aI255
aa(lp527
I186
aI5
aI0
aI0
aI0
aa(lp528
I232
aI32
aI247
aI255
aI255
aa(lp529
I72
aI137
aI218
aa(lp530
I72
aI137
aI198
aa(lp531
I191
aI1
aI0
aI0
aI0
aa(lp532
I49
aI192
aa(lp533
I232
aI126
aI248
aI255
aI255
aa(lp534
I246
aI5
aI187
aI102
aI48
aI0
aI1
aa(lp535
I72
aI139
aI29
aI152
aI102
aI48
aI0
aa(lp536
I186
aI5
aI0
aI0
aI0
aa(lp537
I117
aI105
aa(lp538
I72
aI141
aI53
aI126
aI14
aI0
aI0
aa(lp539
I49
aI255
aa(lp540
I232
aI235
aI246
aI255
aI255
aa(lp541
I72
aI141
aI53
aI128
aI14
aI0
aI0
aa(lp542
I72
aI137
aI194
aa(lp543
I72
aI137
aI217
aa(lp544
I49
aI192
aa(lp545
I191
aI1
aI0
aI0
aI0
aa(lp546
I232
aI66
aI248
aI255
aI255
aa(lp547
I246
aI5
aI127
aI102
aI48
aI0
aI1
aa(lp548
I72
aI139
aI29
aI100
aI102
aI48
aI0
aa(lp549
I186
aI5
aI0
aI0
aI0
aa(lp550
I116
aI69
aa(lp551
I72
aI141
aI53
aI91
aI14
aI0
aI0
aa(lp552
I49
aI255
aa(lp553
I232
aI175
aI246
aI255
aI255
aa(lp554
I72
aI137
aI217
aa(lp555
I72
aI141
aI53
aI104
aI14
aI0
aI0
aa(lp556
I72
aI137
aI194
aa(lp557
I91
aa(lp558
I191
aI1
aI0
aI0
aI0
aa(lp559
I49
aI192
aa(lp560
I233
aI5
aI248
aI255
aI255
aa(lp561
I15
aI31
aI68
aI0
aI0
aa(lp562
I72
aI141
aI53
aI5
aI14
aI0
aI0
aa(lp563
I49
aI255
aa(lp564
I232
aI130
aI246
aI255
aI255
aa(lp565
I235
aI149
aa(lp566
I243
aI195
aa(lp567
I102
aI15
aI31
aI68
aI0
aI0
aa(lp568
I72
aI141
aI53
aI37
aI14
aI0
aI0
aa(lp569
I49
aI255
aa(lp570
I232
aI106
aI246
aI255
aI255
aa(lp571
I235
aI185
aa(lp572
I15
aI31
aI132
aI0
aI0
aI0
aI0
aI0
aa(lp573
I72
aI139
aI53
aI145
aI37
aI32
aI0
aa(lp574
I191
aI10
aI0
aI0
aI0
aa(lp575
I232
aI15
aI247
aI255
aI255
aa(lp576
I233
aI140
aI254
aI255
aI255
aa(lp577
I102
aI46
aI15
aI31
aI132
aI0
aI0
aa(lp578
I0
aI0
aI0
aasg13
(tsg14
I0
sg15
g16
sssS'function_calls'
p579
(dp580
sS'binary_filename'
p581
S'hardlink'
p582
sS'structures'
p583
(dp584
sS'extern_functions'
p585
(dp586
sS'arch'
p587
S'amd64'
p588
sS'bin_raw_bytes'
p589
g8
s.