(dp0
S'text_addr'
p1
S'0x1120'
p2
sS'functions'
p3
(dp4
S'strncasecmp'
p5
(dp6
S'ret_type'
p7
S''
p8
sS'args_type'
p9
(lp10
sS'inst_bytes'
p11
(lp12
sS'boundaries'
p13
(tsS'num_args'
p14
I0
sS'inst_strings'
p15
(lp16
ssS'strncmp'
p17
(dp18
g7
g8
sg9
(lp19
sg11
(lp20
sg13
(tsg14
I0
sg15
g16
ssS'compare'
p21
(dp22
g7
g8
sg9
(lp23
sg11
(lp24
(lp25
I65
aI87
aa(lp26
I65
aI86
aa(lp27
I65
aI85
aa(lp28
I65
aI84
aa(lp29
I85
aa(lp30
I83
aa(lp31
I72
aI131
aI236
aI24
aa(lp32
I76
aI139
aI45
aI251
aI22
aI32
aI0
aa(lp33
I68
aI139
aI37
aI4
aI23
aI32
aI0
aa(lp34
I72
aI57
aI247
aa(lp35
I76
aI137
aI44
aI36
aa(lp36
I68
aI137
aI100
aI36
aI12
aa(lp37
I15
aI131
aI178
aI0
aI0
aI0
aa(lp38
I69
aI133
aI228
aa(lp39
I72
aI137
aI251
aa(lp40
I15
aI182
aI47
aa(lp41
I15
aI132
aI163
aI0
aI0
aI0
aa(lp42
I64
aI128
aI253
aI10
aa(lp43
I15
aI132
aI153
aI0
aI0
aI0
aa(lp44
I73
aI137
aI246
aa(lp45
I68
aI139
aI61
aI215
aI22
aI32
aI0
aa(lp46
I235
aI19
aa(lp47
I15
aI31
aI68
aI0
aI0
aa(lp48
I69
aI133
aI228
aa(lp49
I15
aI182
aI43
aa(lp50
I116
aI50
aa(lp51
I64
aI128
aI253
aI10
aa(lp52
I116
aI44
aa(lp53
I69
aI133
aI255
aa(lp54
I116
aI18
aa(lp55
I232
aI80
aI247
aI255
aI255
aa(lp56
I72
aI139
aI56
aa(lp57
I72
aI15
aI190
aI213
aa(lp58
I246
aI4
aI87
aI9
aa(lp59
I116
aI12
aa(lp60
I65
aI136
aI109
aI0
aa(lp61
I65
aI131
aI236
aI1
aa(lp62
I73
aI131
aI197
aI1
aa(lp63
I72
aI131
aI195
aI1
aa(lp64
I73
aI57
aI222
aa(lp65
I117
aI198
aa(lp66
I139
aI5
aI140
aI22
aI32
aI0
aa(lp67
I65
aI198
aI69
aI0
aI0
aa(lp68
I72
aI99
aI84
aI36
aI12
aa(lp69
I72
aI139
aI53
aI111
aI22
aI32
aI0
aa(lp70
I72
aI139
aI60
aI36
aa(lp71
I133
aI192
aa(lp72
I116
aI39
aa(lp73
I232
aI106
aI246
aI255
aI255
aa(lp74
I137
aI194
aa(lp75
I193
aI234
aI31
aa(lp76
I133
aI192
aa(lp77
I184
aI255
aI255
aI255
aI255
aa(lp78
I15
aI78
aI194
aa(lp79
I72
aI131
aI196
aI24
aa(lp80
I91
aa(lp81
I93
aa(lp82
I65
aI92
aa(lp83
I65
aI93
aa(lp84
I65
aI94
aa(lp85
I65
aI95
aa(lp86
I195
aasg13
(I6464
I6694
tp87
sg14
I2
sg15
g16
ssS'binary_search'
p88
(dp89
g7
g8
sg9
(lp90
sg11
(lp91
sg13
(tsg14
I2
sg15
g16
ssS'ferror'
p92
(dp93
g7
g8
sg9
(lp94
sg11
(lp95
sg13
(tsg14
I0
sg15
g16
ssS'_IO_putc'
p96
(dp97
g7
g8
sg9
(lp98
sg11
(lp99
sg13
(tsg14
I0
sg15
g16
ssS'malloc'
p100
(dp101
g7
g8
sg9
(lp102
sg11
(lp103
sg13
(tsg14
I0
sg15
g16
ssS'atexit'
p104
(dp105
g7
g8
sg9
(lp106
sg11
(lp107
(lp108
I72
aI139
aI21
aI17
aI20
aI32
aI0
aa(lp109
I49
aI246
aa(lp110
I233
aI210
aI244
aI255
aI255
aasg13
(tsg14
I0
sg15
g16
ssS'fprintf'
p111
(dp112
g7
g8
sg9
(lp113
sg11
(lp114
sg13
(tsg14
I2
sg15
g16
ssS'close_stdout_atexit'
p115
(dp116
g7
g8
sg9
(lp117
sg11
(lp118
sg13
(tsg14
I0
sg15
g16
ssS'printf'
p119
(dp120
g7
g8
sg9
(lp121
sg11
(lp122
sg13
(tsg14
I1
sg15
g16
ssS'close'
p123
(dp124
g7
g8
sg9
(lp125
sg11
(lp126
sg13
(tsg14
I0
sg15
g16
ssS'bindtextdomain'
p127
(dp128
g7
g8
sg9
(lp129
sg11
(lp130
sg13
(tsg14
I0
sg15
g16
ssS'open'
p131
(dp132
g7
g8
sg9
(lp133
sg11
(lp134
sg13
(tsg14
I2
sg15
g16
ssS'fflush'
p135
(dp136
g7
g8
sg9
(lp137
sg11
(lp138
sg13
(tsg14
I0
sg15
g16
ssS'strchr'
p139
(dp140
g7
g8
sg9
(lp141
sg11
(lp142
sg13
(tsg14
I0
sg15
g16
ssS'fputs'
p143
(dp144
g7
g8
sg9
(lp145
sg11
(lp146
sg13
(tsg14
I0
sg15
g16
ssS'warnx'
p147
(dp148
g7
g8
sg9
(lp149
sg11
(lp150
sg13
(tsg14
I0
sg15
g16
ssS'mmap'
p151
(dp152
g7
g8
sg9
(lp153
sg11
(lp154
sg13
(tsg14
I0
sg15
g16
ssS'setlocale'
p155
(dp156
g7
g8
sg9
(lp157
sg11
(lp158
sg13
(tsg14
I0
sg15
g16
ssS'access'
p159
(dp160
g7
g8
sg9
(lp161
sg11
(lp162
sg13
(tsg14
I0
sg15
g16
ssS'dcgettext'
p163
(dp164
g7
g8
sg9
(lp165
sg11
(lp166
sg13
(tsg14
I0
sg15
g16
ssS'exit'
p167
(dp168
g7
g8
sg9
(lp169
sg11
(lp170
sg13
(tsg14
I0
sg15
g16
ssS'__fxstat'
p171
(dp172
g7
g8
sg9
(lp173
sg11
(lp174
sg13
(tsg14
I0
sg15
g16
ssS'__ctype_b_loc'
p175
(dp176
g7
g8
sg9
(lp177
sg11
(lp178
sg13
(tsg14
I0
sg15
g16
ssS'main'
p179
(dp180
g7
g8
sg9
(lp181
sg11
(lp182
(lp183
I65
aI87
aa(lp184
I65
aI86
aa(lp185
I65
aI85
aa(lp186
I65
aI84
aa(lp187
I73
aI137
aI244
aa(lp188
I85
aa(lp189
I83
aa(lp190
I72
aI141
aI53
aI223
aI11
aI0
aI0
aa(lp191
I137
aI253
aa(lp192
I191
aI6
aI0
aI0
aI0
aa(lp193
I72
aI129
aI236
aI184
aI0
aI0
aI0
aa(lp194
I100
aI72
aI139
aI4
aI37
aI40
aI0
aa(lp195
I0
aI0
aa(lp196
I72
aI137
aI132
aI36
aI168
aI0
aI0
aI0
aa(lp197
I49
aI192
aa(lp198
I232
aI54
aI255
aI255
aI255
aa(lp199
I72
aI141
aI53
aI234
aI10
aI0
aI0
aa(lp200
I72
aI141
aI61
aI245
aI10
aI0
aI0
aa(lp201
I232
aI3
aI254
aI255
aI255
aa(lp202
I72
aI141
aI61
aI233
aI10
aI0
aI0
aa(lp203
I232
aI231
aI253
aI255
aI255
aa(lp204
I72
aI141
aI61
aI176
aI8
aI0
aI0
aa(lp205
I232
aI107
aI10
aI0
aI0
aa(lp206
I72
aI141
aI53
aI135
aI11
aI0
aI0
aa(lp207
I191
aI6
aI0
aI0
aI0
aa(lp208
I232
aI250
aI254
aI255
aI255
aa(lp209
I72
aI141
aI61
aI203
aI10
aI0
aI0
aa(lp210
I232
aI78
aI253
aI255
aI255
aa(lp211
I72
aI133
aI192
aa(lp212
I15
aI132
aI245
aI0
aI0
aI0
aa(lp213
I190
aI4
aI0
aI0
aI0
aa(lp214
I72
aI137
aI199
aa(lp215
I73
aI137
aI199
aa(lp216
I232
aI5
aI255
aI255
aI255
aa(lp217
I133
aI192
aa(lp218
I15
aI133
aI221
aI0
aI0
aI0
aa(lp219
I76
aI141
aI53
aI22
aI26
aI32
aI0
aa(lp220
I76
aI141
aI45
aI75
aI11
aI0
aI0
aa(lp221
I72
aI141
aI29
aI80
aI13
aI0
aI0
aa(lp222
I72
aI199
aI5
aI117
aI30
aI32
aI0
aa(lp223
I0
aI0
aI0
aI0
aa(lp224
I199
aI68
aI36
aI8
aI0
aI0
aI0
aI0
aa(lp225
I69
aI49
aI192
aa(lp226
I76
aI137
aI241
aa(lp227
I76
aI137
aI234
aa(lp228
I76
aI137
aI230
aa(lp229
I137
aI239
aa(lp230
I232
aI178
aI253
aI255
aI255
aa(lp231
I131
aI248
aI255
aa(lp232
I15
aI132
aI165
aI0
aI0
aI0
aa(lp233
I131
aI232
aI86
aa(lp234
I131
aI248
aI30
aa(lp235
I15
aI135
aI154
aI5
aI0
aI0
aa(lp236
I72
aI99
aI4
aI131
aa(lp237
I72
aI1
aI216
aa(lp238
I255
aI224
aa(lp239
I15
aI31
aI64
aI0
aa(lp240
I72
aI139
aI5
aI17
aI30
aI32
aI0
aa(lp241
I15
aI190
aI0
aa(lp242
I137
aI68
aI36
aI8
aa(lp243
I235
aI187
aa(lp244
I199
aI5
aI42
aI30
aI32
aI0
aI1
aa(lp245
I0
aI0
aI0
aa(lp246
I235
aI175
aa(lp247
I15
aI31
aI64
aI0
aa(lp248
I199
aI5
aI30
aI30
aI32
aI0
aI1
aa(lp249
I0
aI0
aI0
aa(lp250
I235
aI159
aa(lp251
I15
aI31
aI64
aI0
aa(lp252
I72
aI139
aI29
aI201
aI29
aI32
aI0
aa(lp253
I72
aI141
aI53
aI19
aI10
aI0
aI0
aa(lp254
I186
aI5
aI0
aI0
aI0
aa(lp255
I49
aI255
aa(lp256
I232
aI22
aI253
aI255
aI255
aa(lp257
I72
aI141
aI13
aI12
aI10
aI0
aI0
aa(lp258
I72
aI137
aI198
aa(lp259
I191
aI1
aI0
aI0
aI0
aa(lp260
I72
aI137
aI218
aa(lp261
I49
aI192
aa(lp262
I232
aI29
aI254
aI255
aI255
aa(lp263
I49
aI255
aa(lp264
I232
aI86
aI254
aI255
aI255
aa(lp265
I102
aI15
aI31
aI68
aI0
aI0
aa(lp266
I76
aI141
aI61
aI159
aI9
aI0
aI0
aa(lp267
I233
aI79
aI255
aI255
aI255
aa(lp268
I15
aI31
aI64
aI0
aa(lp269
I76
aI141
aI61
aI121
aI9
aI0
aI0
aa(lp270
I233
aI23
aI255
aI255
aI255
aa(lp271
I72
aI99
aI21
aI125
aI29
aI32
aI0
aa(lp272
I72
aI137
aI208
aa(lp273
I73
aI141
aI20
aI212
aa(lp274
I41
aI197
aa(lp275
I131
aI253
aI1
aa(lp276
I15
aI132
aI228
aI0
aI0
aI0
aa(lp277
I131
aI253
aI2
aa(lp278
I15
aI133
aI194
aI4
aI0
aI0
aa(lp279
I72
aI139
aI2
aa(lp280
I76
aI139
aI122
aI8
aa(lp281
I72
aI137
aI5
aI124
aI29
aI32
aI0
aa(lp282
I139
aI68
aI36
aI8
aa(lp283
I133
aI192
aa(lp284
I116
aI23
aa(lp285
I72
aI139
aI61
aI109
aI29
aI32
aI0
aa(lp286
I137
aI198
aa(lp287
I232
aI206
aI252
aI255
aI255
aa(lp288
I72
aI133
aI192
aa(lp289
I116
aI4
aa(lp290
I198
aI64
aI1
aI0
aa(lp291
I49
aI210
aa(lp292
I49
aI246
aa(lp293
I49
aI192
aa(lp294
I76
aI137
aI255
aa(lp295
I232
aI167
aI253
aI255
aI255
aa(lp296
I133
aI192
aa(lp297
I137
aI195
aa(lp298
I15
aI136
aI3
aI5
aI0
aI0
aa(lp299
I72
aI141
aI84
aI36
aI16
aa(lp300
I137
aI198
aa(lp301
I191
aI1
aI0
aI0
aI0
aa(lp302
I232
aI92
aI253
aI255
aI255
aa(lp303
I133
aI192
aa(lp304
I15
aI133
aI234
aI4
aI0
aI0
aa(lp305
I72
aI139
aI116
aI36
aI64
aa(lp306
I69
aI49
aI201
aa(lp307
I49
aI255
aa(lp308
I65
aI137
aI216
aa(lp309
I185
aI1
aI0
aI0
aI0
aa(lp310
I186
aI1
aI0
aI0
aI0
aa(lp311
I232
aI88
aI252
aI255
aI255
aa(lp312
I72
aI131
aI248
aI255
aa(lp313
I73
aI137
aI197
aa(lp314
I15
aI132
aI193
aI4
aI0
aI0
aa(lp315
I72
aI139
aI92
aI36
aI64
aa(lp316
I131
aI61
aI7
aI29
aI32
aI0
aI0
aa(lp317
I72
aI141
aI44
aI24
aa(lp318
I72
aI139
aI5
aI236
aI28
aI32
aI0
aa(lp319
I72
aI137
aI68
aI36
aI8
aa(lp320
I15
aI132
aI77
aI2
aI0
aI0
aa(lp321
I76
aI139
aI116
aI36
aI8
aa(lp322
I77
aI137
aI244
aa(lp323
I73
aI131
aI198
aI1
aa(lp324
I69
aI15
aI182
aI126
aI255
aa(lp325
I69
aI132
aI255
aa(lp326
I116
aI63
aa(lp327
I232
aI110
aI253
aI255
aI255
aa(lp328
I72
aI139
aI0
aa(lp329
I73
aI15
aI190
aI207
aa(lp330
I246
aI4
aI72
aI9
aa(lp331
I116
aI224
aa(lp332
I69
aI136
aI60
aI36
aa(lp333
I73
aI131
aI196
aI1
aa(lp334
I235
aI214
aa(lp335
I72
aI139
aI2
aa(lp336
I199
aI5
aI174
aI28
aI32
aI0
aI1
aa(lp337
I0
aI0
aI0
aa(lp338
I199
aI5
aI168
aI28
aI32
aI0
aI1
aa(lp339
I0
aI0
aI0
aa(lp340
I72
aI137
aI5
aI145
aI28
aI32
aI0
aa(lp341
I233
aI16
aI255
aI255
aI255
aa(lp342
I65
aI198
aI4
aI36
aI0
aa(lp343
I76
aI43
aI100
aI36
aI8
aa(lp344
I68
aI137
aI37
aI131
aI28
aI32
aI0
aa(lp345
I139
aI5
aI125
aI28
aI32
aI0
aa(lp346
I68
aI141
aI96
aI1
aa(lp347
I77
aI99
aI228
aa(lp348
I76
aI137
aI231
aa(lp349
I232
aI94
aI252
aI255
aI255
aa(lp350
I72
aI133
aI192
aa(lp351
I117
aI9
aa(lp352
I77
aI133
aI228
aa(lp353
I15
aI133
aI2
aI4
aI0
aI0
aa(lp354
I72
aI137
aI5
aI73
aI28
aI32
aI0
aa(lp355
I72
aI137
aI216
aa(lp356
I185
aI2
aI0
aI0
aI0
aa(lp357
I72
aI153
aa(lp358
I72
aI247
aI249
aa(lp359
I76
aI1
aI232
aa(lp360
I72
aI57
aI197
aa(lp361
I15
aI134
aI52
aI1
aI0
aI0
aa(lp362
I128
aI56
aI10
aa(lp363
I72
aI141
aI88
aI1
aa(lp364
I117
aI21
aa(lp365
I233
aI41
aI1
aI0
aI0
aa(lp366
I102
aI144
aa(lp367
I72
aI131
aI195
aI1
aa(lp368
I128
aI123
aI255
aI10
aa(lp369
I15
aI132
aI25
aI1
aI0
aI0
aa(lp370
I72
aI57
aI221
aa(lp371
I117
aI237
aa(lp372
I76
aI57
aI237
aa(lp373
I15
aI134
aI158
aI0
aI0
aI0
aa(lp374
I72
aI137
aI238
aa(lp375
I76
aI137
aI239
aa(lp376
I232
aI233
aI4
aI0
aI0
aa(lp377
I131
aI248
aI255
aa(lp378
I15
aI132
aI138
aI0
aI0
aI0
aa(lp379
I133
aI192
aa(lp380
I117
aI106
aa(lp381
I77
aI133
aI237
aa(lp382
I76
aI137
aI235
aa(lp383
I116
aI126
aa(lp384
I15
aI31
aI64
aI0
aa(lp385
I72
aI137
aI238
aa(lp386
I72
aI137
aI223
aa(lp387
I232
aI197
aI4
aI0
aI0
aa(lp388
I133
aI192
aa(lp389
I117
aI110
aa(lp390
I72
aI137
aI238
aa(lp391
I72
aI137
aI223
aa(lp392
I232
aI182
aI4
aI0
aI0
aa(lp393
I133
aI192
aa(lp394
I15
aI133
aI152
aI0
aI0
aI0
aa(lp395
I72
aI57
aI221
aa(lp396
I119
aI14
aa(lp397
I235
aI84
aa(lp398
I15
aI31
aI128
aI0
aI0
aI0
aI0
aa(lp399
I72
aI57
aI221
aa(lp400
I118
aI34
aa(lp401
I15
aI190
aI59
aa(lp402
I72
aI139
aI53
aI121
aI27
aI32
aI0
aa(lp403
I232
aI44
aI251
aI255
aI255
aa(lp404
I131
aI248
aI255
aa(lp405
I15
aI132
aI45
aI3
aI0
aI0
aa(lp406
I72
aI131
aI195
aI1
aa(lp407
I128
aI123
aI255
aI10
aa(lp408
I117
aI217
aa(lp409
I72
aI57
aI221
aa(lp410
I119
aI164
aa(lp411
I235
aI31
aa(lp412
I73
aI131
aI197
aI1
aa(lp413
I65
aI128
aI125
aI255
aI10
aa(lp414
I15
aI132
aI102
aI255
aI255
aI255
aa(lp415
I76
aI57
aI237
aa(lp416
I117
aI236
aa(lp417
I73
aI137
aI237
aa(lp418
I233
aI89
aI255
aI255
aI255
aa(lp419
I69
aI49
aI237
aa(lp420
I72
aI139
aI61
aI92
aI27
aI32
aI0
aa(lp421
I232
aI7
aI250
aI255
aI255
aa(lp422
I49
aI192
aa(lp423
I77
aI133
aI237
aa(lp424
I15
aI148
aI192
aa(lp425
I72
aI139
aI140
aI36
aI168
aI0
aI0
aI0
aa(lp426
I100
aI72
aI51
aI12
aI37
aI40
aI0
aa(lp427
I0
aI0
aa(lp428
I15
aI133
aI229
aI2
aI0
aI0
aa(lp429
I72
aI129
aI196
aI184
aI0
aI0
aI0
aa(lp430
I91
aa(lp431
I93
aa(lp432
I65
aI92
aa(lp433
I65
aI93
aa(lp434
I65
aI94
aa(lp435
I65
aI95
aa(lp436
I195
aasg13
(I4384
I6188
tp437
sg14
I2
sg15
g16
ssS'fstat'
p438
(dp439
g7
g8
sg9
(lp440
sg11
(lp441
sg13
(tsg14
I2
sg15
g16
ssS'dup'
p442
(dp443
g7
g8
sg9
(lp444
sg11
(lp445
sg13
(tsg14
I0
sg15
g16
ssS'flush_standard_stream'
p446
(dp447
g7
g8
sg9
(lp448
sg11
(lp449
sg13
(tsg14
I1
sg15
g16
ssS'__printf_chk'
p450
(dp451
g7
g8
sg9
(lp452
sg11
(lp453
sg13
(tsg14
I0
sg15
g16
ssS'free'
p454
(dp455
g7
g8
sg9
(lp456
sg11
(lp457
sg13
(tsg14
I0
sg15
g16
ssS'getenv'
p458
(dp459
g7
g8
sg9
(lp460
sg11
(lp461
sg13
(tsg14
I0
sg15
g16
ssS'warn'
p462
(dp463
g7
g8
sg9
(lp464
sg11
(lp465
sg13
(tsg14
I0
sg15
g16
ssS'usage'
p466
(dp467
g7
g8
sg9
(lp468
sg11
(lp469
sg13
(tsg14
I0
sg15
g16
ssS'linear_search'
p470
(dp471
g7
g8
sg9
(lp472
sg11
(lp473
sg13
(tsg14
I2
sg15
g16
ssS'getopt_long'
p474
(dp475
g7
g8
sg9
(lp476
sg11
(lp477
sg13
(tsg14
I0
sg15
g16
ssS'fileno'
p478
(dp479
g7
g8
sg9
(lp480
sg11
(lp481
sg13
(tsg14
I0
sg15
g16
ssS'print_from'
p482
(dp483
g7
g8
sg9
(lp484
sg11
(lp485
sg13
(tsg14
I2
sg15
g16
ssS'putchar'
p486
(dp487
g7
g8
sg9
(lp488
sg11
(lp489
sg13
(tsg14
I1
sg15
g16
ssS'look'
p490
(dp491
g7
g8
sg9
(lp492
sg11
(lp493
sg13
(tsg14
I2
sg15
g16
ssS'err'
p494
(dp495
g7
g8
sg9
(lp496
sg11
(lp497
sg13
(tsg14
I0
sg15
g16
ssS'__fprintf_chk'
p498
(dp499
g7
g8
sg9
(lp500
sg11
(lp501
sg13
(tsg14
I0
sg15
g16
ssS'__open_alias'
p502
(dp503
g7
g8
sg9
(lp504
sg11
(lp505
sg13
(tsg14
I0
sg15
g16
ssS'__errno_location'
p506
(dp507
g7
g8
sg9
(lp508
sg11
(lp509
sg13
(tsg14
I0
sg15
g16
ssS'__stack_chk_fail'
p510
(dp511
g7
g8
sg9
(lp512
sg11
(lp513
sg13
(tsg14
I0
sg15
g16
ssS'__builtin_fputc'
p514
(dp515
g7
g8
sg9
(lp516
sg11
(lp517
sg13
(tsg14
I0
sg15
g16
ssS'close_stdout'
p518
(dp519
g7
g8
sg9
(lp520
sg11
(lp521
(lp522
I85
aa(lp523
I83
aa(lp524
I72
aI131
aI236
aI8
aa(lp525
I72
aI139
aI45
aI235
aI21
aI32
aI0
aa(lp526
I232
aI206
aI244
aI255
aI255
aa(lp527
I199
aI0
aI0
aI0
aI0
aI0
aa(lp528
I72
aI137
aI195
aa(lp529
I72
aI137
aI239
aa(lp530
I232
aI253
aI244
aI255
aI255
aa(lp531
I133
aI192
aa(lp532
I116
aI121
aa(lp533
I139
aI3
aa(lp534
I131
aI248
aI9
aa(lp535
I117
aI50
aa(lp536
I72
aI139
aI45
aI219
aI21
aI32
aI0
aa(lp537
I199
aI3
aI0
aI0
aI0
aI0
aa(lp538
I72
aI137
aI239
aa(lp539
I232
aI221
aI244
aI255
aI255
aa(lp540
I133
aI192
aa(lp541
I15
aI132
aI157
aI0
aI0
aI0
aa(lp542
I131
aI59
aI9
aa(lp543
I117
aI64
aa(lp544
I72
aI131
aI196
aI8
aa(lp545
I91
aa(lp546
I93
aa(lp547
I195
aasg13
(I6704
I7023
tp548
sg14
I0
sg15
g16
ssS'textdomain'
p549
(dp550
g7
g8
sg9
(lp551
sg11
(lp552
sg13
(tsg14
I0
sg15
g16
ssS'_exit'
p553
(dp554
g7
g8
sg9
(lp555
sg11
(lp556
sg13
(tsg14
I0
sg15
g16
ssS'xmalloc'
p557
(dp558
g7
g8
sg9
(lp559
sg11
(lp560
sg13
(tsg14
I1
sg15
g16
sssS'function_calls'
p561
(dp562
sS'binary_filename'
p563
S'look'
p564
sS'structures'
p565
(dp566
sS'extern_functions'
p567
(dp568
sS'arch'
p569
S'amd64'
p570
sS'bin_raw_bytes'
p571
g8
s.