(dp0
S'text_addr'
p1
S'0x10e0'
p2
sS'functions'
p3
(dp4
S'warnx'
p5
(dp6
S'ret_type'
p7
S''
p8
sS'args_type'
p9
(lp10
sS'inst_bytes'
p11
(lp12
sS'boundaries'
p13
(tsS'num_args'
p14
I0
sS'inst_strings'
p15
(lp16
ssS'snprintf'
p17
(dp18
g7
g8
sg9
(lp19
sg11
(lp20
sg13
(tsg14
I3
sg15
g16
ssS'setlocale'
p21
(dp22
g7
g8
sg9
(lp23
sg11
(lp24
sg13
(tsg14
I0
sg15
g16
ssS'ferror'
p25
(dp26
g7
g8
sg9
(lp27
sg11
(lp28
sg13
(tsg14
I0
sg15
g16
ssS'__fprintf_chk'
p29
(dp30
g7
g8
sg9
(lp31
sg11
(lp32
sg13
(tsg14
I0
sg15
g16
ssS'abort'
p33
(dp34
g7
g8
sg9
(lp35
sg11
(lp36
sg13
(tsg14
I0
sg15
g16
ssS'fprintf'
p37
(dp38
g7
g8
sg9
(lp39
sg11
(lp40
sg13
(tsg14
I2
sg15
g16
ssS'close_stdout_atexit'
p41
(dp42
g7
g8
sg9
(lp43
sg11
(lp44
sg13
(tsg14
I0
sg15
g16
ssS'get_terminal_name'
p45
(dp46
g7
g8
sg9
(lp47
sg11
(lp48
(lp49
I65
aI85
aa(lp50
I65
aI84
aa(lp51
I73
aI137
aI213
aa(lp52
I85
aa(lp53
I83
aa(lp54
I73
aI137
aI252
aa(lp55
I72
aI137
aI243
aa(lp56
I72
aI131
aI236
aI8
aa(lp57
I72
aI133
aI246
aa(lp58
I116
aI7
aa(lp59
I72
aI199
aI6
aI0
aI0
aI0
aI0
aa(lp60
I77
aI133
aI228
aa(lp61
I116
aI8
aa(lp62
I73
aI199
aI4
aI36
aI0
aI0
aI0
aI0
aa(lp63
I77
aI133
aI237
aa(lp64
I116
aI8
aa(lp65
I73
aI199
aI69
aI0
aI0
aI0
aI0
aI0
aa(lp66
I232
aI114
aI255
aI255
aI255
aa(lp67
I133
aI192
aa(lp68
I15
aI136
aI134
aI0
aI0
aI0
aa(lp69
I137
aI199
aa(lp70
I232
aI227
aI245
aI255
aI255
aa(lp71
I72
aI133
aI192
aa(lp72
I72
aI137
aI197
aa(lp73
I15
aI132
aI161
aI0
aI0
aI0
aa(lp74
I77
aI133
aI228
aa(lp75
I116
aI4
aa(lp76
I73
aI137
aI4
aI36
aa(lp77
I72
aI133
aI219
aa(lp78
I117
aI5
aa(lp79
I77
aI133
aI237
aa(lp80
I116
aI94
aa(lp81
I72
aI141
aI61
aI251
aI3
aI0
aI0
aa(lp82
I185
aI5
aI0
aI0
aI0
aa(lp83
I72
aI137
aI238
aa(lp84
I243
aI166
aa(lp85
I15
aI151
aI192
aa(lp86
I28
aI0
aa(lp87
I132
aI192
aa(lp88
I116
aI90
aa(lp89
I72
aI133
aI219
aa(lp90
I116
aI8
aa(lp91
I77
aI133
aI237
aa(lp92
I72
aI137
aI43
aa(lp93
I116
aI55
aa(lp94
I72
aI15
aI190
aI93
aI0
aa(lp95
I132
aI219
aa(lp96
I116
aI46
aa(lp97
I232
aI15
aI246
aI255
aI255
aa(lp98
I72
aI139
aI0
aa(lp99
I235
aI25
aa(lp100
I102
aI46
aI15
aI31
aI132
aI0
aI0
aa(lp101
I0
aI0
aI0
aa(lp102
I72
aI131
aI197
aI1
aa(lp103
I116
aI20
aa(lp104
I72
aI15
aI190
aI93
aI0
aa(lp105
I132
aI219
aa(lp106
I116
aI11
aa(lp107
I246
aI68
aI88
aI1
aI8
aa(lp108
I116
aI234
aa(lp109
I73
aI137
aI109
aI0
aa(lp110
I49
aI192
aa(lp111
I72
aI131
aI196
aI8
aa(lp112
I91
aa(lp113
I93
aa(lp114
I65
aI92
aa(lp115
I65
aI93
aa(lp116
I195
aasg13
(I6672
I6929
tp117
sg14
I3
sg15
g16
ssS'printf'
p118
(dp119
g7
g8
sg9
(lp120
sg11
(lp121
sg13
(tsg14
I1
sg15
g16
ssS'close'
p122
(dp123
g7
g8
sg9
(lp124
sg11
(lp125
sg13
(tsg14
I0
sg15
g16
ssS'bindtextdomain'
p126
(dp127
g7
g8
sg9
(lp128
sg11
(lp129
sg13
(tsg14
I0
sg15
g16
ssS'open'
p130
(dp131
g7
g8
sg9
(lp132
sg11
(lp133
sg13
(tsg14
I2
sg15
g16
ssS'get_terminal_stdfd'
p134
(dp135
g7
g8
sg9
(lp136
sg11
(lp137
(lp138
I72
aI131
aI236
aI8
aa(lp139
I49
aI255
aa(lp140
I232
aI85
aI245
aI255
aI255
aa(lp141
I49
aI210
aa(lp142
I133
aI192
aa(lp143
I116
aI15
aa(lp144
I137
aI208
aa(lp145
I72
aI131
aI196
aI8
aa(lp146
I195
aasg13
(tsg14
I0
sg15
g16
ssS'strtol'
p147
(dp148
g7
g8
sg9
(lp149
sg11
(lp150
sg13
(tsg14
I0
sg15
g16
ssS'rpmatch'
p151
(dp152
g7
g8
sg9
(lp153
sg11
(lp154
sg13
(tsg14
I0
sg15
g16
ssS'puts'
p155
(dp156
g7
g8
sg9
(lp157
sg11
(lp158
sg13
(tsg14
I0
sg15
g16
ssS'dcgettext'
p159
(dp160
g7
g8
sg9
(lp161
sg11
(lp162
sg13
(tsg14
I0
sg15
g16
ssS'__ctype_b_loc'
p163
(dp164
g7
g8
sg9
(lp165
sg11
(lp166
sg13
(tsg14
I0
sg15
g16
ssS'fputs'
p167
(dp168
g7
g8
sg9
(lp169
sg11
(lp170
sg13
(tsg14
I0
sg15
g16
ssS'fchmod'
p171
(dp172
g7
g8
sg9
(lp173
sg11
(lp174
sg13
(tsg14
I0
sg15
g16
ssS'exit'
p175
(dp176
g7
g8
sg9
(lp177
sg11
(lp178
sg13
(tsg14
I0
sg15
g16
ssS'__fxstat'
p179
(dp180
g7
g8
sg9
(lp181
sg11
(lp182
sg13
(tsg14
I0
sg15
g16
ssS'usage'
p183
(dp184
g7
g8
sg9
(lp185
sg11
(lp186
sg13
(tsg14
I0
sg15
g16
ssS'main'
p187
(dp188
g7
g8
sg9
(lp189
sg11
(lp190
(lp191
I65
aI86
aa(lp192
I65
aI85
aa(lp193
I65
aI84
aa(lp194
I85
aa(lp195
I65
aI137
aI252
aa(lp196
I83
aa(lp197
I72
aI137
aI243
aa(lp198
I72
aI141
aI53
aI209
aI11
aI0
aI0
aa(lp199
I191
aI6
aI0
aI0
aI0
aa(lp200
I49
aI237
aa(lp201
I72
aI129
aI236
aI192
aI0
aI0
aI0
aa(lp202
I100
aI72
aI139
aI4
aI37
aI40
aI0
aa(lp203
I0
aI0
aa(lp204
I72
aI137
aI132
aI36
aI184
aI0
aI0
aI0
aa(lp205
I49
aI192
aa(lp206
I232
aI53
aI255
aI255
aI255
aa(lp207
I72
aI141
aI53
aI206
aI10
aI0
aI0
aa(lp208
I72
aI141
aI61
aI217
aI10
aI0
aI0
aa(lp209
I232
aI18
aI254
aI255
aI255
aa(lp210
I72
aI141
aI61
aI205
aI10
aI0
aI0
aa(lp211
I232
aI246
aI253
aI255
aI255
aa(lp212
I72
aI141
aI61
aI143
aI5
aI0
aI0
aa(lp213
I232
aI122
aI10
aI0
aI0
aa(lp214
I72
aI141
aI13
aI211
aI26
aI32
aI0
aa(lp215
I72
aI141
aI21
aI123
aI11
aI0
aI0
aa(lp216
I69
aI49
aI192
aa(lp217
I72
aI137
aI222
aa(lp218
I68
aI137
aI231
aa(lp219
I232
aI14
aI254
aI255
aI255
aa(lp220
I131
aI248
aI255
aa(lp221
I15
aI132
aI131
aI0
aI0
aI0
aa(lp222
I131
aI248
aI104
aa(lp223
I189
aI1
aI0
aI0
aI0
aa(lp224
I15
aI132
aI101
aI2
aI0
aI0
aa(lp225
I131
aI248
aI118
aa(lp226
I116
aI200
aa(lp227
I131
aI248
aI86
aa(lp228
I72
aI139
aI29
aI152
aI30
aI32
aI0
aa(lp229
I186
aI5
aI0
aI0
aI0
aa(lp230
I116
aI49
aa(lp231
I72
aI141
aI53
aI34
aI12
aI0
aI0
aa(lp232
I49
aI255
aa(lp233
I232
aI179
aI253
aI255
aI255
aa(lp234
I72
aI139
aI61
aI156
aI30
aI32
aI0
aa(lp235
I72
aI137
aI194
aa(lp236
I72
aI137
aI217
aa(lp237
I190
aI1
aI0
aI0
aI0
aa(lp238
I49
aI192
aa(lp239
I232
aI250
aI254
aI255
aI255
aa(lp240
I191
aI1
aI0
aI0
aI0
aa(lp241
I232
aI224
aI254
aI255
aI255
aa(lp242
I72
aI141
aI53
aI70
aI10
aI0
aI0
aa(lp243
I49
aI255
aa(lp244
I232
aI130
aI253
aI255
aI255
aa(lp245
I72
aI141
aI13
aI68
aI10
aI0
aI0
aa(lp246
I72
aI137
aI198
aa(lp247
I191
aI1
aI0
aI0
aI0
aa(lp248
I72
aI137
aI218
aa(lp249
I49
aI192
aa(lp250
I232
aI121
aI254
aI255
aI255
aa(lp251
I49
aI255
aa(lp252
I232
aI178
aI254
aI255
aI255
aa(lp253
I72
aI99
aI5
aI59
aI30
aI32
aI0
aa(lp254
I76
aI141
aI52
aI195
aa(lp255
I232
aI194
aI7
aI0
aI0
aa(lp256
I133
aI192
aa(lp257
I137
aI195
aa(lp258
I15
aI136
aI22
aI3
aI0
aI0
aa(lp259
I137
aI199
aa(lp260
I232
aI49
aI254
aI255
aI255
aa(lp261
I72
aI133
aI192
aa(lp262
I73
aI137
aI197
aa(lp263
I15
aI132
aI254
aI0
aI0
aI0
aa(lp264
I49
aI246
aa(lp265
I49
aI192
aa(lp266
I76
aI137
aI239
aa(lp267
I232
aI89
aI254
aI255
aI255
aa(lp268
I133
aI192
aa(lp269
I65
aI137
aI196
aa(lp270
I186
aI5
aI0
aI0
aI0
aa(lp271
I72
aI141
aI53
aI182
aI10
aI0
aI0
aa(lp272
I15
aI136
aI23
aI3
aI0
aI0
aa(lp273
I72
aI137
aI226
aa(lp274
I137
aI198
aa(lp275
I191
aI1
aI0
aI0
aI0
aa(lp276
I232
aI227
aI253
aI255
aI255
aa(lp277
I133
aI192
aa(lp278
I137
aI195
aa(lp279
I15
aI133
aI23
aI3
aI0
aI0
aa(lp280
I73
aI139
aI62
aa(lp281
I72
aI133
aI255
aa(lp282
I15
aI132
aI138
aI0
aI0
aI0
aa(lp283
I232
aI120
aI253
aI255
aI255
aa(lp284
I133
aI192
aa(lp285
I116
aI91
aa(lp286
I131
aI248
aI1
aa(lp287
I15
aI133
aI7
aI3
aI0
aI0
aa(lp288
I139
aI116
aI36
aI24
aa(lp289
I68
aI137
aI231
aa(lp290
I131
aI206
aI16
aa(lp291
I232
aI236
aI253
aI255
aI255
aa(lp292
I133
aI192
aa(lp293
I15
aI136
aI189
aI2
aI0
aI0
aa(lp294
I133
aI237
aa(lp295
I15
aI133
aI40
aI1
aI0
aI0
aa(lp296
I68
aI137
aI231
aa(lp297
I137
aI235
aa(lp298
I232
aI34
aI253
aI255
aI255
aa(lp299
I72
aI139
aI140
aI36
aI184
aI0
aI0
aI0
aa(lp300
I100
aI72
aI51
aI12
aI37
aI40
aI0
aa(lp301
I0
aI0
aa(lp302
I137
aI216
aa(lp303
I15
aI133
aI98
aI2
aI0
aI0
aa(lp304
I72
aI129
aI196
aI192
aI0
aI0
aI0
aa(lp305
I91
aa(lp306
I93
aa(lp307
I65
aI92
aa(lp308
I65
aI93
aa(lp309
I65
aI94
aa(lp310
I195
aasg13
(I4320
I5562
tp311
sg14
I2
sg15
g16
ssS'fstat'
p312
(dp313
g7
g8
sg9
(lp314
sg11
(lp315
sg13
(tsg14
I2
sg15
g16
ssS'flush_standard_stream'
p316
(dp317
g7
g8
sg9
(lp318
sg11
(lp319
sg13
(tsg14
I1
sg15
g16
ssS'get_env_int'
p320
(dp321
g7
g8
sg9
(lp322
sg11
(lp323
(lp324
I85
aa(lp325
I83
aa(lp326
I72
aI131
aI236
aI24
aa(lp327
I100
aI72
aI139
aI4
aI37
aI40
aI0
aa(lp328
I0
aI0
aa(lp329
I72
aI137
aI68
aI36
aI8
aa(lp330
I49
aI192
aa(lp331
I232
aI117
aI246
aI255
aI255
aa(lp332
I72
aI133
aI192
aa(lp333
I116
aI112
aa(lp334
I72
aI137
aI195
aa(lp335
I72
aI199
aI4
aI36
aI0
aI0
aI0
aI0
aa(lp336
I232
aI144
aI246
aI255
aI255
aa(lp337
I186
aI10
aI0
aI0
aI0
aa(lp338
I72
aI137
aI197
aa(lp339
I199
aI0
aI0
aI0
aI0
aI0
aa(lp340
I72
aI137
aI230
aa(lp341
I72
aI137
aI223
aa(lp342
I232
aI151
aI247
aI255
aI255
aa(lp343
I139
aI85
aI0
aa(lp344
I133
aI210
aa(lp345
I117
aI64
aa(lp346
I72
aI139
aI20
aI36
aa(lp347
I72
aI133
aI210
aa(lp348
I116
aI55
aa(lp349
I128
aI58
aI0
aa(lp350
I117
aI50
aa(lp351
I72
aI57
aI218
aa(lp352
I118
aI45
aa(lp353
I72
aI141
aI80
aI255
aa(lp354
I72
aI129
aI250
aI254
aI255
aI255
aI127
aa(lp355
I119
aI32
aa(lp356
I72
aI139
aI76
aI36
aI8
aa(lp357
I100
aI72
aI51
aI12
aI37
aI40
aI0
aa(lp358
I0
aI0
aa(lp359
I117
aI23
aa(lp360
I72
aI131
aI196
aI24
aa(lp361
I91
aa(lp362
I93
aa(lp363
I195
aasg13
(I6160
I6316
tp364
sg14
I1
sg15
g16
ssS'fflush'
p365
(dp366
g7
g8
sg9
(lp367
sg11
(lp368
sg13
(tsg14
I0
sg15
g16
ssS'get_terminal_dimension'
p369
(dp370
g7
g8
sg9
(lp371
sg11
(lp372
(lp373
I65
aI84
aa(lp374
I85
aa(lp375
I72
aI137
aI253
aa(lp376
I83
aa(lp377
I191
aI1
aI0
aI0
aI0
aa(lp378
I72
aI137
aI243
aa(lp379
I190
aI19
aI84
aI0
aI0
aa(lp380
I72
aI131
aI236
aI16
aa(lp381
I100
aI72
aI139
aI4
aI37
aI40
aI0
aa(lp382
I0
aI0
aa(lp383
I72
aI137
aI68
aI36
aI8
aa(lp384
I49
aI192
aa(lp385
I72
aI137
aI226
aa(lp386
I232
aI208
aI246
aI255
aI255
aa(lp387
I133
aI192
aa(lp388
I116
aI44
aa(lp389
I72
aI133
aI237
aa(lp390
I116
aI15
aa(lp391
I72
aI141
aI61
aI128
aI5
aI0
aI0
aa(lp392
I232
aI27
aI255
aI255
aI255
aa(lp393
I137
aI69
aI0
aa(lp394
I72
aI133
aI219
aa(lp395
I116
aI54
aa(lp396
I72
aI141
aI61
aI116
aI5
aI0
aI0
aa(lp397
I232
aI7
aI255
aI255
aI255
aa(lp398
I65
aI137
aI196
aa(lp399
I235
aI34
aa(lp400
I102
aI144
aa(lp401
I72
aI133
aI237
aa(lp402
I68
aI15
aI183
aI36
aI36
aa(lp403
I116
aI12
aa(lp404
I15
aI183
aI68
aI36
aI2
aa(lp405
I133
aI192
aa(lp406
I116
aI48
aa(lp407
I137
aI69
aI0
aa(lp408
I72
aI133
aI219
aa(lp409
I116
aI8
aa(lp410
I69
aI133
aI228
aa(lp411
I116
aI205
aa(lp412
I68
aI137
aI35
aa(lp413
I49
aI192
aa(lp414
I72
aI139
aI76
aI36
aI8
aa(lp415
I100
aI72
aI51
aI12
aI37
aI40
aI0
aa(lp416
I0
aI0
aa(lp417
I117
aI9
aa(lp418
I72
aI131
aI196
aI16
aa(lp419
I91
aa(lp420
I93
aa(lp421
I65
aI92
aa(lp422
I195
aasg13
(I6320
I6497
tp423
sg14
I2
sg15
g16
ssS'isatty'
p424
(dp425
g7
g8
sg9
(lp426
sg11
(lp427
sg13
(tsg14
I0
sg15
g16
ssS'__printf_chk'
p428
(dp429
g7
g8
sg9
(lp430
sg11
(lp431
sg13
(tsg14
I0
sg15
g16
ssS'getenv'
p432
(dp433
g7
g8
sg9
(lp434
sg11
(lp435
sg13
(tsg14
I0
sg15
g16
ssS'warn'
p436
(dp437
g7
g8
sg9
(lp438
sg11
(lp439
sg13
(tsg14
I0
sg15
g16
ssS'dup'
p440
(dp441
g7
g8
sg9
(lp442
sg11
(lp443
sg13
(tsg14
I0
sg15
g16
ssS'ioctl'
p444
(dp445
g7
g8
sg9
(lp446
sg11
(lp447
sg13
(tsg14
I0
sg15
g16
ssS'getopt_long'
p448
(dp449
g7
g8
sg9
(lp450
sg11
(lp451
sg13
(tsg14
I0
sg15
g16
ssS'fileno'
p452
(dp453
g7
g8
sg9
(lp454
sg11
(lp455
sg13
(tsg14
I0
sg15
g16
ssS'get_terminal_type'
p456
(dp457
g7
g8
sg9
(lp458
sg11
(lp459
(lp460
I83
aa(lp461
I72
aI137
aI251
aa(lp462
I72
aI141
aI61
aI89
aI3
aI0
aI0
aa(lp463
I232
aI112
aI243
aI255
aI255
aa(lp464
I72
aI131
aI248
aI1
aa(lp465
I72
aI137
aI3
aa(lp466
I25
aI192
aa(lp467
I247
aI208
aa(lp468
I131
aI224
aI234
aa(lp469
I91
aa(lp470
I195
aasg13
(I6944
I6976
tp471
sg14
I1
sg15
g16
ssS'err'
p472
(dp473
g7
g8
sg9
(lp474
sg11
(lp475
sg13
(tsg14
I0
sg15
g16
ssS'atexit'
p476
(dp477
g7
g8
sg9
(lp478
sg11
(lp479
(lp480
I72
aI139
aI21
aI65
aI20
aI32
aI0
aa(lp481
I49
aI246
aa(lp482
I233
aI194
aI244
aI255
aI255
aasg13
(tsg14
I0
sg15
g16
ssS'__open_alias'
p483
(dp484
g7
g8
sg9
(lp485
sg11
(lp486
sg13
(tsg14
I0
sg15
g16
ssS'__errno_location'
p487
(dp488
g7
g8
sg9
(lp489
sg11
(lp490
sg13
(tsg14
I0
sg15
g16
ssS'__stack_chk_fail'
p491
(dp492
g7
g8
sg9
(lp493
sg11
(lp494
sg13
(tsg14
I0
sg15
g16
ssS'__builtin_fputc'
p495
(dp496
g7
g8
sg9
(lp497
sg11
(lp498
sg13
(tsg14
I0
sg15
g16
ssS'close_stdout'
p499
(dp500
g7
g8
sg9
(lp501
sg11
(lp502
(lp503
I85
aa(lp504
I83
aa(lp505
I72
aI131
aI236
aI8
aa(lp506
I72
aI139
aI45
aI75
aI25
aI32
aI0
aa(lp507
I232
aI238
aI247
aI255
aI255
aa(lp508
I199
aI0
aI0
aI0
aI0
aI0
aa(lp509
I72
aI137
aI195
aa(lp510
I72
aI137
aI239
aa(lp511
I232
aI29
aI248
aI255
aI255
aa(lp512
I133
aI192
aa(lp513
I116
aI121
aa(lp514
I139
aI3
aa(lp515
I131
aI248
aI9
aa(lp516
I117
aI50
aa(lp517
I72
aI139
aI45
aI59
aI25
aI32
aI0
aa(lp518
I199
aI3
aI0
aI0
aI0
aI0
aa(lp519
I72
aI137
aI239
aa(lp520
I232
aI253
aI247
aI255
aI255
aa(lp521
I133
aI192
aa(lp522
I15
aI132
aI157
aI0
aI0
aI0
aa(lp523
I131
aI59
aI9
aa(lp524
I117
aI64
aa(lp525
I72
aI131
aI196
aI8
aa(lp526
I91
aa(lp527
I93
aa(lp528
I195
aasg13
(I5840
I6159
tp529
sg14
I0
sg15
g16
ssS'textdomain'
p530
(dp531
g7
g8
sg9
(lp532
sg11
(lp533
sg13
(tsg14
I0
sg15
g16
ssS'get_terminal_width'
p534
(dp535
g7
g8
sg9
(lp536
sg11
(lp537
(lp538
I83
aa(lp539
I137
aI251
aa(lp540
I49
aI246
aa(lp541
I72
aI131
aI236
aI16
aa(lp542
I72
aI141
aI124
aI36
aI4
aa(lp543
I199
aI68
aI36
aI4
aI0
aI0
aI0
aI0
aa(lp544
I100
aI72
aI139
aI4
aI37
aI40
aI0
aa(lp545
I0
aI0
aa(lp546
I72
aI137
aI68
aI36
aI8
aa(lp547
I49
aI192
aa(lp548
I232
aI21
aI255
aI255
aI255
aa(lp549
I139
aI68
aI36
aI4
aa(lp550
I133
aI192
aa(lp551
I15
aI78
aI195
aa(lp552
I72
aI139
aI84
aI36
aI8
aa(lp553
I100
aI72
aI51
aI20
aI37
aI40
aI0
aa(lp554
I0
aI0
aa(lp555
I117
aI6
aa(lp556
I72
aI131
aI196
aI16
aa(lp557
I91
aa(lp558
I195
aasg13
(I6512
I6591
tp559
sg14
I1
sg15
g16
ssS'__builtin___snprintf_chk'
p560
(dp561
g7
g8
sg9
(lp562
sg11
(lp563
sg13
(tsg14
I0
sg15
g16
ssS'_exit'
p564
(dp565
g7
g8
sg9
(lp566
sg11
(lp567
sg13
(tsg14
I0
sg15
g16
ssS'ttyname'
p568
(dp569
g7
g8
sg9
(lp570
sg11
(lp571
sg13
(tsg14
I0
sg15
g16
sssS'function_calls'
p572
(dp573
sS'binary_filename'
p574
S'mesg'
p575
sS'structures'
p576
(dp577
sS'extern_functions'
p578
(dp579
sS'arch'
p580
S'amd64'
p581
sS'bin_raw_bytes'
p582
g8
s.