(dp0
S'text_addr'
p1
S'0xee0'
p2
sS'functions'
p3
(dp4
S'warnx'
p5
(dp6
S'ret_type'
p7
S''
p8
sS'args_type'
p9
(lp10
sS'inst_bytes'
p11
(lp12
sS'boundaries'
p13
(tsS'num_args'
p14
I0
sS'inst_strings'
p15
(lp16
ssS'setlocale'
p17
(dp18
g7
g8
sg9
(lp19
sg11
(lp20
sg13
(tsg14
I0
sg15
g16
ssS'__fprintf_chk'
p21
(dp22
g7
g8
sg9
(lp23
sg11
(lp24
sg13
(tsg14
I0
sg15
g16
ssS'fprintf'
p25
(dp26
g7
g8
sg9
(lp27
sg11
(lp28
sg13
(tsg14
I2
sg15
g16
ssS'close_stdout_atexit'
p29
(dp30
g7
g8
sg9
(lp31
sg11
(lp32
sg13
(tsg14
I0
sg15
g16
ssS'printf'
p33
(dp34
g7
g8
sg9
(lp35
sg11
(lp36
sg13
(tsg14
I1
sg15
g16
ssS'close'
p37
(dp38
g7
g8
sg9
(lp39
sg11
(lp40
sg13
(tsg14
I0
sg15
g16
ssS'bindtextdomain'
p41
(dp42
g7
g8
sg9
(lp43
sg11
(lp44
sg13
(tsg14
I0
sg15
g16
ssS'fflush'
p45
(dp46
g7
g8
sg9
(lp47
sg11
(lp48
sg13
(tsg14
I0
sg15
g16
ssS'dcgettext'
p49
(dp50
g7
g8
sg9
(lp51
sg11
(lp52
sg13
(tsg14
I0
sg15
g16
ssS'xasprintf'
p53
(dp54
g7
g8
sg9
(lp55
sg11
(lp56
sg13
(tsg14
I2
sg15
g16
ssS'fputs'
p57
(dp58
g7
g8
sg9
(lp59
sg11
(lp60
sg13
(tsg14
I0
sg15
g16
ssS'exit'
p61
(dp62
g7
g8
sg9
(lp63
sg11
(lp64
sg13
(tsg14
I0
sg15
g16
ssS'usage'
p65
(dp66
g7
g8
sg9
(lp67
sg11
(lp68
sg13
(tsg14
I0
sg15
g16
ssS'main'
p69
(dp70
g7
g8
sg9
(lp71
sg11
(lp72
(lp73
I65
aI86
aa(lp74
I65
aI85
aa(lp75
I65
aI84
aa(lp76
I85
aa(lp77
I72
aI137
aI245
aa(lp78
I83
aa(lp79
I72
aI141
aI53
aI10
aI9
aI0
aI0
aa(lp80
I137
aI251
aa(lp81
I191
aI6
aI0
aI0
aI0
aa(lp82
I72
aI131
aI236
aI16
aa(lp83
I100
aI72
aI139
aI4
aI37
aI40
aI0
aa(lp84
I0
aI0
aa(lp85
I72
aI137
aI68
aI36
aI8
aa(lp86
I49
aI192
aa(lp87
I232
aI94
aI255
aI255
aI255
aa(lp88
I72
aI141
aI53
aI123
aI8
aI0
aI0
aa(lp89
I72
aI141
aI61
aI134
aI8
aI0
aI0
aa(lp90
I232
aI107
aI254
aI255
aI255
aa(lp91
I72
aI141
aI61
aI122
aI8
aI0
aI0
aa(lp92
I232
aI79
aI254
aI255
aI255
aa(lp93
I72
aI141
aI61
aI72
aI6
aI0
aI0
aa(lp94
I232
aI3
aI8
aI0
aI0
aa(lp95
I131
aI251
aI2
aa(lp96
I15
aI132
aI166
aI1
aI0
aI0
aa(lp97
I76
aI141
aI45
aI19
aI29
aI32
aI0
aa(lp98
I199
aI5
aI233
aI32
aI32
aI0
aI0
aa(lp99
I0
aI0
aI0
aa(lp100
I69
aI49
aI228
aa(lp101
I69
aI49
aI246
aa(lp102
I72
aI141
aI21
aI21
aI9
aI0
aI0
aa(lp103
I69
aI49
aI192
aa(lp104
I76
aI137
aI233
aa(lp105
I72
aI137
aI238
aa(lp106
I137
aI223
aa(lp107
I232
aI76
aI254
aI255
aI255
aa(lp108
I131
aI248
aI255
aa(lp109
I15
aI132
aI140
aI1
aI0
aI0
aa(lp110
I131
aI248
aI104
aa(lp111
I15
aI132
aI154
aI1
aI0
aI0
aa(lp112
I126
aI72
aa(lp113
I131
aI248
aI116
aa(lp114
I15
aI132
aI79
aI1
aI0
aI0
aa(lp115
I131
aI192
aI128
aa(lp116
I117
aI74
aa(lp117
I72
aI139
aI29
aI131
aI32
aI32
aI0
aa(lp118
I72
aI141
aI53
aI16
aI8
aI0
aI0
aa(lp119
I186
aI5
aI0
aI0
aI0
aa(lp120
I49
aI255
aa(lp121
I232
aI240
aI253
aI255
aI255
aa(lp122
I72
aI141
aI13
aI9
aI8
aI0
aI0
aa(lp123
I72
aI137
aI198
aa(lp124
I191
aI1
aI0
aI0
aI0
aa(lp125
I72
aI137
aI218
aa(lp126
I49
aI192
aa(lp127
I232
aI183
aI254
aI255
aI255
aa(lp128
I49
aI255
aa(lp129
I232
aI224
aI254
aI255
aI255
aa(lp130
I131
aI248
aI86
aa(lp131
I117
aI11
aa(lp132
I65
aI131
aI196
aI1
aa(lp133
I235
aI130
aa(lp134
I15
aI31
aI68
aI0
aI0
aa(lp135
I139
aI5
aI74
aI32
aI32
aI0
aa(lp136
I131
aI232
aI1
aa(lp137
I137
aI5
aI65
aI32
aI32
aI0
aa(lp138
I57
aI195
aa(lp139
I15
aI132
aI62
aI3
aI0
aI0
aa(lp140
I77
aI133
aI246
aa(lp141
I15
aI132
aI20
aI1
aI0
aI0
aa(lp142
I72
aI141
aI53
aI93
aI7
aI0
aI0
aa(lp143
I72
aI137
aI231
aa(lp144
I49
aI192
aa(lp145
I76
aI137
aI242
aa(lp146
I232
aI140
aI4
aI0
aI0
aa(lp147
I139
aI5
aI22
aI32
aI32
aI0
aa(lp148
I72
aI139
aI60
aI36
aa(lp149
I131
aI232
aI1
aa(lp150
I69
aI133
aI228
aa(lp151
I137
aI5
aI6
aI32
aI32
aI0
aa(lp152
I72
aI152
aa(lp153
I72
aI137
aI124
aI197
aI0
aa(lp154
I15
aI132
aI196
aI2
aI0
aI0
aa(lp155
I72
aI139
aI29
aI226
aI31
aI32
aI0
aa(lp156
I72
aI141
aI53
aI111
aI7
aI0
aI0
aa(lp157
I49
aI255
aa(lp158
I186
aI5
aI0
aI0
aI0
aa(lp159
I232
aI79
aI253
aI255
aI255
aa(lp160
I72
aI141
aI13
aI104
aI7
aI0
aI0
aa(lp161
I72
aI137
aI218
aa(lp162
I72
aI137
aI198
aa(lp163
I191
aI1
aI0
aI0
aI0
aa(lp164
I49
aI192
aa(lp165
I232
aI22
aI254
aI255
aI255
aa(lp166
I72
aI99
aI5
aI191
aI31
aI32
aI0
aa(lp167
I72
aI141
aI92
aI197
aI0
aa(lp168
I72
aI139
aI19
aa(lp169
I72
aI133
aI210
aa(lp170
I116
aI37
aa(lp171
I76
aI141
aI45
aI13
aI8
aI0
aI0
aa(lp172
I15
aI31
aI0
aa(lp173
I49
aI192
aa(lp174
I72
aI131
aI195
aI8
aa(lp175
I76
aI137
aI238
aa(lp176
I191
aI1
aI0
aI0
aI0
aa(lp177
I232
aI229
aI253
aI255
aI255
aa(lp178
I72
aI139
aI19
aa(lp179
I72
aI133
aI210
aa(lp180
I117
aI229
aa(lp181
I191
aI10
aI0
aI0
aI0
aa(lp182
I232
aI131
aI252
aI255
aI255
aa(lp183
I65
aI131
aI236
aI1
aa(lp184
I72
aI139
aI60
aI36
aa(lp185
I15
aI132
aI64
aI2
aI0
aI0
aa(lp186
I49
aI192
aa(lp187
I72
aI139
aI76
aI36
aI8
aa(lp188
I100
aI72
aI51
aI12
aI37
aI40
aI0
aa(lp189
I0
aI0
aa(lp190
I15
aI133
aI37
aI2
aI0
aI0
aa(lp191
I72
aI131
aI196
aI16
aa(lp192
I91
aa(lp193
I93
aa(lp194
I65
aI92
aa(lp195
I65
aI93
aa(lp196
I65
aI94
aa(lp197
I195
aasg13
(I3808
I5007
tp198
sg14
I2
sg15
g16
ssS'ferror'
p199
(dp200
g7
g8
sg9
(lp201
sg11
(lp202
sg13
(tsg14
I0
sg15
g16
ssS'flush_standard_stream'
p203
(dp204
g7
g8
sg9
(lp205
sg11
(lp206
sg13
(tsg14
I1
sg15
g16
ssS'vasprintf'
p207
(dp208
g7
g8
sg9
(lp209
sg11
(lp210
sg13
(tsg14
I3
sg15
g16
ssS'__printf_chk'
p211
(dp212
g7
g8
sg9
(lp213
sg11
(lp214
sg13
(tsg14
I0
sg15
g16
ssS'execvp'
p215
(dp216
g7
g8
sg9
(lp217
sg11
(lp218
sg13
(tsg14
I0
sg15
g16
ssS'warn'
p219
(dp220
g7
g8
sg9
(lp221
sg11
(lp222
sg13
(tsg14
I0
sg15
g16
ssS'dup'
p223
(dp224
g7
g8
sg9
(lp225
sg11
(lp226
sg13
(tsg14
I0
sg15
g16
ssS'__vasprintf_chk'
p227
(dp228
g7
g8
sg9
(lp229
sg11
(lp230
sg13
(tsg14
I0
sg15
g16
ssS'getopt_long'
p231
(dp232
g7
g8
sg9
(lp233
sg11
(lp234
sg13
(tsg14
I0
sg15
g16
ssS'__builtin_putchar'
p235
(dp236
g7
g8
sg9
(lp237
sg11
(lp238
sg13
(tsg14
I0
sg15
g16
ssS'fileno'
p239
(dp240
g7
g8
sg9
(lp241
sg11
(lp242
sg13
(tsg14
I0
sg15
g16
ssS'err'
p243
(dp244
g7
g8
sg9
(lp245
sg11
(lp246
sg13
(tsg14
I0
sg15
g16
ssS'atexit'
p247
(dp248
g7
g8
sg9
(lp249
sg11
(lp250
(lp251
I72
aI139
aI21
aI193
aI24
aI32
aI0
aa(lp252
I49
aI246
aa(lp253
I233
aI82
aI247
aI255
aI255
aasg13
(tsg14
I0
sg15
g16
ssS'__errno_location'
p254
(dp255
g7
g8
sg9
(lp256
sg11
(lp257
sg13
(tsg14
I0
sg15
g16
ssS'__stack_chk_fail'
p258
(dp259
g7
g8
sg9
(lp260
sg11
(lp261
sg13
(tsg14
I0
sg15
g16
ssS'__builtin_fputc'
p262
(dp263
g7
g8
sg9
(lp264
sg11
(lp265
sg13
(tsg14
I0
sg15
g16
ssS'close_stdout'
p266
(dp267
g7
g8
sg9
(lp268
sg11
(lp269
(lp270
I85
aa(lp271
I83
aa(lp272
I72
aI131
aI236
aI8
aa(lp273
I72
aI139
aI45
aI155
aI26
aI32
aI0
aa(lp274
I232
aI174
aI247
aI255
aI255
aa(lp275
I199
aI0
aI0
aI0
aI0
aI0
aa(lp276
I72
aI137
aI195
aa(lp277
I72
aI137
aI239
aa(lp278
I232
aI205
aI247
aI255
aI255
aa(lp279
I133
aI192
aa(lp280
I116
aI121
aa(lp281
I139
aI3
aa(lp282
I131
aI248
aI9
aa(lp283
I117
aI50
aa(lp284
I72
aI139
aI45
aI171
aI26
aI32
aI0
aa(lp285
I199
aI3
aI0
aI0
aI0
aI0
aa(lp286
I72
aI137
aI239
aa(lp287
I232
aI173
aI247
aI255
aI255
aa(lp288
I133
aI192
aa(lp289
I15
aI132
aI157
aI0
aI0
aI0
aa(lp290
I131
aI59
aI9
aa(lp291
I117
aI64
aa(lp292
I72
aI131
aI196
aI8
aa(lp293
I91
aa(lp294
I93
aa(lp295
I195
aasg13
(I5504
I5823
tp296
sg14
I0
sg15
g16
ssS'textdomain'
p297
(dp298
g7
g8
sg9
(lp299
sg11
(lp300
sg13
(tsg14
I0
sg15
g16
ssS'_exit'
p301
(dp302
g7
g8
sg9
(lp303
sg11
(lp304
sg13
(tsg14
I0
sg15
g16
ssS'strcmp'
p305
(dp306
g7
g8
sg9
(lp307
sg11
(lp308
sg13
(tsg14
I0
sg15
g16
sssS'function_calls'
p309
(dp310
sS'binary_filename'
p311
S'mkfs'
p312
sS'structures'
p313
(dp314
sS'extern_functions'
p315
(dp316
sS'arch'
p317
S'amd64'
p318
sS'bin_raw_bytes'
p319
g8
s.