(dp0
S'text_addr'
p1
S'0xbe0'
p2
sS'functions'
p3
(dp4
S'setlocale'
p5
(dp6
S'ret_type'
p7
S''
p8
sS'args_type'
p9
(lp10
sS'inst_bytes'
p11
(lp12
sS'boundaries'
p13
(tsS'num_args'
p14
I0
sS'inst_strings'
p15
(lp16
ssS'__fprintf_chk'
p17
(dp18
g7
g8
sg9
(lp19
sg11
(lp20
sg13
(tsg14
I0
sg15
g16
ssS'fprintf'
p21
(dp22
g7
g8
sg9
(lp23
sg11
(lp24
sg13
(tsg14
I2
sg15
g16
ssS'printf'
p25
(dp26
g7
g8
sg9
(lp27
sg11
(lp28
sg13
(tsg14
I1
sg15
g16
ssS'close'
p29
(dp30
g7
g8
sg9
(lp31
sg11
(lp32
sg13
(tsg14
I0
sg15
g16
ssS'bindtextdomain'
p33
(dp34
g7
g8
sg9
(lp35
sg11
(lp36
sg13
(tsg14
I0
sg15
g16
ssS'open'
p37
(dp38
g7
g8
sg9
(lp39
sg11
(lp40
sg13
(tsg14
I2
sg15
g16
ssS'dcgettext'
p41
(dp42
g7
g8
sg9
(lp43
sg11
(lp44
sg13
(tsg14
I0
sg15
g16
ssS'write'
p45
(dp46
g7
g8
sg9
(lp47
sg11
(lp48
sg13
(tsg14
I0
sg15
g16
ssS'fputs'
p49
(dp50
g7
g8
sg9
(lp51
sg11
(lp52
sg13
(tsg14
I0
sg15
g16
ssS'exit'
p53
(dp54
g7
g8
sg9
(lp55
sg11
(lp56
sg13
(tsg14
I0
sg15
g16
ssS'__fxstat'
p57
(dp58
g7
g8
sg9
(lp59
sg11
(lp60
sg13
(tsg14
I0
sg15
g16
ssS'usage'
p61
(dp62
g7
g8
sg9
(lp63
sg11
(lp64
sg13
(tsg14
I0
sg15
g16
ssS'main'
p65
(dp66
g7
g8
sg9
(lp67
sg11
(lp68
(lp69
I65
aI84
aa(lp70
I85
aa(lp71
I137
aI253
aa(lp72
I83
aa(lp73
I72
aI137
aI243
aa(lp74
I72
aI141
aI53
aI18
aI5
aI0
aI0
aa(lp75
I191
aI6
aI0
aI0
aI0
aa(lp76
I73
aI188
aI0
aI32
aI72
aI16
aI0
aa(lp77
I124
aI0
aI0
aa(lp78
I72
aI129
aI236
aI160
aI32
aI0
aI0
aa(lp79
I100
aI72
aI139
aI4
aI37
aI40
aI0
aa(lp80
I0
aI0
aa(lp81
I72
aI137
aI132
aI36
aI152
aI32
aI0
aI0
aa(lp82
I49
aI192
aa(lp83
I232
aI98
aI255
aI255
aI255
aa(lp84
I72
aI141
aI53
aI143
aI4
aI0
aI0
aa(lp85
I72
aI141
aI61
aI154
aI4
aI0
aI0
aa(lp86
I232
aI191
aI254
aI255
aI255
aa(lp87
I72
aI141
aI61
aI142
aI4
aI0
aI0
aa(lp88
I232
aI163
aI254
aI255
aI255
aa(lp89
I235
aI30
aa(lp90
I144
aa(lp91
I141
aI72
aI170
aa(lp92
I131
aI249
aI46
aa(lp93
I15
aI135
aI16
aI1
aI0
aI0
aa(lp94
I184
aI1
aI0
aI0
aI0
aa(lp95
I72
aI211
aI224
aa(lp96
I76
aI133
aI224
aa(lp97
I15
aI132
aI240
aI0
aI0
aI0
aa(lp98
I72
aI141
aI13
aI92
aI15
aI32
aI0
aa(lp99
I72
aI141
aI21
aI61
aI5
aI0
aI0
aa(lp100
I69
aI49
aI192
aa(lp101
I72
aI137
aI222
aa(lp102
I137
aI239
aa(lp103
I232
aI168
aI254
aI255
aI255
aa(lp104
I131
aI248
aI255
aa(lp105
I117
aI195
aa(lp106
I72
aI141
aI61
aI44
aI5
aI0
aI0
aa(lp107
I49
aI246
aa(lp108
I49
aI192
aa(lp109
I232
aI19
aI255
aI255
aI255
aa(lp110
I133
aI192
aa(lp111
I137
aI195
aa(lp112
I121
aI81
aa(lp113
I72
aI141
aI53
aI230
aI5
aI0
aI0
aa(lp114
I186
aI5
aI0
aI0
aI0
aa(lp115
I49
aI255
aa(lp116
I232
aI90
aI254
aI255
aI255
aa(lp117
I72
aI139
aI61
aI123
aI19
aI32
aI0
aa(lp118
I72
aI137
aI194
aa(lp119
I190
aI1
aI0
aI0
aI0
aa(lp120
I49
aI192
aa(lp121
I232
aI4
aI255
aI255
aI255
aa(lp122
I72
aI139
aI148
aI36
aI152
aI32
aI0
aI0
aa(lp123
I100
aI72
aI51
aI20
aI37
aI40
aI0
aa(lp124
I0
aI0
aa(lp125
I184
aI1
aI0
aI0
aI0
aa(lp126
I15
aI133
aI255
aI1
aI0
aI0
aa(lp127
I72
aI129
aI196
aI160
aI32
aI0
aI0
aa(lp128
I91
aa(lp129
I93
aa(lp130
I65
aI92
aa(lp131
I195
aasg13
(I3040
I3865
tp132
sg14
I2
sg15
g16
ssS'fstat'
p133
(dp134
g7
g8
sg9
(lp135
sg11
(lp136
sg13
(tsg14
I2
sg15
g16
ssS'read'
p137
(dp138
g7
g8
sg9
(lp139
sg11
(lp140
sg13
(tsg14
I3
sg15
g16
ssS'__printf_chk'
p141
(dp142
g7
g8
sg9
(lp143
sg11
(lp144
sg13
(tsg14
I0
sg15
g16
ssS'getopt_long'
p145
(dp146
g7
g8
sg9
(lp147
sg11
(lp148
sg13
(tsg14
I0
sg15
g16
ssS'__read_alias'
p149
(dp150
g7
g8
sg9
(lp151
sg11
(lp152
sg13
(tsg14
I0
sg15
g16
ssS'__open_alias'
p153
(dp154
g7
g8
sg9
(lp155
sg11
(lp156
sg13
(tsg14
I0
sg15
g16
ssS'__stack_chk_fail'
p157
(dp158
g7
g8
sg9
(lp159
sg11
(lp160
sg13
(tsg14
I0
sg15
g16
ssS'__builtin_fputc'
p161
(dp162
g7
g8
sg9
(lp163
sg11
(lp164
sg13
(tsg14
I0
sg15
g16
ssS'textdomain'
p165
(dp166
g7
g8
sg9
(lp167
sg11
(lp168
sg13
(tsg14
I0
sg15
g16
sssS'function_calls'
p169
(dp170
sS'binary_filename'
p171
S'nologin'
p172
sS'structures'
p173
(dp174
sS'extern_functions'
p175
(dp176
sS'arch'
p177
S'amd64'
p178
sS'bin_raw_bytes'
p179
g8
s.