(dp0
S'text_addr'
p1
S'0xc90'
p2
sS'functions'
p3
(dp4
S'warnx'
p5
(dp6
S'ret_type'
p7
S''
p8
sS'args_type'
p9
(lp10
sS'inst_bytes'
p11
(lp12
sS'boundaries'
p13
(tsS'num_args'
p14
I0
sS'inst_strings'
p15
(lp16
ssS'setlocale'
p17
(dp18
g7
g8
sg9
(lp19
sg11
(lp20
sg13
(tsg14
I0
sg15
g16
ssS'syscall'
p21
(dp22
g7
g8
sg9
(lp23
sg11
(lp24
sg13
(tsg14
I0
sg15
g16
ssS'__fprintf_chk'
p25
(dp26
g7
g8
sg9
(lp27
sg11
(lp28
sg13
(tsg14
I0
sg15
g16
ssS'fprintf'
p29
(dp30
g7
g8
sg9
(lp31
sg11
(lp32
sg13
(tsg14
I2
sg15
g16
ssS'close_stdout_atexit'
p33
(dp34
g7
g8
sg9
(lp35
sg11
(lp36
sg13
(tsg14
I0
sg15
g16
ssS'printf'
p37
(dp38
g7
g8
sg9
(lp39
sg11
(lp40
sg13
(tsg14
I1
sg15
g16
ssS'close'
p41
(dp42
g7
g8
sg9
(lp43
sg11
(lp44
sg13
(tsg14
I0
sg15
g16
ssS'bindtextdomain'
p45
(dp46
g7
g8
sg9
(lp47
sg11
(lp48
sg13
(tsg14
I0
sg15
g16
ssS'fflush'
p49
(dp50
g7
g8
sg9
(lp51
sg11
(lp52
sg13
(tsg14
I0
sg15
g16
ssS'dcgettext'
p53
(dp54
g7
g8
sg9
(lp55
sg11
(lp56
sg13
(tsg14
I0
sg15
g16
ssS'fputs'
p57
(dp58
g7
g8
sg9
(lp59
sg11
(lp60
sg13
(tsg14
I0
sg15
g16
ssS'exit'
p61
(dp62
g7
g8
sg9
(lp63
sg11
(lp64
sg13
(tsg14
I0
sg15
g16
ssS'usage'
p65
(dp66
g7
g8
sg9
(lp67
sg11
(lp68
sg13
(tsg14
I0
sg15
g16
ssS'main'
p69
(dp70
g7
g8
sg9
(lp71
sg11
(lp72
(lp73
I85
aa(lp74
I83
aa(lp75
I72
aI137
aI243
aa(lp76
I72
aI141
aI53
aI239
aI5
aI0
aI0
aa(lp77
I137
aI253
aa(lp78
I191
aI6
aI0
aI0
aI0
aa(lp79
I72
aI131
aI236
aI8
aa(lp80
I232
aI132
aI255
aI255
aI255
aa(lp81
I72
aI141
aI53
aI109
aI5
aI0
aI0
aa(lp82
I72
aI141
aI61
aI120
aI5
aI0
aI0
aa(lp83
I232
aI177
aI254
aI255
aI255
aa(lp84
I72
aI141
aI61
aI108
aI5
aI0
aI0
aa(lp85
I232
aI149
aI254
aI255
aI255
aa(lp86
I72
aI141
aI61
aI94
aI3
aI0
aI0
aa(lp87
I232
aI25
aI5
aI0
aI0
aa(lp88
I72
aI141
aI13
aI226
aI15
aI32
aI0
aa(lp89
I72
aI141
aI21
aI88
aI5
aI0
aI0
aa(lp90
I69
aI49
aI192
aa(lp91
I72
aI137
aI222
aa(lp92
I137
aI239
aa(lp93
I232
aI158
aI254
aI255
aI255
aa(lp94
I131
aI248
aI255
aa(lp95
I116
aI63
aa(lp96
I131
aI248
aI86
aa(lp97
I117
aI102
aa(lp98
I72
aI139
aI29
aI29
aI19
aI32
aI0
aa(lp99
I72
aI141
aI53
aI54
aI5
aI0
aI0
aa(lp100
I186
aI5
aI0
aI0
aI0
aa(lp101
I49
aI255
aa(lp102
I232
aI106
aI254
aI255
aI255
aa(lp103
I72
aI141
aI13
aI47
aI5
aI0
aI0
aa(lp104
I72
aI137
aI198
aa(lp105
I191
aI1
aI0
aI0
aI0
aa(lp106
I72
aI137
aI218
aa(lp107
I49
aI192
aa(lp108
I232
aI17
aI255
aI255
aI255
aa(lp109
I49
aI255
aa(lp110
I232
aI42
aI255
aI255
aI255
aa(lp111
I131
aI253
aI3
aa(lp112
I15
aI133
aI73
aI1
aI0
aI0
aa(lp113
I72
aI139
aI83
aI16
aa(lp114
I72
aI139
aI115
aI8
aa(lp115
I49
aI192
aa(lp116
I191
aI155
aI0
aI0
aI0
aa(lp117
I232
aI157
aI254
aI255
aI255
aa(lp118
I72
aI133
aI192
aa(lp119
I15
aI136
aI134
aI1
aI0
aI0
aa(lp120
I90
aa(lp121
I49
aI192
aa(lp122
I91
aa(lp123
I93
aa(lp124
I195
aasg13
(I3216
I3858
tp125
sg14
I2
sg15
g16
ssS'ferror'
p126
(dp127
g7
g8
sg9
(lp128
sg11
(lp129
sg13
(tsg14
I0
sg15
g16
ssS'flush_standard_stream'
p130
(dp131
g7
g8
sg9
(lp132
sg11
(lp133
sg13
(tsg14
I1
sg15
g16
ssS'__printf_chk'
p134
(dp135
g7
g8
sg9
(lp136
sg11
(lp137
sg13
(tsg14
I0
sg15
g16
ssS'warn'
p138
(dp139
g7
g8
sg9
(lp140
sg11
(lp141
sg13
(tsg14
I0
sg15
g16
ssS'dup'
p142
(dp143
g7
g8
sg9
(lp144
sg11
(lp145
sg13
(tsg14
I0
sg15
g16
ssS'getopt_long'
p146
(dp147
g7
g8
sg9
(lp148
sg11
(lp149
sg13
(tsg14
I0
sg15
g16
ssS'fileno'
p150
(dp151
g7
g8
sg9
(lp152
sg11
(lp153
sg13
(tsg14
I0
sg15
g16
ssS'err'
p154
(dp155
g7
g8
sg9
(lp156
sg11
(lp157
sg13
(tsg14
I0
sg15
g16
ssS'atexit'
p158
(dp159
g7
g8
sg9
(lp160
sg11
(lp161
(lp162
I72
aI139
aI21
aI17
aI14
aI32
aI0
aa(lp163
I49
aI246
aa(lp164
I233
aI82
aI250
aI255
aI255
aasg13
(tsg14
I0
sg15
g16
ssS'__errno_location'
p165
(dp166
g7
g8
sg9
(lp167
sg11
(lp168
sg13
(tsg14
I0
sg15
g16
ssS'__builtin_fputc'
p169
(dp170
g7
g8
sg9
(lp171
sg11
(lp172
sg13
(tsg14
I0
sg15
g16
ssS'close_stdout'
p173
(dp174
g7
g8
sg9
(lp175
sg11
(lp176
(lp177
I85
aa(lp178
I83
aa(lp179
I72
aI131
aI236
aI8
aa(lp180
I72
aI139
aI45
aI235
aI15
aI32
aI0
aa(lp181
I232
aI222
aI250
aI255
aI255
aa(lp182
I199
aI0
aI0
aI0
aI0
aI0
aa(lp183
I72
aI137
aI195
aa(lp184
I72
aI137
aI239
aa(lp185
I232
aI253
aI250
aI255
aI255
aa(lp186
I133
aI192
aa(lp187
I116
aI121
aa(lp188
I139
aI3
aa(lp189
I131
aI248
aI9
aa(lp190
I117
aI50
aa(lp191
I72
aI139
aI45
aI219
aI15
aI32
aI0
aa(lp192
I199
aI3
aI0
aI0
aI0
aI0
aa(lp193
I72
aI137
aI239
aa(lp194
I232
aI221
aI250
aI255
aI255
aa(lp195
I133
aI192
aa(lp196
I15
aI132
aI157
aI0
aI0
aI0
aa(lp197
I131
aI59
aI9
aa(lp198
I117
aI64
aa(lp199
I72
aI131
aI196
aI8
aa(lp200
I91
aa(lp201
I93
aa(lp202
I195
aasg13
(I4144
I4463
tp203
sg14
I0
sg15
g16
ssS'textdomain'
p204
(dp205
g7
g8
sg9
(lp206
sg11
(lp207
sg13
(tsg14
I0
sg15
g16
ssS'_exit'
p208
(dp209
g7
g8
sg9
(lp210
sg11
(lp211
sg13
(tsg14
I0
sg15
g16
sssS'function_calls'
p212
(dp213
sS'binary_filename'
p214
S'pivot_root'
p215
sS'structures'
p216
(dp217
sS'extern_functions'
p218
(dp219
sS'arch'
p220
S'amd64'
p221
sS'bin_raw_bytes'
p222
g8
s.