(dp0
S'text_addr'
p1
S'0xed0'
p2
sS'functions'
p3
(dp4
S'warnx'
p5
(dp6
S'ret_type'
p7
S''
p8
sS'args_type'
p9
(lp10
sS'inst_bytes'
p11
(lp12
sS'boundaries'
p13
(tsS'num_args'
p14
I0
sS'inst_strings'
p15
(lp16
ssS'sscanf'
p17
(dp18
g7
g8
sg9
(lp19
sg11
(lp20
sg13
(tsg14
I0
sg15
g16
ssS'setlocale'
p21
(dp22
g7
g8
sg9
(lp23
sg11
(lp24
sg13
(tsg14
I0
sg15
g16
ssS'open_raw_ctl'
p25
(dp26
g7
g8
sg9
(lp27
sg11
(lp28
(lp29
I72
aI141
aI61
aI145
aI1
aI0
aI0
aa(lp30
I72
aI131
aI236
aI8
aa(lp31
I49
aI210
aa(lp32
I49
aI192
aa(lp33
I190
aI2
aI0
aI0
aI0
aa(lp34
I232
aI7
aI245
aI255
aI255
aa(lp35
I133
aI192
aa(lp36
I137
aI5
aI211
aI22
aI32
aI0
aa(lp37
I120
aI13
aa(lp38
I72
aI131
aI196
aI8
aa(lp39
I195
aasg13
(tsg14
I0
sg15
g16
ssS'atexit'
p40
(dp41
g7
g8
sg9
(lp42
sg11
(lp43
(lp44
I72
aI139
aI21
aI161
aI21
aI32
aI0
aa(lp45
I49
aI246
aa(lp46
I233
aI34
aI244
aI255
aI255
aasg13
(tsg14
I0
sg15
g16
ssS'errx'
p47
(dp48
g7
g8
sg9
(lp49
sg11
(lp50
sg13
(tsg14
I0
sg15
g16
ssS'fprintf'
p51
(dp52
g7
g8
sg9
(lp53
sg11
(lp54
sg13
(tsg14
I2
sg15
g16
ssS'close_stdout_atexit'
p55
(dp56
g7
g8
sg9
(lp57
sg11
(lp58
sg13
(tsg14
I0
sg15
g16
ssS'printf'
p59
(dp60
g7
g8
sg9
(lp61
sg11
(lp62
sg13
(tsg14
I1
sg15
g16
ssS'close'
p63
(dp64
g7
g8
sg9
(lp65
sg11
(lp66
sg13
(tsg14
I0
sg15
g16
ssS'query'
p67
(dp68
g7
g8
sg9
(lp69
sg11
(lp70
(lp71
I65
aI85
aa(lp72
I65
aI84
aa(lp73
I85
aa(lp74
I83
aa(lp75
I137
aI213
aa(lp76
I72
aI129
aI236
aI200
aI0
aI0
aI0
aa(lp77
I100
aI72
aI139
aI4
aI37
aI40
aI0
aa(lp78
I0
aI0
aa(lp79
I72
aI137
aI132
aI36
aI184
aI0
aI0
aI0
aa(lp80
I49
aI192
aa(lp81
I72
aI133
aI246
aa(lp82
I15
aI132
aI69
aI1
aI0
aI0
aa(lp83
I72
aI141
aI84
aI36
aI32
aa(lp84
I191
aI1
aI0
aI0
aI0
aa(lp85
I73
aI137
aI244
aa(lp86
I232
aI131
aI248
aI255
aI255
aa(lp87
I133
aI192
aa(lp88
I15
aI133
aI135
aI1
aI0
aI0
aa(lp89
I139
aI68
aI36
aI56
aa(lp90
I37
aI0
aI240
aI0
aI0
aa(lp91
I61
aI0
aI32
aI0
aI0
aa(lp92
I15
aI133
aI101
aI1
aI0
aI0
aa(lp93
I72
aI139
aI68
aI36
aI72
aa(lp94
I72
aI137
aI194
aa(lp95
I72
aI193
aI234
aI8
aa(lp96
I137
aI209
aa(lp97
I72
aI137
aI194
aa(lp98
I72
aI193
aI234
aI32
aa(lp99
I129
aI225
aI255
aI15
aI0
aI0
aa(lp100
I129
aI226
aI0
aI240
aI255
aI255
aa(lp101
I9
aI202
aa(lp102
I129
aI250
aI162
aI0
aI0
aI0
aa(lp103
I15
aI133
aI17
aI1
aI0
aI0
aa(lp104
I15
aI182
aI200
aa(lp105
I72
aI193
aI232
aI12
aa(lp106
I72
aI137
aI195
aa(lp107
I48
aI219
aa(lp108
I9
aI203
aa(lp109
I139
aI61
aI88
aI26
aI32
aI0
aa(lp110
I49
aI192
aa(lp111
I72
aI137
aI226
aa(lp112
I190
aI1
aI172
aI0
aI0
aa(lp113
I137
aI28
aI36
aa(lp114
I232
aI194
aI247
aI255
aI255
aa(lp115
I133
aI192
aa(lp116
I120
aI126
aa(lp117
I133
aI237
aa(lp118
I199
aI5
aI46
aI26
aI32
aI0
aI1
aa(lp119
I0
aI0
aI0
aa(lp120
I76
aI139
aI100
aI36
aI8
aa(lp121
I76
aI139
aI108
aI36
aI16
aa(lp122
I116
aI10
aa(lp123
I77
aI133
aI228
aa(lp124
I117
aI5
aa(lp125
I77
aI133
aI237
aa(lp126
I116
aI49
aa(lp127
I72
aI141
aI53
aI37
aI6
aI0
aI0
aa(lp128
I186
aI5
aI0
aI0
aI0
aa(lp129
I49
aI255
aa(lp130
I232
aI25
aI247
aI255
aI255
aa(lp131
I72
aI141
aI21
aI139
aI4
aI0
aI0
aa(lp132
I72
aI137
aI198
aa(lp133
I69
aI137
aI233
aa(lp134
I69
aI137
aI224
aa(lp135
I137
aI217
aa(lp136
I191
aI1
aI0
aI0
aI0
aa(lp137
I49
aI192
aa(lp138
I232
aI11
aI248
aI255
aI255
aa(lp139
I49
aI192
aa(lp140
I72
aI139
aI180
aI36
aI184
aI0
aI0
aI0
aa(lp141
I100
aI72
aI51
aI52
aI37
aI40
aI0
aa(lp142
I0
aI0
aa(lp143
I117
aI122
aa(lp144
I72
aI129
aI196
aI200
aI0
aI0
aI0
aa(lp145
I91
aa(lp146
I93
aa(lp147
I65
aI92
aa(lp148
I65
aI93
aa(lp149
I195
aasg13
(I5472
I5969
tp150
sg14
I3
sg15
g16
ssS'bindtextdomain'
p151
(dp152
g7
g8
sg9
(lp153
sg11
(lp154
sg13
(tsg14
I0
sg15
g16
ssS'open'
p155
(dp156
g7
g8
sg9
(lp157
sg11
(lp158
sg13
(tsg14
I2
sg15
g16
ssS'fflush'
p159
(dp160
g7
g8
sg9
(lp161
sg11
(lp162
sg13
(tsg14
I0
sg15
g16
ssS'strtol'
p163
(dp164
g7
g8
sg9
(lp165
sg11
(lp166
sg13
(tsg14
I0
sg15
g16
ssS'fputs'
p167
(dp168
g7
g8
sg9
(lp169
sg11
(lp170
sg13
(tsg14
I0
sg15
g16
ssS'dcgettext'
p171
(dp172
g7
g8
sg9
(lp173
sg11
(lp174
sg13
(tsg14
I0
sg15
g16
ssS'gnu_dev_major'
p175
(dp176
g7
g8
sg9
(lp177
sg11
(lp178
sg13
(tsg14
I1
sg15
g16
ssS'exit'
p179
(dp180
g7
g8
sg9
(lp181
sg11
(lp182
sg13
(tsg14
I0
sg15
g16
ssS'usage'
p183
(dp184
g7
g8
sg9
(lp185
sg11
(lp186
sg13
(tsg14
I0
sg15
g16
ssS'main'
p187
(dp188
g7
g8
sg9
(lp189
sg11
(lp190
(lp191
I65
aI85
aa(lp192
I65
aI84
aa(lp193
I76
aI141
aI37
aI101
aI29
aI32
aI0
aa(lp194
I85
aa(lp195
I83
aa(lp196
I72
aI137
aI243
aa(lp197
I72
aI141
aI53
aI236
aI12
aI0
aI0
aa(lp198
I137
aI253
aa(lp199
I191
aI6
aI0
aI0
aI0
aa(lp200
I72
aI129
aI236
aI200
aI0
aI0
aI0
aa(lp201
I100
aI72
aI139
aI4
aI37
aI40
aI0
aa(lp202
I0
aI0
aa(lp203
I72
aI137
aI132
aI36
aI184
aI0
aI0
aI0
aa(lp204
I49
aI192
aa(lp205
I232
aI83
aI255
aI255
aI255
aa(lp206
I72
aI141
aI53
aI0
aI12
aI0
aI0
aa(lp207
I72
aI141
aI61
aI11
aI12
aI0
aI0
aa(lp208
I232
aI48
aI254
aI255
aI255
aa(lp209
I72
aI141
aI61
aI255
aI11
aI0
aI0
aa(lp210
I232
aI20
aI254
aI255
aI255
aa(lp211
I72
aI141
aI61
aI237
aI8
aI0
aI0
aa(lp212
I232
aI40
aI11
aI0
aI0
aa(lp213
I72
aI141
aI21
aI156
aI12
aI0
aI0
aa(lp214
I69
aI49
aI192
aa(lp215
I76
aI137
aI225
aa(lp216
I72
aI137
aI222
aa(lp217
I137
aI239
aa(lp218
I232
aI49
aI254
aI255
aI255
aa(lp219
I131
aI248
aI255
aa(lp220
I15
aI132
aI135
aI0
aI0
aI0
aa(lp221
I131
aI248
aI97
aa(lp222
I116
aI115
aa(lp223
I127
aI73
aa(lp224
I131
aI248
aI86
aa(lp225
I15
aI133
aI14
aI4
aI0
aI0
aa(lp226
I72
aI139
aI29
aI177
aI32
aI32
aI0
aa(lp227
I72
aI141
aI53
aI187
aI11
aI0
aI0
aa(lp228
I186
aI5
aI0
aI0
aI0
aa(lp229
I49
aI255
aa(lp230
I232
aI222
aI253
aI255
aI255
aa(lp231
I72
aI141
aI13
aI180
aI11
aI0
aI0
aa(lp232
I72
aI137
aI198
aa(lp233
I191
aI1
aI0
aI0
aI0
aa(lp234
I72
aI137
aI218
aa(lp235
I49
aI192
aa(lp236
I232
aI213
aI254
aI255
aI255
aa(lp237
I49
aI255
aa(lp238
I232
aI254
aI254
aI255
aI255
aa(lp239
I102
aI15
aI31
aI68
aI0
aI0
aa(lp240
I131
aI248
aI104
aa(lp241
I15
aI132
aI72
aI2
aI0
aI0
aa(lp242
I131
aI248
aI113
aa(lp243
I15
aI133
aI188
aI3
aI0
aI0
aa(lp244
I199
aI5
aI152
aI32
aI32
aI0
aI1
aa(lp245
I0
aI0
aI0
aa(lp246
I233
aI111
aI255
aI255
aI255
aa(lp247
I15
aI31
aI128
aI0
aI0
aI0
aI0
aa(lp248
I199
aI5
aI126
aI32
aI32
aI0
aI1
aa(lp249
I0
aI0
aI0
aa(lp250
I233
aI89
aI255
aI255
aI255
aa(lp251
I232
aI124
aI9
aI0
aI0
aa(lp252
I131
aI61
aI109
aI32
aI32
aI0
aI0
aa(lp253
I116
aI51
aa(lp254
I57
aI45
aI61
aI32
aI32
aI0
aa(lp255
I187
aI1
aI0
aI0
aI0
aa(lp256
I15
aI140
aI91
aI3
aI0
aI0
aa(lp257
I102
aI144
aa(lp258
I49
aI246
aa(lp259
I137
aI223
aa(lp260
I186
aI1
aI0
aI0
aI0
aa(lp261
I131
aI195
aI1
aa(lp262
I232
aI79
aI5
aI0
aI0
aa(lp263
I129
aI251
aI0
aI32
aI0
aI0
aa(lp264
I117
aI231
aa(lp265
I49
aI255
aa(lp266
I232
aI128
aI254
aI255
aI255
aa(lp267
I72
aI99
aI5
aI9
aI32
aI32
aI0
aa(lp268
I57
aI232
aa(lp269
I15
aI141
aI42
aI3
aI0
aI0
aa(lp270
I141
aI80
aI1
aa(lp271
I76
aI139
aI44
aI195
aa(lp272
I72
aI141
aI53
aI173
aI11
aI0
aI0
aa(lp273
I49
aI192
aa(lp274
I137
aI21
aI235
aI31
aI32
aI0
aa(lp275
I72
aI141
aI21
aI4
aI32
aI32
aI0
aa(lp276
I76
aI137
aI239
aa(lp277
I232
aI252
aI253
aI255
aI255
aa(lp278
I131
aI232
aI1
aa(lp279
I15
aI133
aI252
aI2
aI0
aI0
aa(lp280
I139
aI61
aI237
aI31
aI32
aI0
aa(lp281
I133
aI255
aa(lp282
I15
aI132
aI111
aI3
aI0
aI0
aa(lp283
I68
aI139
aI37
aI234
aI31
aI32
aI0
aa(lp284
I69
aI133
aI228
aa(lp285
I15
aI133
aI8
aI1
aI0
aI0
aa(lp286
I72
aI99
aI5
aI174
aI31
aI32
aI0
aa(lp287
I41
aI197
aa(lp288
I131
aI253
aI1
aa(lp289
I15
aI132
aI5
aI1
aI0
aI0
aa(lp290
I131
aI253
aI2
aa(lp291
I15
aI133
aI195
aI2
aI0
aI0
aa(lp292
I72
aI141
aI53
aI92
aI11
aI0
aI0
aa(lp293
I186
aI5
aI0
aI0
aI0
aa(lp294
I49
aI255
aa(lp295
I232
aI183
aI252
aI255
aI255
aa(lp296
I72
aI99
aI21
aI128
aI31
aI32
aI0
aa(lp297
I72
aI137
aI198
aa(lp298
I72
aI139
aI60
aI211
aa(lp299
I232
aI164
aI6
aI0
aI0
aa(lp300
I72
aI141
aI53
aI54
aI11
aI0
aI0
aa(lp301
I186
aI5
aI0
aI0
aI0
aa(lp302
I49
aI255
aa(lp303
I137
aI197
aa(lp304
I232
aI143
aI252
aI255
aI255
aa(lp305
I72
aI99
aI21
aI88
aI31
aI32
aI0
aa(lp306
I72
aI137
aI198
aa(lp307
I72
aI139
aI124
aI211
aI8
aa(lp308
I232
aI123
aI6
aI0
aI0
aa(lp309
I139
aI21
aI101
aI31
aI32
aI0
aa(lp310
I139
aI61
aI99
aI31
aI32
aI0
aa(lp311
I72
aI152
aa(lp312
I72
aI137
aI68
aI36
aI16
aa(lp313
I190
aI0
aI172
aI0
aI0
aa(lp314
I49
aI192
aa(lp315
I137
aI20
aI36
aa(lp316
I72
aI99
aI213
aa(lp317
I72
aI137
aI84
aI36
aI8
aa(lp318
I72
aI137
aI226
aa(lp319
I232
aI190
aI252
aI255
aI255
aa(lp320
I133
aI192
aa(lp321
I15
aI136
aI158
aI2
aI0
aI0
aa(lp322
I76
aI139
aI108
aI36
aI16
aa(lp323
I72
aI139
aI108
aI36
aI8
aa(lp324
I72
aI141
aI53
aI53
aI11
aI0
aI0
aa(lp325
I139
aI29
aI31
aI31
aI32
aI0
aa(lp326
I186
aI5
aI0
aI0
aI0
aa(lp327
I49
aI255
aa(lp328
I232
aI35
aI252
aI255
aI255
aa(lp329
I72
aI141
aI21
aI149
aI9
aI0
aI0
aa(lp330
I72
aI137
aI198
aa(lp331
I69
aI137
aI233
aa(lp332
I65
aI137
aI232
aa(lp333
I137
aI217
aa(lp334
I191
aI1
aI0
aI0
aI0
aa(lp335
I49
aI192
aa(lp336
I232
aI21
aI253
aI255
aI255
aa(lp337
I72
aI139
aI140
aI36
aI184
aI0
aI0
aI0
aa(lp338
I100
aI72
aI51
aI12
aI37
aI40
aI0
aa(lp339
I0
aI0
aa(lp340
I68
aI137
aI224
aa(lp341
I15
aI133
aI62
aI2
aI0
aI0
aa(lp342
I72
aI129
aI196
aI200
aI0
aI0
aI0
aa(lp343
I91
aa(lp344
I93
aa(lp345
I65
aI92
aa(lp346
I65
aI93
aa(lp347
I195
aasg13
(I3792
I5193
tp348
sg14
I2
sg15
g16
ssS'ferror'
p349
(dp350
g7
g8
sg9
(lp351
sg11
(lp352
sg13
(tsg14
I0
sg15
g16
ssS'flush_standard_stream'
p353
(dp354
g7
g8
sg9
(lp355
sg11
(lp356
sg13
(tsg14
I1
sg15
g16
ssS'strtol_octal_or_err'
p357
(dp358
g7
g8
sg9
(lp359
sg11
(lp360
(lp361
I65
aI84
aa(lp362
I85
aa(lp363
I73
aI137
aI244
aa(lp364
I83
aa(lp365
I72
aI137
aI251
aa(lp366
I72
aI131
aI236
aI16
aa(lp367
I100
aI72
aI139
aI4
aI37
aI40
aI0
aa(lp368
I0
aI0
aa(lp369
I72
aI137
aI68
aI36
aI8
aa(lp370
I49
aI192
aa(lp371
I72
aI199
aI4
aI36
aI0
aI0
aI0
aI0
aa(lp372
I232
aI117
aI245
aI255
aI255
aa(lp373
I72
aI133
aI219
aa(lp374
I72
aI137
aI197
aa(lp375
I116
aI5
aa(lp376
I128
aI59
aI0
aa(lp377
I117
aI32
aa(lp378
I139
aI117
aI0
aa(lp379
I133
aI246
aa(lp380
I117
aI50
aa(lp381
I72
aI141
aI53
aI61
aI3
aI0
aI0
aa(lp382
I72
aI137
aI217
aa(lp383
I76
aI137
aI226
aa(lp384
I191
aI1
aI0
aI0
aI0
aa(lp385
I49
aI192
aa(lp386
I232
aI216
aI245
aI255
aI255
aa(lp387
I49
aI210
aa(lp388
I199
aI0
aI0
aI0
aI0
aI0
aa(lp389
I72
aI137
aI230
aa(lp390
I72
aI137
aI223
aa(lp391
I232
aI53
aI246
aI255
aI255
aa(lp392
I131
aI125
aI0
aI0
aa(lp393
I116
aI25
aa(lp394
I72
aI141
aI53
aI11
aI3
aI0
aI0
aa(lp395
I72
aI137
aI217
aa(lp396
I76
aI137
aI226
aa(lp397
I191
aI1
aI0
aI0
aI0
aa(lp398
I49
aI192
aa(lp399
I232
aI70
aI246
aI255
aI255
aa(lp400
I72
aI139
aI20
aI36
aa(lp401
I72
aI57
aI218
aa(lp402
I116
aI172
aa(lp403
I72
aI133
aI210
aa(lp404
I116
aI5
aa(lp405
I128
aI58
aI0
aa(lp406
I117
aI162
aa(lp407
I72
aI139
aI76
aI36
aI8
aa(lp408
I100
aI72
aI51
aI12
aI37
aI40
aI0
aa(lp409
I0
aI0
aa(lp410
I117
aI9
aa(lp411
I72
aI131
aI196
aI16
aa(lp412
I91
aa(lp413
I93
aa(lp414
I65
aI92
aa(lp415
I195
aasg13
(I5984
I6171
tp416
sg14
I2
sg15
g16
ssS'stat'
p417
(dp418
g7
g8
sg9
(lp419
sg11
(lp420
sg13
(tsg14
I2
sg15
g16
ssS'__printf_chk'
p421
(dp422
g7
g8
sg9
(lp423
sg11
(lp424
sg13
(tsg14
I0
sg15
g16
ssS'warn'
p425
(dp426
g7
g8
sg9
(lp427
sg11
(lp428
sg13
(tsg14
I0
sg15
g16
ssS'dup'
p429
(dp430
g7
g8
sg9
(lp431
sg11
(lp432
sg13
(tsg14
I0
sg15
g16
ssS'ioctl'
p433
(dp434
g7
g8
sg9
(lp435
sg11
(lp436
sg13
(tsg14
I0
sg15
g16
ssS'getopt_long'
p437
(dp438
g7
g8
sg9
(lp439
sg11
(lp440
sg13
(tsg14
I0
sg15
g16
ssS'gnu_dev_minor'
p441
(dp442
g7
g8
sg9
(lp443
sg11
(lp444
sg13
(tsg14
I1
sg15
g16
ssS'fileno'
p445
(dp446
g7
g8
sg9
(lp447
sg11
(lp448
sg13
(tsg14
I0
sg15
g16
ssS'err'
p449
(dp450
g7
g8
sg9
(lp451
sg11
(lp452
sg13
(tsg14
I0
sg15
g16
ssS'__fprintf_chk'
p453
(dp454
g7
g8
sg9
(lp455
sg11
(lp456
sg13
(tsg14
I0
sg15
g16
ssS'bind'
p457
(dp458
g7
g8
sg9
(lp459
sg11
(lp460
sg13
(tsg14
I3
sg15
g16
ssS'__open_alias'
p461
(dp462
g7
g8
sg9
(lp463
sg11
(lp464
sg13
(tsg14
I0
sg15
g16
ssS'__errno_location'
p465
(dp466
g7
g8
sg9
(lp467
sg11
(lp468
sg13
(tsg14
I0
sg15
g16
ssS'__stack_chk_fail'
p469
(dp470
g7
g8
sg9
(lp471
sg11
(lp472
sg13
(tsg14
I0
sg15
g16
ssS'__builtin_fputc'
p473
(dp474
g7
g8
sg9
(lp475
sg11
(lp476
sg13
(tsg14
I0
sg15
g16
ssS'close_stdout'
p477
(dp478
g7
g8
sg9
(lp479
sg11
(lp480
(lp481
I85
aa(lp482
I83
aa(lp483
I72
aI131
aI236
aI8
aa(lp484
I72
aI139
aI45
aI251
aI23
aI32
aI0
aa(lp485
I232
aI206
aI244
aI255
aI255
aa(lp486
I199
aI0
aI0
aI0
aI0
aI0
aa(lp487
I72
aI137
aI195
aa(lp488
I72
aI137
aI239
aa(lp489
I232
aI237
aI244
aI255
aI255
aa(lp490
I133
aI192
aa(lp491
I116
aI121
aa(lp492
I139
aI3
aa(lp493
I131
aI248
aI9
aa(lp494
I117
aI50
aa(lp495
I72
aI139
aI45
aI235
aI23
aI32
aI0
aa(lp496
I199
aI3
aI0
aI0
aI0
aI0
aa(lp497
I72
aI137
aI239
aa(lp498
I232
aI205
aI244
aI255
aI255
aa(lp499
I133
aI192
aa(lp500
I15
aI132
aI157
aI0
aI0
aI0
aa(lp501
I131
aI59
aI9
aa(lp502
I117
aI64
aa(lp503
I72
aI131
aI196
aI8
aa(lp504
I91
aa(lp505
I93
aa(lp506
I195
aasg13
(I6176
I6495
tp507
sg14
I0
sg15
g16
ssS'textdomain'
p508
(dp509
g7
g8
sg9
(lp510
sg11
(lp511
sg13
(tsg14
I0
sg15
g16
ssS'__xstat'
p512
(dp513
g7
g8
sg9
(lp514
sg11
(lp515
sg13
(tsg14
I0
sg15
g16
ssS'_exit'
p516
(dp517
g7
g8
sg9
(lp518
sg11
(lp519
sg13
(tsg14
I0
sg15
g16
sssS'function_calls'
p520
(dp521
sS'binary_filename'
p522
S'raw'
p523
sS'structures'
p524
(dp525
sS'extern_functions'
p526
(dp527
sS'arch'
p528
S'amd64'
p529
sS'bin_raw_bytes'
p530
g8
s.