(dp0
S'text_addr'
p1
S'0x13b0'
p2
sS'functions'
p3
(dp4
S'rename'
p5
(dp6
S'ret_type'
p7
S''
p8
sS'args_type'
p9
(lp10
sS'inst_bytes'
p11
(lp12
sS'boundaries'
p13
(tsS'num_args'
p14
I0
sS'inst_strings'
p15
(lp16
ssS'warnx'
p17
(dp18
g7
g8
sg9
(lp19
sg11
(lp20
sg13
(tsg14
I0
sg15
g16
ssS'malloc'
p21
(dp22
g7
g8
sg9
(lp23
sg11
(lp24
sg13
(tsg14
I0
sg15
g16
ssS'rpmatch'
p25
(dp26
g7
g8
sg9
(lp27
sg11
(lp28
sg13
(tsg14
I0
sg15
g16
ssS'setlocale'
p29
(dp30
g7
g8
sg9
(lp31
sg11
(lp32
sg13
(tsg14
I0
sg15
g16
ssS'fgetc'
p33
(dp34
g7
g8
sg9
(lp35
sg11
(lp36
sg13
(tsg14
I0
sg15
g16
ssS'do_file'
p37
(dp38
g7
g8
sg9
(lp39
sg11
(lp40
(lp41
I65
aI87
aa(lp42
I65
aI86
aa(lp43
I69
aI137
aI207
aa(lp44
I65
aI85
aa(lp45
I65
aI84
aa(lp46
I73
aI137
aI245
aa(lp47
I85
aa(lp48
I83
aa(lp49
I49
aI246
aa(lp50
I73
aI137
aI252
aa(lp51
I72
aI137
aI215
aa(lp52
I72
aI137
aI211
aa(lp53
I72
aI131
aI236
aI40
aa(lp54
I65
aI137
aI206
aa(lp55
I100
aI72
aI139
aI4
aI37
aI40
aI0
aa(lp56
I0
aI0
aa(lp57
I72
aI137
aI68
aI36
aI24
aa(lp58
I49
aI192
aa(lp59
I68
aI137
aI68
aI36
aI12
aa(lp60
I72
aI199
aI68
aI36
aI16
aI0
aI0
aa(lp61
I0
aI0
aa(lp62
I232
aI203
aI243
aI255
aI255
aa(lp63
I133
aI192
aa(lp64
I15
aI133
aI227
aI0
aI0
aI0
aa(lp65
I190
aI47
aI0
aI0
aI0
aa(lp66
I76
aI137
aI231
aa(lp67
I137
aI197
aa(lp68
I232
aI148
aI242
aI255
aI255
aa(lp69
I72
aI133
aI192
aa(lp70
I72
aI137
aI218
aa(lp71
I15
aI132
aI144
aI0
aI0
aI0
aa(lp72
I76
aI141
aI68
aI36
aI16
aa(lp73
I72
aI137
aI217
aa(lp74
I76
aI137
aI238
aa(lp75
I76
aI137
aI231
aa(lp76
I232
aI5
aI251
aI255
aI255
aa(lp77
I133
aI192
aa(lp78
I117
aI78
aa(lp79
I68
aI137
aI248
aa(lp80
I11
aI68
aI36
aI96
aa(lp81
I76
aI139
aI100
aI36
aI16
aa(lp82
I15
aI133
aI207
aI0
aI0
aI0
aa(lp83
I139
aI68
aI36
aI12
aa(lp84
I133
aI192
aa(lp85
I15
aI132
aI51
aI1
aI0
aI0
aa(lp86
I69
aI133
aI246
aa(lp87
I189
aI1
aI0
aI0
aI0
aa(lp88
I116
aI30
aa(lp89
I72
aI141
aI53
aI184
aI4
aI0
aI0
aa(lp90
I76
aI137
aI225
aa(lp91
I72
aI137
aI218
aa(lp92
I191
aI1
aI0
aI0
aI0
aa(lp93
I49
aI192
aa(lp94
I232
aI48
aI243
aI255
aI255
aa(lp95
I76
aI139
aI100
aI36
aI16
aa(lp96
I76
aI137
aI231
aa(lp97
I232
aI243
aI240
aI255
aI255
aa(lp98
I72
aI139
aI76
aI36
aI24
aa(lp99
I100
aI72
aI51
aI12
aI37
aI40
aI0
aa(lp100
I0
aI0
aa(lp101
I137
aI232
aa(lp102
I15
aI133
aI68
aI1
aI0
aI0
aa(lp103
I72
aI131
aI196
aI40
aa(lp104
I91
aa(lp105
I93
aa(lp106
I65
aI92
aa(lp107
I65
aI93
aa(lp108
I65
aI94
aa(lp109
I65
aI95
aa(lp110
I195
aasg13
(I7984
I8696
tp111
sg14
I7
sg15
g16
ssS'__builtin_puts'
p112
(dp113
g7
g8
sg9
(lp114
sg11
(lp115
sg13
(tsg14
I0
sg15
g16
ssS'__lxstat'
p116
(dp117
g7
g8
sg9
(lp118
sg11
(lp119
sg13
(tsg14
I0
sg15
g16
ssS'__fprintf_chk'
p120
(dp121
g7
g8
sg9
(lp122
sg11
(lp123
sg13
(tsg14
I0
sg15
g16
ssS'fprintf'
p124
(dp125
g7
g8
sg9
(lp126
sg11
(lp127
sg13
(tsg14
I2
sg15
g16
ssS'close_stdout_atexit'
p128
(dp129
g7
g8
sg9
(lp130
sg11
(lp131
sg13
(tsg14
I0
sg15
g16
ssS'printf'
p132
(dp133
g7
g8
sg9
(lp134
sg11
(lp135
sg13
(tsg14
I1
sg15
g16
ssS'close'
p136
(dp137
g7
g8
sg9
(lp138
sg11
(lp139
sg13
(tsg14
I0
sg15
g16
ssS'isatty'
p140
(dp141
g7
g8
sg9
(lp142
sg11
(lp143
sg13
(tsg14
I0
sg15
g16
ssS'bindtextdomain'
p144
(dp145
g7
g8
sg9
(lp146
sg11
(lp147
sg13
(tsg14
I0
sg15
g16
ssS'strlen'
p148
(dp149
g7
g8
sg9
(lp150
sg11
(lp151
sg13
(tsg14
I0
sg15
g16
ssS'fflush'
p152
(dp153
g7
g8
sg9
(lp154
sg11
(lp155
sg13
(tsg14
I0
sg15
g16
ssS'strchr'
p156
(dp157
g7
g8
sg9
(lp158
sg11
(lp159
sg13
(tsg14
I0
sg15
g16
ssS'tcgetattr'
p160
(dp161
g7
g8
sg9
(lp162
sg11
(lp163
sg13
(tsg14
I0
sg15
g16
ssS'unlink'
p164
(dp165
g7
g8
sg9
(lp166
sg11
(lp167
sg13
(tsg14
I0
sg15
g16
ssS'do_symlink'
p168
(dp169
g7
g8
sg9
(lp170
sg11
(lp171
(lp172
I65
aI87
aa(lp173
I65
aI86
aa(lp174
I65
aI137
aI206
aa(lp175
I65
aI85
aa(lp176
I65
aI84
aa(lp177
I73
aI137
aI245
aa(lp178
I85
aa(lp179
I83
aa(lp180
I72
aI137
aI211
aa(lp181
I185
aI0
aI1
aI0
aI0
aa(lp182
I49
aI210
aa(lp183
I72
aI137
aI222
aa(lp184
I72
aI129
aI236
aI216
aI0
aI0
aI0
aa(lp185
I69
aI137
aI199
aa(lp186
I72
aI137
aI124
aI36
aI8
aa(lp187
I191
aI156
aI255
aI255
aI255
aa(lp188
I68
aI137
aI76
aI36
aI20
aa(lp189
I100
aI72
aI139
aI4
aI37
aI40
aI0
aa(lp190
I0
aI0
aa(lp191
I72
aI137
aI132
aI36
aI200
aI0
aI0
aI0
aa(lp192
I49
aI192
aa(lp193
I72
aI199
aI68
aI36
aI40
aI0
aI0
aa(lp194
I0
aI0
aa(lp195
I232
aI105
aI245
aI255
aI255
aa(lp196
I133
aI192
aa(lp197
I116
aI26
aa(lp198
I232
aI240
aI244
aI255
aI255
aa(lp199
I131
aI56
aI22
aa(lp200
I186
aI5
aI0
aI0
aI0
aa(lp201
I72
aI141
aI53
aI228
aI7
aI0
aI0
aa(lp202
I15
aI133
aI47
aI1
aI0
aI0
aa(lp203
I76
aI141
aI100
aI36
aI48
aa(lp204
I72
aI137
aI222
aa(lp205
I191
aI1
aI0
aI0
aI0
aa(lp206
I76
aI137
aI226
aa(lp207
I232
aI166
aI245
aI255
aI255
aa(lp208
I131
aI248
aI255
aa(lp209
I15
aI132
aI5
aI1
aI0
aI0
aa(lp210
I139
aI68
aI36
aI72
aa(lp211
I37
aI0
aI240
aI0
aI0
aa(lp212
I61
aI0
aI160
aI0
aI0
aa(lp213
I15
aI133
aI153
aI0
aI0
aI0
aa(lp214
I72
aI139
aI68
aI36
aI96
aa(lp215
I72
aI141
aI80
aI1
aa(lp216
I72
aI137
aI215
aa(lp217
I72
aI137
aI84
aI36
aI24
aa(lp218
I232
aI115
aI246
aI255
aI255
aa(lp219
I72
aI133
aI192
aa(lp220
I72
aI137
aI197
aa(lp221
I72
aI139
aI84
aI36
aI24
aa(lp222
I117
aI9
aa(lp223
I72
aI133
aI210
aa(lp224
I15
aI133
aI205
aI1
aI0
aI0
aa(lp225
I72
aI137
aI238
aa(lp226
I72
aI137
aI223
aa(lp227
I232
aI242
aI244
aI255
aI255
aa(lp228
I72
aI133
aI192
aa(lp229
I15
aI136
aI41
aI1
aI0
aI0
aa(lp230
I72
aI139
aI68
aI36
aI96
aa(lp231
I72
aI139
aI124
aI36
aI8
aa(lp232
I76
aI141
aI68
aI36
aI40
aa(lp233
I72
aI137
aI233
aa(lp234
I72
aI137
aI234
aa(lp235
I76
aI137
aI238
aa(lp236
I198
aI68
aI5
aI0
aI0
aa(lp237
I232
aI231
aI253
aI255
aI255
aa(lp238
I133
aI192
aa(lp239
I15
aI132
aI175
aI0
aI0
aI0
aa(lp240
I69
aI133
aI246
aa(lp241
I116
aI9
aa(lp242
I69
aI133
aI255
aa(lp243
I15
aI133
aI17
aI2
aI0
aI0
aa(lp244
I69
aI49
aI228
aa(lp245
I72
aI139
aI124
aI36
aI40
aa(lp246
I232
aI4
aI244
aI255
aI255
aa(lp247
I72
aI137
aI239
aa(lp248
I232
aI252
aI243
aI255
aI255
aa(lp249
I235
aI48
aa(lp250
I102
aI46
aI15
aI31
aI132
aI0
aI0
aa(lp251
I0
aI0
aI0
aa(lp252
I72
aI141
aI53
aI49
aI7
aI0
aI0
aa(lp253
I186
aI5
aI0
aI0
aI0
aa(lp254
I49
aI255
aa(lp255
I65
aI188
aI2
aI0
aI0
aI0
aa(lp256
I232
aI183
aI244
aI255
aI255
aa(lp257
I72
aI137
aI222
aa(lp258
I72
aI137
aI199
aa(lp259
I49
aI192
aa(lp260
I232
aI10
aI245
aI255
aI255
aa(lp261
I72
aI139
aI140
aI36
aI200
aI0
aI0
aI0
aa(lp262
I100
aI72
aI51
aI12
aI37
aI40
aI0
aa(lp263
I0
aI0
aa(lp264
I68
aI137
aI224
aa(lp265
I15
aI133
aI227
aI1
aI0
aI0
aa(lp266
I72
aI129
aI196
aI216
aI0
aI0
aI0
aa(lp267
I91
aa(lp268
I93
aa(lp269
I65
aI92
aa(lp270
I65
aI93
aa(lp271
I65
aI94
aa(lp272
I65
aI95
aa(lp273
I195
aasg13
(I7104
I7976
tp274
sg14
I7
sg15
g16
ssS'fputs'
p275
(dp276
g7
g8
sg9
(lp277
sg11
(lp278
sg13
(tsg14
I0
sg15
g16
ssS'access'
p279
(dp280
g7
g8
sg9
(lp281
sg11
(lp282
sg13
(tsg14
I0
sg15
g16
ssS'dcgettext'
p283
(dp284
g7
g8
sg9
(lp285
sg11
(lp286
sg13
(tsg14
I0
sg15
g16
ssS'faccessat'
p287
(dp288
g7
g8
sg9
(lp289
sg11
(lp290
sg13
(tsg14
I0
sg15
g16
ssS'exit'
p291
(dp292
g7
g8
sg9
(lp293
sg11
(lp294
sg13
(tsg14
I0
sg15
g16
ssS'usage'
p295
(dp296
g7
g8
sg9
(lp297
sg11
(lp298
sg13
(tsg14
I0
sg15
g16
ssS'strrchr'
p299
(dp300
g7
g8
sg9
(lp301
sg11
(lp302
sg13
(tsg14
I0
sg15
g16
ssS'main'
p303
(dp304
g7
g8
sg9
(lp305
sg11
(lp306
(lp307
I65
aI87
aa(lp308
I65
aI86
aa(lp309
I76
aI141
aI61
aI117
aI11
aI0
aI0
aa(lp310
I65
aI85
aa(lp311
I65
aI84
aa(lp312
I65
aI137
aI252
aa(lp313
I85
aa(lp314
I83
aa(lp315
I72
aI137
aI245
aa(lp316
I72
aI141
aI53
aI243
aI16
aI0
aI0
aa(lp317
I191
aI6
aI0
aI0
aI0
aa(lp318
I72
aI141
aI29
aI238
aI19
aI0
aI0
aa(lp319
I72
aI131
aI236
aI120
aa(lp320
I69
aI49
aI237
aa(lp321
I69
aI49
aI246
aa(lp322
I100
aI72
aI139
aI4
aI37
aI40
aI0
aa(lp323
I0
aI0
aa(lp324
I72
aI137
aI68
aI36
aI104
aa(lp325
I49
aI192
aa(lp326
I232
aI23
aI255
aI255
aI255
aa(lp327
I72
aI141
aI53
aI230
aI16
aI0
aI0
aa(lp328
I72
aI141
aI61
aI241
aI16
aI0
aI0
aa(lp329
I232
aI180
aI253
aI255
aI255
aa(lp330
I72
aI141
aI61
aI229
aI16
aI0
aI0
aa(lp331
I232
aI152
aI253
aI255
aI255
aa(lp332
I72
aI141
aI61
aI225
aI13
aI0
aI0
aa(lp333
I232
aI156
aI15
aI0
aI0
aa(lp334
I199
aI68
aI36
aI12
aI0
aI0
aI0
aI0
aa(lp335
I199
aI68
aI36
aI8
aI0
aI0
aI0
aI0
aa(lp336
I15
aI31
aI64
aI0
aa(lp337
I72
aI141
aI13
aI33
aI39
aI32
aI0
aa(lp338
I72
aI141
aI21
aI121
aI17
aI0
aI0
aa(lp339
I69
aI49
aI192
aa(lp340
I72
aI137
aI238
aa(lp341
I68
aI137
aI231
aa(lp342
I232
aI188
aI253
aI255
aI255
aa(lp343
I131
aI248
aI255
aa(lp344
I15
aI132
aI173
aI0
aI0
aI0
aa(lp345
I131
aI232
aI86
aa(lp346
I131
aI248
aI32
aa(lp347
I15
aI135
aI110
aI3
aI0
aI0
aa(lp348
I72
aI99
aI4
aI131
aa(lp349
I72
aI1
aI216
aa(lp350
I255
aI224
aa(lp351
I102
aI15
aI31
aI68
aI0
aI0
aa(lp352
I199
aI68
aI36
aI8
aI1
aI0
aI0
aI0
aa(lp353
I235
aI182
aa(lp354
I102
aI15
aI31
aI68
aI0
aI0
aa(lp355
I76
aI141
aI61
aI49
aI7
aI0
aI0
aa(lp356
I235
aI167
aa(lp357
I15
aI31
aI128
aI0
aI0
aI0
aI0
aa(lp358
I69
aI49
aI237
aa(lp359
I65
aI190
aI1
aI0
aI0
aI0
aa(lp360
I235
aI149
aa(lp361
I15
aI31
aI68
aI0
aI0
aa(lp362
I199
aI68
aI36
aI12
aI1
aI0
aI0
aI0
aa(lp363
I235
aI134
aa(lp364
I102
aI15
aI31
aI68
aI0
aI0
aa(lp365
I65
aI189
aI1
aI0
aI0
aI0
aa(lp366
I69
aI49
aI246
aa(lp367
I233
aI114
aI255
aI255
aI255
aa(lp368
I102
aI46
aI15
aI31
aI132
aI0
aI0
aa(lp369
I0
aI0
aI0
aa(lp370
I72
aI139
aI29
aI73
aI43
aI32
aI0
aa(lp371
I72
aI141
aI53
aI37
aI16
aI0
aI0
aa(lp372
I186
aI5
aI0
aI0
aI0
aa(lp373
I49
aI255
aa(lp374
I232
aI230
aI252
aI255
aI255
aa(lp375
I72
aI141
aI13
aI30
aI16
aI0
aI0
aa(lp376
I72
aI137
aI198
aa(lp377
I191
aI1
aI0
aI0
aI0
aa(lp378
I72
aI137
aI218
aa(lp379
I49
aI192
aa(lp380
I232
aI29
aI254
aI255
aI255
aa(lp381
I49
aI255
aa(lp382
I232
aI102
aI254
aI255
aI255
aa(lp383
I72
aI99
aI5
aI39
aI43
aI32
aI0
aa(lp384
I65
aI41
aI196
aa(lp385
I72
aI141
aI92
aI197
aI0
aa(lp386
I65
aI131
aI252
aI2
aa(lp387
I15
aI142
aI151
aI2
aI0
aI0
aa(lp388
I72
aI139
aI67
aI8
aa(lp389
I72
aI139
aI59
aa(lp390
I72
aI137
aI198
aa(lp391
I72
aI137
aI124
aI36
aI16
aa(lp392
I72
aI137
aI68
aI36
aI24
aa(lp393
I232
aI116
aI253
aI255
aI255
aa(lp394
I133
aI192
aa(lp395
I15
aI132
aI175
aI0
aI0
aI0
aa(lp396
I69
aI133
aI237
aa(lp397
I199
aI5
aI251
aI42
aI32
aI0
aI0
aa(lp398
I0
aI0
aI0
aa(lp399
I15
aI133
aI189
aI2
aI0
aI0
aa(lp400
I65
aI141
aI68
aI36
aI253
aa(lp401
I72
aI141
aI107
aI16
aa(lp402
I76
aI141
aI100
aI195
aI24
aa(lp403
I49
aI219
aa(lp404
I102
aI15
aI31
aI132
aI0
aI0
aI0
aa(lp405
I0
aI0
aa(lp406
I72
aI131
aI236
aI8
aa(lp407
I72
aI139
aI85
aI0
aa(lp408
I72
aI131
aI197
aI8
aa(lp409
I65
aI85
aa(lp410
I69
aI137
aI241
aa(lp411
I68
aI139
aI68
aI36
aI28
aa(lp412
I139
aI76
aI36
aI24
aa(lp413
I72
aI139
aI116
aI36
aI40
aa(lp414
I72
aI139
aI124
aI36
aI32
aa(lp415
I65
aI255
aI215
aa(lp416
I9
aI195
aa(lp417
I73
aI57
aI236
aa(lp418
I88
aa(lp419
I90
aa(lp420
I117
aI208
aa(lp421
I131
aI251
aI1
aa(lp422
I15
aI132
aI193
aI2
aI0
aI0
aa(lp423
I15
aI142
aI169
aI2
aI0
aI0
aa(lp424
I131
aI251
aI2
aa(lp425
I184
aI1
aI0
aI0
aI0
aa(lp426
I116
aI23
aa(lp427
I131
aI251
aI3
aa(lp428
I184
aI2
aI0
aI0
aI0
aa(lp429
I116
aI13
aa(lp430
I184
aI64
aI0
aI0
aI0
aa(lp431
I15
aI31
aI132
aI0
aI0
aI0
aI0
aI0
aa(lp432
I72
aI139
aI76
aI36
aI104
aa(lp433
I100
aI72
aI51
aI12
aI37
aI40
aI0
aa(lp434
I0
aI0
aa(lp435
I15
aI133
aI175
aI2
aI0
aI0
aa(lp436
I72
aI131
aI196
aI120
aa(lp437
I91
aa(lp438
I93
aa(lp439
I65
aI92
aa(lp440
I65
aI93
aa(lp441
I65
aI94
aa(lp442
I65
aI95
aa(lp443
I195
aasg13
(I5040
I6296
tp444
sg14
I2
sg15
g16
ssS'ferror'
p445
(dp446
g7
g8
sg9
(lp447
sg11
(lp448
sg13
(tsg14
I0
sg15
g16
ssS'flush_standard_stream'
p449
(dp450
g7
g8
sg9
(lp451
sg11
(lp452
sg13
(tsg14
I1
sg15
g16
ssS'string_replace'
p453
(dp454
g7
g8
sg9
(lp455
sg11
(lp456
(lp457
I65
aI87
aa(lp458
I65
aI86
aa(lp459
I73
aI137
aI247
aa(lp460
I65
aI85
aa(lp461
I65
aI84
aa(lp462
I72
aI137
aI254
aa(lp463
I85
aa(lp464
I83
aa(lp465
I73
aI137
aI253
aa(lp466
I72
aI137
aI215
aa(lp467
I73
aI137
aI204
aa(lp468
I77
aI137
aI198
aa(lp469
I72
aI131
aI236
aI24
aa(lp470
I232
aI187
aI248
aI255
aI255
aa(lp471
I72
aI133
aI192
aa(lp472
I15
aI132
aI178
aI0
aI0
aI0
aa(lp473
I76
aI137
aI231
aa(lp474
I72
aI137
aI197
aa(lp475
I232
aI247
aI246
aI255
aI255
aa(lp476
I76
aI137
aI255
aa(lp477
I72
aI137
aI195
aa(lp478
I232
aI236
aI246
aI255
aI255
aa(lp479
I72
aI141
aI68
aI3
aI1
aa(lp480
I72
aI137
aI199
aa(lp481
I72
aI137
aI68
aI36
aI8
aa(lp482
I232
aI234
aI247
aI255
aI255
aa(lp483
I72
aI133
aI192
aa(lp484
I72
aI137
aI195
aa(lp485
I15
aI132
aI146
aI0
aI0
aI0
aa(lp486
I76
aI57
aI229
aa(lp487
I73
aI137
aI6
aa(lp488
I118
aI49
aa(lp489
I72
aI137
aI199
aa(lp490
I76
aI137
aI230
aa(lp491
I164
aa(lp492
I72
aI57
aI245
aa(lp493
I117
aI250
aa(lp494
I72
aI137
aI232
aa(lp495
I76
aI41
aI224
aa(lp496
I72
aI1
aI195
aa(lp497
I65
aI15
aI182
aI7
aa(lp498
I132
aI192
aa(lp499
I116
aI28
aa(lp500
I102
aI15
aI31
aI132
aI0
aI0
aI0
aa(lp501
I0
aI0
aa(lp502
I72
aI131
aI195
aI1
aa(lp503
I73
aI131
aI199
aI1
aa(lp504
I136
aI67
aI255
aa(lp505
I65
aI15
aI182
aI7
aa(lp506
I132
aI192
aa(lp507
I117
aI237
aa(lp508
I76
aI137
aI239
aa(lp509
I232
aI133
aI246
aI255
aI255
aa(lp510
I72
aI1
aI232
aa(lp511
I15
aI182
aI16
aa(lp512
I132
aI210
aa(lp513
I116
aI21
aa(lp514
I15
aI31
aI0
aa(lp515
I72
aI131
aI192
aI1
aa(lp516
I72
aI131
aI195
aI1
aa(lp517
I136
aI83
aI255
aa(lp518
I15
aI182
aI16
aa(lp519
I132
aI210
aa(lp520
I117
aI238
aa(lp521
I198
aI3
aI0
aa(lp522
I72
aI131
aI196
aI24
aa(lp523
I49
aI192
aa(lp524
I91
aa(lp525
I93
aa(lp526
I65
aI92
aa(lp527
I65
aI93
aa(lp528
I65
aI94
aa(lp529
I65
aI95
aa(lp530
I195
aasg13
(I6832
I7100
tp531
sg14
I5
sg15
g16
ssS'lstat'
p532
(dp533
g7
g8
sg9
(lp534
sg11
(lp535
sg13
(tsg14
I2
sg15
g16
ssS'__printf_chk'
p536
(dp537
g7
g8
sg9
(lp538
sg11
(lp539
sg13
(tsg14
I0
sg15
g16
ssS'free'
p540
(dp541
g7
g8
sg9
(lp542
sg11
(lp543
sg13
(tsg14
I0
sg15
g16
ssS'warn'
p544
(dp545
g7
g8
sg9
(lp546
sg11
(lp547
sg13
(tsg14
I0
sg15
g16
ssS'dup'
p548
(dp549
g7
g8
sg9
(lp550
sg11
(lp551
sg13
(tsg14
I0
sg15
g16
ssS'readlink'
p552
(dp553
g7
g8
sg9
(lp554
sg11
(lp555
sg13
(tsg14
I3
sg15
g16
ssS'symlink'
p556
(dp557
g7
g8
sg9
(lp558
sg11
(lp559
sg13
(tsg14
I0
sg15
g16
ssS'__readlink_alias'
p560
(dp561
g7
g8
sg9
(lp562
sg11
(lp563
sg13
(tsg14
I0
sg15
g16
ssS'ask'
p564
(dp565
g7
g8
sg9
(lp566
sg11
(lp567
(lp568
I85
aa(lp569
I83
aa(lp570
I72
aI141
aI53
aI43
aI10
aI0
aI0
aa(lp571
I72
aI137
aI253
aa(lp572
I186
aI5
aI0
aI0
aI0
aa(lp573
I49
aI255
aa(lp574
I72
aI131
aI236
aI24
aa(lp575
I72
aI139
aI29
aI82
aI38
aI32
aI0
aa(lp576
I100
aI72
aI139
aI4
aI37
aI40
aI0
aa(lp577
I0
aI0
aa(lp578
I72
aI137
aI68
aI36
aI8
aa(lp579
I49
aI192
aa(lp580
I232
aI237
aI247
aI255
aI255
aa(lp581
I72
aI137
aI233
aa(lp582
I72
aI137
aI198
aa(lp583
I72
aI137
aI218
aa(lp584
I191
aI1
aI0
aI0
aI0
aa(lp585
I49
aI192
aa(lp586
I232
aI40
aI249
aI255
aI255
aa(lp587
I72
aI139
aI61
aI41
aI38
aI32
aI0
aa(lp588
I232
aI252
aI248
aI255
aI255
aa(lp589
I72
aI139
aI61
aI37
aI38
aI32
aI0
aa(lp590
I232
aI112
aI248
aI255
aI255
aa(lp591
I131
aI248
aI255
aa(lp592
I116
aI123
aa(lp593
I131
aI248
aI10
aa(lp594
I136
aI68
aI36
aI6
aa(lp595
I116
aI34
aa(lp596
I139
aI5
aI40
aI38
aI32
aI0
aa(lp597
I72
aI139
aI61
aI5
aI38
aI32
aI0
aa(lp598
I133
aI192
aa(lp599
I116
aI77
aa(lp600
I232
aI108
aI247
aI255
aI255
aa(lp601
I191
aI10
aI0
aI0
aI0
aa(lp602
I232
aI194
aI246
aI255
aI255
aa(lp603
I102
aI144
aa(lp604
I72
aI141
aI124
aI36
aI6
aa(lp605
I198
aI68
aI36
aI7
aI0
aa(lp606
I232
aI113
aI248
aI255
aI255
aa(lp607
I131
aI248
aI1
aa(lp608
I15
aI149
aI192
aa(lp609
I72
aI139
aI76
aI36
aI8
aa(lp610
I100
aI72
aI51
aI12
aI37
aI40
aI0
aa(lp611
I0
aI0
aa(lp612
I15
aI182
aI192
aa(lp613
I117
aI59
aa(lp614
I72
aI131
aI196
aI24
aa(lp615
I91
aa(lp616
I93
aa(lp617
I195
aasg13
(I6576
I6824
tp618
sg14
I1
sg15
g16
ssS'getopt_long'
p619
(dp620
g7
g8
sg9
(lp621
sg11
(lp622
sg13
(tsg14
I0
sg15
g16
ssS'__builtin_putchar'
p623
(dp624
g7
g8
sg9
(lp625
sg11
(lp626
sg13
(tsg14
I0
sg15
g16
ssS'__fpurge'
p627
(dp628
g7
g8
sg9
(lp629
sg11
(lp630
sg13
(tsg14
I0
sg15
g16
ssS'fileno'
p631
(dp632
g7
g8
sg9
(lp633
sg11
(lp634
sg13
(tsg14
I0
sg15
g16
ssS'strstr'
p635
(dp636
g7
g8
sg9
(lp637
sg11
(lp638
sg13
(tsg14
I0
sg15
g16
ssS'err'
p639
(dp640
g7
g8
sg9
(lp641
sg11
(lp642
sg13
(tsg14
I0
sg15
g16
ssS'atexit'
p643
(dp644
g7
g8
sg9
(lp645
sg11
(lp646
(lp647
I72
aI139
aI21
aI65
aI28
aI32
aI0
aa(lp648
I49
aI246
aa(lp649
I233
aI146
aI239
aI255
aI255
aasg13
(tsg14
I0
sg15
g16
ssS'__errno_location'
p650
(dp651
g7
g8
sg9
(lp652
sg11
(lp653
sg13
(tsg14
I0
sg15
g16
ssS'__stack_chk_fail'
p654
(dp655
g7
g8
sg9
(lp656
sg11
(lp657
sg13
(tsg14
I0
sg15
g16
ssS'__builtin_fputc'
p658
(dp659
g7
g8
sg9
(lp660
sg11
(lp661
sg13
(tsg14
I0
sg15
g16
ssS'close_stdout'
p662
(dp663
g7
g8
sg9
(lp664
sg11
(lp665
(lp666
I85
aa(lp667
I83
aa(lp668
I72
aI131
aI236
aI8
aa(lp669
I72
aI139
aI45
aI27
aI30
aI32
aI0
aa(lp670
I232
aI254
aI238
aI255
aI255
aa(lp671
I199
aI0
aI0
aI0
aI0
aI0
aa(lp672
I72
aI137
aI195
aa(lp673
I72
aI137
aI239
aa(lp674
I232
aI61
aI239
aI255
aI255
aa(lp675
I133
aI192
aa(lp676
I116
aI121
aa(lp677
I139
aI3
aa(lp678
I131
aI248
aI9
aa(lp679
I117
aI50
aa(lp680
I72
aI139
aI45
aI11
aI30
aI32
aI0
aa(lp681
I199
aI3
aI0
aI0
aI0
aI0
aa(lp682
I72
aI137
aI239
aa(lp683
I232
aI29
aI239
aI255
aI255
aa(lp684
I133
aI192
aa(lp685
I15
aI132
aI157
aI0
aI0
aI0
aa(lp686
I131
aI59
aI9
aa(lp687
I117
aI64
aa(lp688
I72
aI131
aI196
aI8
aa(lp689
I91
aa(lp690
I93
aa(lp691
I195
aasg13
(I8704
I9023
tp692
sg14
I0
sg15
g16
ssS'textdomain'
p693
(dp694
g7
g8
sg9
(lp695
sg11
(lp696
sg13
(tsg14
I0
sg15
g16
ssS'_exit'
p697
(dp698
g7
g8
sg9
(lp699
sg11
(lp700
sg13
(tsg14
I0
sg15
g16
ssS'xmalloc'
p701
(dp702
g7
g8
sg9
(lp703
sg11
(lp704
sg13
(tsg14
I1
sg15
g16
ssS'strcmp'
p705
(dp706
g7
g8
sg9
(lp707
sg11
(lp708
sg13
(tsg14
I0
sg15
g16
sssS'function_calls'
p709
(dp710
sS'binary_filename'
p711
S'rename'
p712
sS'structures'
p713
(dp714
sS'extern_functions'
p715
(dp716
sS'arch'
p717
S'amd64'
p718
sS'bin_raw_bytes'
p719
g8
s.