(dp0
S'text_addr'
p1
S'0xdb0'
p2
sS'functions'
p3
(dp4
S'warnx'
p5
(dp6
S'ret_type'
p7
S''
p8
sS'args_type'
p9
(lp10
sS'inst_bytes'
p11
(lp12
sS'boundaries'
p13
(tsS'num_args'
p14
I0
sS'inst_strings'
p15
(lp16
ssS'donice'
p17
(dp18
g7
g8
sg9
(lp19
sg11
(lp20
sg13
(tsg14
I3
sg15
g16
ssS'setlocale'
p21
(dp22
g7
g8
sg9
(lp23
sg11
(lp24
sg13
(tsg14
I0
sg15
g16
ssS'atexit'
p25
(dp26
g7
g8
sg9
(lp27
sg11
(lp28
(lp29
I72
aI139
aI21
aI17
aI24
aI32
aI0
aa(lp30
I49
aI246
aa(lp31
I233
aI114
aI245
aI255
aI255
aasg13
(tsg14
I0
sg15
g16
ssS'fprintf'
p32
(dp33
g7
g8
sg9
(lp34
sg11
(lp35
sg13
(tsg14
I2
sg15
g16
ssS'close_stdout_atexit'
p36
(dp37
g7
g8
sg9
(lp38
sg11
(lp39
sg13
(tsg14
I0
sg15
g16
ssS'printf'
p40
(dp41
g7
g8
sg9
(lp42
sg11
(lp43
sg13
(tsg14
I1
sg15
g16
ssS'close'
p44
(dp45
g7
g8
sg9
(lp46
sg11
(lp47
sg13
(tsg14
I0
sg15
g16
ssS'getprio'
p48
(dp49
g7
g8
sg9
(lp50
sg11
(lp51
(lp52
I65
aI85
aa(lp53
I65
aI84
aa(lp54
I65
aI137
aI244
aa(lp55
I85
aa(lp56
I83
aa(lp57
I72
aI99
aI239
aa(lp58
I73
aI137
aI213
aa(lp59
I72
aI131
aI236
aI8
aa(lp60
I232
aI88
aI246
aI255
aI255
aa(lp61
I68
aI137
aI230
aa(lp62
I199
aI0
aI0
aI0
aI0
aI0
aa(lp63
I137
aI239
aa(lp64
I72
aI137
aI195
aa(lp65
I232
aI85
aI246
aI255
aI255
aa(lp66
I49
aI210
aa(lp67
I131
aI248
aI255
aa(lp68
I65
aI137
aI69
aI0
aa(lp69
I116
aI18
aa(lp70
I72
aI131
aI196
aI8
aa(lp71
I137
aI208
aa(lp72
I91
aa(lp73
I93
aa(lp74
I65
aI92
aa(lp75
I65
aI93
aa(lp76
I195
aasg13
(I5536
I5677
tp77
sg14
I3
sg15
g16
ssS'bindtextdomain'
p78
(dp79
g7
g8
sg9
(lp80
sg11
(lp81
sg13
(tsg14
I0
sg15
g16
ssS'fflush'
p82
(dp83
g7
g8
sg9
(lp84
sg11
(lp85
sg13
(tsg14
I0
sg15
g16
ssS'strtol'
p86
(dp87
g7
g8
sg9
(lp88
sg11
(lp89
sg13
(tsg14
I0
sg15
g16
ssS'dcgettext'
p90
(dp91
g7
g8
sg9
(lp92
sg11
(lp93
sg13
(tsg14
I0
sg15
g16
ssS'fputs'
p94
(dp95
g7
g8
sg9
(lp96
sg11
(lp97
sg13
(tsg14
I0
sg15
g16
ssS'setpriority'
p98
(dp99
g7
g8
sg9
(lp100
sg11
(lp101
sg13
(tsg14
I0
sg15
g16
ssS'exit'
p102
(dp103
g7
g8
sg9
(lp104
sg11
(lp105
sg13
(tsg14
I0
sg15
g16
ssS'usage'
p106
(dp107
g7
g8
sg9
(lp108
sg11
(lp109
sg13
(tsg14
I0
sg15
g16
ssS'main'
p110
(dp111
g7
g8
sg9
(lp112
sg11
(lp113
(lp114
I65
aI87
aa(lp115
I65
aI86
aa(lp116
I65
aI137
aI254
aa(lp117
I65
aI85
aa(lp118
I65
aI84
aa(lp119
I73
aI137
aI245
aa(lp120
I85
aa(lp121
I83
aa(lp122
I72
aI141
aI53
aI97
aI13
aI0
aI0
aa(lp123
I191
aI6
aI0
aI0
aI0
aa(lp124
I65
aI141
aI110
aI255
aa(lp125
I77
aI141
aI101
aI8
aa(lp126
I72
aI131
aI236
aI88
aa(lp127
I100
aI72
aI139
aI4
aI37
aI40
aI0
aa(lp128
I0
aI0
aa(lp129
I72
aI137
aI68
aI36
aI72
aa(lp130
I49
aI192
aa(lp131
I72
aI199
aI68
aI36
aI64
aI0
aI0
aa(lp132
I0
aI0
aa(lp133
I232
aI90
aI255
aI255
aI255
aa(lp134
I72
aI141
aI53
aI143
aI12
aI0
aI0
aa(lp135
I72
aI141
aI61
aI154
aI12
aI0
aI0
aa(lp136
I232
aI103
aI254
aI255
aI255
aa(lp137
I72
aI141
aI61
aI142
aI12
aI0
aI0
aa(lp138
I232
aI75
aI254
aI255
aI255
aa(lp139
I72
aI141
aI61
aI20
aI8
aI0
aI0
aa(lp140
I232
aI207
aI9
aI0
aI0
aa(lp141
I131
aI253
aI1
aa(lp142
I73
aI139
aI93
aI8
aa(lp143
I15
aI132
aI249
aI1
aI0
aI0
aa(lp144
I72
aI133
aI219
aa(lp145
I116
aI31
aa(lp146
I72
aI141
aI53
aI37
aI13
aI0
aI0
aa(lp147
I72
aI137
aI223
aa(lp148
I232
aI190
aI254
aI255
aI255
aa(lp149
I133
aI192
aa(lp150
I15
aI133
aI189
aI1
aI0
aI0
aa(lp151
I65
aI141
aI110
aI254
aa(lp152
I77
aI141
aI101
aI16
aa(lp153
I131
aI253
aI1
aa(lp154
I15
aI142
aI102
aI4
aI0
aI0
aa(lp155
I73
aI139
aI60
aI36
aa(lp156
I72
aI133
aI255
aa(lp157
I15
aI132
aI89
aI4
aI0
aI0
aa(lp158
I72
aI141
aI68
aI36
aI64
aa(lp159
I186
aI10
aI0
aI0
aI0
aa(lp160
I72
aI137
aI198
aa(lp161
I72
aI137
aI68
aI36
aI16
aa(lp162
I232
aI161
aI254
aI255
aI255
aa(lp163
I137
aI68
aI36
aI32
aa(lp164
I72
aI139
aI68
aI36
aI64
aa(lp165
I128
aI56
aI0
aa(lp166
I15
aI133
aI202
aI3
aI0
aI0
aa(lp167
I141
aI69
aI254
aa(lp168
I73
aI141
aI92
aI36
aI8
aa(lp169
I76
aI141
aI45
aI251
aI12
aI0
aI0
aa(lp170
I199
aI68
aI36
aI8
aI0
aI0
aI0
aI0
aa(lp171
I49
aI237
aa(lp172
I77
aI141
aI124
aI196
aI16
aa(lp173
I76
aI141
aI37
aI226
aI12
aI0
aI0
aa(lp174
I102
aI46
aI15
aI31
aI132
aI0
aI0
aa(lp175
I0
aI0
aI0
aa(lp176
I76
aI139
aI51
aa(lp177
I185
aI3
aI0
aI0
aI0
aa(lp178
I76
aI137
aI231
aa(lp179
I76
aI137
aI246
aa(lp180
I243
aI166
aa(lp181
I15
aI151
aI192
aa(lp182
I28
aI0
aa(lp183
I132
aI192
aa(lp184
I15
aI132
aI227
aI0
aI0
aI0
aa(lp185
I185
aI7
aI0
aI0
aI0
aa(lp186
I76
aI137
aI246
aa(lp187
I76
aI137
aI239
aa(lp188
I243
aI166
aa(lp189
I15
aI151
aI192
aa(lp190
I28
aI0
aa(lp191
I132
aI192
aa(lp192
I15
aI132
aI201
aI0
aI0
aI0
aa(lp193
I72
aI141
aI61
aI164
aI12
aI0
aI0
aa(lp194
I185
aI3
aI0
aI0
aI0
aa(lp195
I76
aI137
aI246
aa(lp196
I243
aI166
aa(lp197
I15
aI151
aI192
aa(lp198
I28
aI0
aa(lp199
I132
aI192
aa(lp200
I15
aI132
aI235
aI0
aI0
aI0
aa(lp201
I72
aI141
aI61
aI137
aI12
aI0
aI0
aa(lp202
I185
aI7
aI0
aI0
aI0
aa(lp203
I76
aI137
aI246
aa(lp204
I243
aI166
aa(lp205
I15
aI151
aI192
aa(lp206
I28
aI0
aa(lp207
I132
aI192
aa(lp208
I15
aI132
aI205
aI0
aI0
aI0
aa(lp209
I72
aI141
aI61
aI114
aI12
aI0
aI0
aa(lp210
I185
aI3
aI0
aI0
aI0
aa(lp211
I76
aI137
aI246
aa(lp212
I243
aI166
aa(lp213
I15
aI151
aI192
aa(lp214
I28
aI0
aa(lp215
I132
aI192
aa(lp216
I15
aI132
aI210
aI0
aI0
aI0
aa(lp217
I72
aI141
aI53
aI87
aI12
aI0
aI0
aa(lp218
I76
aI137
aI247
aa(lp219
I232
aI160
aI253
aI255
aI255
aa(lp220
I133
aI192
aa(lp221
I15
aI132
aI187
aI0
aI0
aI0
aa(lp222
I131
aI253
aI2
aa(lp223
I15
aI132
aI59
aI2
aI0
aI0
aa(lp224
I72
aI139
aI116
aI36
aI16
aa(lp225
I76
aI137
aI247
aa(lp226
I186
aI10
aI0
aI0
aI0
aa(lp227
I232
aI157
aI253
aI255
aI255
aa(lp228
I133
aI192
aa(lp229
I65
aI137
aI198
aa(lp230
I15
aI136
aI214
aI1
aI0
aI0
aa(lp231
I72
aI139
aI68
aI36
aI64
aa(lp232
I128
aI56
aI0
aa(lp233
I15
aI133
aI200
aI1
aI0
aI0
aa(lp234
I72
aI141
aI84
aI36
aI56
aa(lp235
I68
aI137
aI246
aa(lp236
I137
aI239
aa(lp237
I232
aI245
aI5
aI0
aI0
aa(lp238
I133
aI192
aa(lp239
I15
aI132
aI27
aI1
aI0
aI0
aa(lp240
I65
aI186
aI1
aI0
aI0
aI0
aa(lp241
I68
aI9
aI84
aI36
aI8
aa(lp242
I235
aI5
aa(lp243
I189
aI1
aI0
aI0
aI0
aa(lp244
I72
aI131
aI195
aI8
aa(lp245
I76
aI57
aI251
aa(lp246
I15
aI133
aI238
aI254
aI255
aI255
aa(lp247
I72
aI139
aI84
aI36
aI72
aa(lp248
I100
aI72
aI51
aI20
aI37
aI40
aI0
aa(lp249
I0
aI0
aa(lp250
I139
aI68
aI36
aI8
aa(lp251
I15
aI133
aI210
aI2
aI0
aI0
aa(lp252
I72
aI131
aI196
aI88
aa(lp253
I91
aa(lp254
I93
aa(lp255
I65
aI92
aa(lp256
I65
aI93
aa(lp257
I65
aI94
aa(lp258
I65
aI95
aa(lp259
I195
aasg13
(I3504
I5250
tp260
sg14
I2
sg15
g16
ssS'ferror'
p261
(dp262
g7
g8
sg9
(lp263
sg11
(lp264
sg13
(tsg14
I0
sg15
g16
ssS'flush_standard_stream'
p265
(dp266
g7
g8
sg9
(lp267
sg11
(lp268
sg13
(tsg14
I1
sg15
g16
ssS'__printf_chk'
p269
(dp270
g7
g8
sg9
(lp271
sg11
(lp272
sg13
(tsg14
I0
sg15
g16
ssS'warn'
p273
(dp274
g7
g8
sg9
(lp275
sg11
(lp276
sg13
(tsg14
I0
sg15
g16
ssS'dup'
p277
(dp278
g7
g8
sg9
(lp279
sg11
(lp280
sg13
(tsg14
I0
sg15
g16
ssS'getpwnam'
p281
(dp282
g7
g8
sg9
(lp283
sg11
(lp284
sg13
(tsg14
I0
sg15
g16
ssS'fileno'
p285
(dp286
g7
g8
sg9
(lp287
sg11
(lp288
sg13
(tsg14
I0
sg15
g16
ssS'__fprintf_chk'
p289
(dp290
g7
g8
sg9
(lp291
sg11
(lp292
sg13
(tsg14
I0
sg15
g16
ssS'getpriority'
p293
(dp294
g7
g8
sg9
(lp295
sg11
(lp296
sg13
(tsg14
I0
sg15
g16
ssS'__errno_location'
p297
(dp298
g7
g8
sg9
(lp299
sg11
(lp300
sg13
(tsg14
I0
sg15
g16
ssS'__stack_chk_fail'
p301
(dp302
g7
g8
sg9
(lp303
sg11
(lp304
sg13
(tsg14
I0
sg15
g16
ssS'__builtin_fputc'
p305
(dp306
g7
g8
sg9
(lp307
sg11
(lp308
sg13
(tsg14
I0
sg15
g16
ssS'close_stdout'
p309
(dp310
g7
g8
sg9
(lp311
sg11
(lp312
(lp313
I85
aa(lp314
I83
aa(lp315
I72
aI131
aI236
aI8
aa(lp316
I72
aI139
aI45
aI235
aI25
aI32
aI0
aa(lp317
I232
aI206
aI245
aI255
aI255
aa(lp318
I199
aI0
aI0
aI0
aI0
aI0
aa(lp319
I72
aI137
aI195
aa(lp320
I72
aI137
aI239
aa(lp321
I232
aI253
aI245
aI255
aI255
aa(lp322
I133
aI192
aa(lp323
I116
aI121
aa(lp324
I139
aI3
aa(lp325
I131
aI248
aI9
aa(lp326
I117
aI50
aa(lp327
I72
aI139
aI45
aI219
aI25
aI32
aI0
aa(lp328
I199
aI3
aI0
aI0
aI0
aI0
aa(lp329
I72
aI137
aI239
aa(lp330
I232
aI221
aI245
aI255
aI255
aa(lp331
I133
aI192
aa(lp332
I15
aI132
aI157
aI0
aI0
aI0
aa(lp333
I131
aI59
aI9
aa(lp334
I117
aI64
aa(lp335
I72
aI131
aI196
aI8
aa(lp336
I91
aa(lp337
I93
aa(lp338
I195
aasg13
(I5680
I5999
tp339
sg14
I0
sg15
g16
ssS'textdomain'
p340
(dp341
g7
g8
sg9
(lp342
sg11
(lp343
sg13
(tsg14
I0
sg15
g16
ssS'_exit'
p344
(dp345
g7
g8
sg9
(lp346
sg11
(lp347
sg13
(tsg14
I0
sg15
g16
ssS'strcmp'
p348
(dp349
g7
g8
sg9
(lp350
sg11
(lp351
sg13
(tsg14
I0
sg15
g16
sssS'function_calls'
p352
(dp353
sS'binary_filename'
p354
S'renice'
p355
sS'structures'
p356
(dp357
sS'extern_functions'
p358
(dp359
sS'arch'
p360
S'amd64'
p361
sS'bin_raw_bytes'
p362
g8
s.