(dp0
S'text_addr'
p1
S'0xf90'
p2
sS'functions'
p3
(dp4
S'sig_handler'
p5
(dp6
S'ret_type'
p7
S''
p8
sS'args_type'
p9
(lp10
sS'inst_bytes'
p11
(lp12
(lp13
I72
aI131
aI236
aI8
aa(lp14
I49
aI255
aa(lp15
I232
aI53
aI248
aI255
aI255
aa(lp16
I15
aI31
aI68
aI0
aI0
aasS'boundaries'
p17
(I5488
I5499
tp18
sS'num_args'
p19
I1
sS'inst_strings'
p20
(lp21
ssS'malloc'
p22
(dp23
g7
g8
sg9
(lp24
sg11
(lp25
sg17
(tsg19
I0
sg20
g21
ssS'setlocale'
p26
(dp27
g7
g8
sg9
(lp28
sg11
(lp29
sg17
(tsg19
I0
sg20
g21
ssS'realloc'
p30
(dp31
g7
g8
sg9
(lp32
sg11
(lp33
sg17
(tsg19
I0
sg20
g21
ssS'fclose'
p34
(dp35
g7
g8
sg9
(lp36
sg11
(lp37
sg17
(tsg19
I0
sg20
g21
ssS'reverse_str'
p38
(dp39
g7
g8
sg9
(lp40
sg11
(lp41
sg17
(tsg19
I2
sg20
g21
ssS'xrealloc'
p42
(dp43
g7
g8
sg9
(lp44
sg11
(lp45
sg17
(tsg19
I2
sg20
g21
ssS'__fprintf_chk'
p46
(dp47
g7
g8
sg9
(lp48
sg11
(lp49
sg17
(tsg19
I0
sg20
g21
ssS'fprintf'
p50
(dp51
g7
g8
sg9
(lp52
sg11
(lp53
sg17
(tsg19
I2
sg20
g21
ssS'close_stdout_atexit'
p54
(dp55
g7
g8
sg9
(lp56
sg11
(lp57
sg17
(tsg19
I0
sg20
g21
ssS'printf'
p58
(dp59
g7
g8
sg9
(lp60
sg11
(lp61
sg17
(tsg19
I1
sg20
g21
ssS'close'
p62
(dp63
g7
g8
sg9
(lp64
sg11
(lp65
sg17
(tsg19
I0
sg20
g21
ssS'bindtextdomain'
p66
(dp67
g7
g8
sg9
(lp68
sg11
(lp69
sg17
(tsg19
I0
sg20
g21
ssS'fopen'
p70
(dp71
g7
g8
sg9
(lp72
sg11
(lp73
sg17
(tsg19
I0
sg20
g21
ssS'feof'
p74
(dp75
g7
g8
sg9
(lp76
sg11
(lp77
sg17
(tsg19
I0
sg20
g21
ssS'fflush'
p78
(dp79
g7
g8
sg9
(lp80
sg11
(lp81
sg17
(tsg19
I0
sg20
g21
ssS'dcgettext'
p82
(dp83
g7
g8
sg9
(lp84
sg11
(lp85
sg17
(tsg19
I0
sg20
g21
ssS'warnx'
p86
(dp87
g7
g8
sg9
(lp88
sg11
(lp89
sg17
(tsg19
I0
sg20
g21
ssS'wcslen'
p90
(dp91
g7
g8
sg9
(lp92
sg11
(lp93
sg17
(tsg19
I0
sg20
g21
ssS'fputs'
p94
(dp95
g7
g8
sg9
(lp96
sg11
(lp97
sg17
(tsg19
I0
sg20
g21
ssS'exit'
p98
(dp99
g7
g8
sg9
(lp100
sg11
(lp101
sg17
(tsg19
I0
sg20
g21
ssS'usage'
p102
(dp103
g7
g8
sg9
(lp104
sg11
(lp105
sg17
(tsg19
I0
sg20
g21
ssS'main'
p106
(dp107
g7
g8
sg9
(lp108
sg11
(lp109
(lp110
I65
aI87
aa(lp111
I65
aI86
aa(lp112
I65
aI85
aa(lp113
I65
aI84
aa(lp114
I85
aa(lp115
I83
aa(lp116
I72
aI137
aI243
aa(lp117
I72
aI141
aI53
aI53
aI8
aI0
aI0
aa(lp118
I137
aI253
aa(lp119
I191
aI6
aI0
aI0
aI0
aa(lp120
I72
aI131
aI236
aI56
aa(lp121
I76
aI139
aI53
aI122
aI16
aI32
aI0
aa(lp122
I232
aI101
aI255
aI255
aI255
aa(lp123
I72
aI141
aI53
aI180
aI7
aI0
aI0
aa(lp124
I72
aI141
aI61
aI191
aI7
aI0
aI0
aa(lp125
I232
aI66
aI254
aI255
aI255
aa(lp126
I72
aI141
aI61
aI179
aI7
aI0
aI0
aa(lp127
I232
aI22
aI254
aI255
aI255
aa(lp128
I72
aI141
aI61
aI159
aI5
aI0
aI0
aa(lp129
I232
aI90
aI7
aI0
aI0
aa(lp130
I72
aI141
aI53
aI131
aI5
aI0
aI0
aa(lp131
I191
aI2
aI0
aI0
aI0
aa(lp132
I232
aI169
aI254
aI255
aI255
aa(lp133
I72
aI141
aI53
aI114
aI5
aI0
aI0
aa(lp134
I191
aI15
aI0
aI0
aI0
aa(lp135
I232
aI152
aI254
aI255
aI255
aa(lp136
I72
aI141
aI13
aI81
aI12
aI32
aI0
aa(lp137
I72
aI141
aI21
aI125
aI7
aI0
aI0
aa(lp138
I69
aI49
aI192
aa(lp139
I72
aI137
aI222
aa(lp140
I137
aI239
aa(lp141
I232
aI13
aI254
aI255
aI255
aa(lp142
I131
aI248
aI255
aa(lp143
I116
aI67
aa(lp144
I131
aI248
aI86
aa(lp145
I72
aI139
aI29
aI238
aI15
aI32
aI0
aa(lp146
I15
aI133
aI217
aI2
aI0
aI0
aa(lp147
I72
aI141
aI53
aI87
aI7
aI0
aI0
aa(lp148
I186
aI5
aI0
aI0
aI0
aa(lp149
I49
aI255
aa(lp150
I232
aI213
aI253
aI255
aI255
aa(lp151
I72
aI141
aI13
aI80
aI7
aI0
aI0
aa(lp152
I72
aI137
aI198
aa(lp153
I191
aI1
aI0
aI0
aI0
aa(lp154
I72
aI137
aI218
aa(lp155
I49
aI192
aa(lp156
I232
aI204
aI254
aI255
aI255
aa(lp157
I49
aI255
aa(lp158
I232
aI245
aI254
aI255
aI255
aa(lp159
I72
aI99
aI5
aI198
aI15
aI32
aI0
aa(lp160
I191
aI0
aI128
aI0
aI0
aa(lp161
I76
aI141
aI36
aI195
aa(lp162
I232
aI112
aI254
aI255
aI255
aa(lp163
I72
aI133
aI192
aa(lp164
I72
aI137
aI195
aa(lp165
I15
aI132
aI134
aI3
aI0
aI0
aa(lp166
I73
aI139
aI60
aI36
aa(lp167
I72
aI141
aI5
aI217
aI6
aI0
aI0
aa(lp168
I199
aI68
aI36
aI44
aI0
aI0
aI0
aI0
aa(lp169
I189
aI0
aI32
aI0
aI0
aa(lp170
I76
aI137
aI100
aI36
aI24
aa(lp171
I72
aI137
aI68
aI36
aI32
aa(lp172
I72
aI133
aI255
aa(lp173
I15
aI133
aI123
aI1
aI0
aI0
aa(lp174
I102
aI15
aI31
aI132
aI0
aI0
aI0
aa(lp175
I0
aI0
aa(lp176
I65
aI137
aI236
aa(lp177
I76
aI137
aI242
aa(lp178
I68
aI137
aI230
aa(lp179
I72
aI137
aI223
aa(lp180
I232
aI239
aI252
aI255
aI255
aa(lp181
I72
aI133
aI192
aa(lp182
I15
aI132
aI38
aI1
aI0
aI0
aa(lp183
I72
aI137
aI223
aa(lp184
I232
aI110
aI253
aI255
aI255
aa(lp185
I72
aI133
aI192
aa(lp186
I73
aI137
aI197
aa(lp187
I116
aI217
aa(lp188
I76
aI141
aI36
aI133
aI0
aI0
aI0
aI0
aa(lp189
I66
aI131
aI124
aI35
aI252
aI10
aa(lp190
I73
aI141
aI68
aI36
aI252
aa(lp191
I72
aI137
aI68
aI36
aI16
aa(lp192
I15
aI133
aI134
aI0
aI0
aI0
aa(lp193
I233
aI81
aI1
aI0
aI0
aa(lp194
I15
aI31
aI0
aa(lp195
I76
aI141
aI60
aI237
aI0
aI0
aI0
aI0
aa(lp196
I72
aI141
aI68
aI45
aI0
aa(lp197
I72
aI137
aI223
aa(lp198
I76
aI137
aI254
aa(lp199
I72
aI137
aI68
aI36
aI8
aa(lp200
I232
aI227
aI253
aI255
aI255
aa(lp201
I72
aI133
aI192
aa(lp202
I72
aI137
aI195
aa(lp203
I117
aI9
aa(lp204
I77
aI133
aI255
aa(lp205
I15
aI133
aI189
aI1
aI0
aI0
aa(lp206
I72
aI190
aI255
aI255
aI255
aI255
aI255
aa(lp207
I255
aI255
aI127
aa(lp208
I74
aI141
aI60
aI35
aa(lp209
I76
aI137
aI242
aa(lp210
I72
aI33
aI238
aa(lp211
I232
aI105
aI252
aI255
aI255
aa(lp212
I72
aI133
aI192
aa(lp213
I15
aI132
aI32
aI1
aI0
aI0
aa(lp214
I72
aI137
aI223
aa(lp215
I232
aI232
aI252
aI255
aI255
aa(lp216
I76
aI141
aI36
aI133
aI0
aI0
aI0
aI0
aa(lp217
I73
aI137
aI197
aa(lp218
I66
aI131
aI124
aI35
aI252
aI10
aa(lp219
I73
aI141
aI68
aI36
aI252
aa(lp220
I72
aI137
aI68
aI36
aI16
aa(lp221
I15
aI132
aI223
aI0
aI0
aI0
aa(lp222
I72
aI139
aI108
aI36
aI8
aa(lp223
I76
aI137
aI247
aa(lp224
I232
aI26
aI253
aI255
aI255
aa(lp225
I133
aI192
aa(lp226
I15
aI132
aI114
aI255
aI255
aI255
aa(lp227
I72
aI139
aI68
aI36
aI16
aa(lp228
I131
aI60
aI3
aI10
aa(lp229
I15
aI132
aI177
aI0
aI0
aI0
aa(lp230
I76
aI137
aI233
aa(lp231
I72
aI209
aI233
aa(lp232
I116
aI50
aa(lp233
I73
aI193
aI229
aI2
aa(lp234
I72
aI193
aI225
aI2
aa(lp235
I72
aI137
aI218
aa(lp236
I74
aI141
aI68
aI43
aI252
aa(lp237
I72
aI137
aI199
aa(lp238
I72
aI41
aI207
aa(lp239
I15
aI31
aI68
aI0
aI0
aa(lp240
I139
aI10
aa(lp241
I139
aI48
aa(lp242
I72
aI131
aI232
aI4
aa(lp243
I72
aI131
aI194
aI4
aa(lp244
I137
aI114
aI252
aa(lp245
I137
aI72
aI4
aa(lp246
I72
aI57
aI248
aa(lp247
I117
aI233
aa(lp248
I72
aI139
aI53
aI58
aI14
aI32
aI0
aa(lp249
I72
aI137
aI223
aa(lp250
I232
aI218
aI252
aI255
aI255
aa(lp251
I233
aI197
aI254
aI255
aI255
aa(lp252
I15
aI31
aI68
aI0
aI0
aa(lp253
I76
aI137
aI247
aa(lp254
I232
aI216
aI251
aI255
aI255
aa(lp255
I133
aI192
aa(lp256
I117
aI126
aa(lp257
I76
aI57
aI53
aI29
aI14
aI32
aI0
aa(lp258
I76
aI139
aI124
aI36
aI24
aa(lp259
I77
aI137
aI252
aa(lp260
I116
aI8
aa(lp261
I76
aI137
aI247
aa(lp262
I232
aI219
aI251
aI255
aI255
aa(lp263
I72
aI139
aI68
aI36
aI24
aa(lp264
I72
aI139
aI56
aa(lp265
I72
aI133
aI255
aa(lp266
I116
aI120
aa(lp267
I72
aI141
aI53
aI53
aI5
aI0
aI0
aa(lp268
I232
aI2
aI253
aI255
aI255
aa(lp269
I73
aI137
aI198
aa(lp270
I73
aI141
aI68
aI36
aI8
aa(lp271
I77
aI133
aI246
aa(lp272
I72
aI137
aI68
aI36
aI24
aa(lp273
I116
aI117
aa(lp274
I73
aI139
aI4
aI36
aa(lp275
I72
aI137
aI68
aI36
aI32
aa(lp276
I233
aI98
aI254
aI255
aI255
aa(lp277
I72
aI137
aI108
aI36
aI8
aa(lp278
I15
aI31
aI68
aI0
aI0
aa(lp279
I73
aI131
aI237
aI1
aa(lp280
I66
aI199
aI4
aI35
aI0
aI0
aI0
aI0
aa(lp281
I72
aI139
aI108
aI36
aI8
aa(lp282
I233
aI47
aI255
aI255
aI255
aa(lp283
I102
aI144
aa(lp284
I72
aI139
aI108
aI36
aI8
aa(lp285
I233
aI20
aI255
aI255
aI255
aa(lp286
I72
aI139
aI116
aI36
aI32
aa(lp287
I72
aI141
aI61
aI229
aI5
aI0
aI0
aa(lp288
I49
aI192
aa(lp289
I232
aI51
aI251
aI255
aI255
aa(lp290
I199
aI68
aI36
aI44
aI1
aI0
aI0
aI0
aa(lp291
I233
aI98
aI255
aI255
aI255
aa(lp292
I72
aI137
aI223
aa(lp293
I232
aI222
aI250
aI255
aI255
aa(lp294
I139
aI68
aI36
aI44
aa(lp295
I72
aI131
aI196
aI56
aa(lp296
I91
aa(lp297
I93
aa(lp298
I65
aI92
aa(lp299
I65
aI93
aa(lp300
I65
aI94
aa(lp301
I65
aI95
aa(lp302
I195
aasg17
(I3984
I5216
tp303
sg19
I2
sg20
g21
ssS'ferror'
p304
(dp305
g7
g8
sg9
(lp306
sg11
(lp307
sg17
(tsg19
I0
sg20
g21
ssS'flush_standard_stream'
p308
(dp309
g7
g8
sg9
(lp310
sg11
(lp311
sg17
(tsg19
I1
sg20
g21
ssS'__printf_chk'
p312
(dp313
g7
g8
sg9
(lp314
sg11
(lp315
sg17
(tsg19
I0
sg20
g21
ssS'free'
p316
(dp317
g7
g8
sg9
(lp318
sg11
(lp319
sg17
(tsg19
I0
sg20
g21
ssS'warn'
p320
(dp321
g7
g8
sg9
(lp322
sg11
(lp323
sg17
(tsg19
I0
sg20
g21
ssS'dup'
p324
(dp325
g7
g8
sg9
(lp326
sg11
(lp327
sg17
(tsg19
I0
sg20
g21
ssS'getopt_long'
p328
(dp329
g7
g8
sg9
(lp330
sg11
(lp331
sg17
(tsg19
I0
sg20
g21
ssS'fileno'
p332
(dp333
g7
g8
sg9
(lp334
sg11
(lp335
sg17
(tsg19
I0
sg20
g21
ssS'fputws'
p336
(dp337
g7
g8
sg9
(lp338
sg11
(lp339
sg17
(tsg19
I0
sg20
g21
ssS'err'
p340
(dp341
g7
g8
sg9
(lp342
sg11
(lp343
sg17
(tsg19
I0
sg20
g21
ssS'atexit'
p344
(dp345
g7
g8
sg9
(lp346
sg11
(lp347
(lp348
I72
aI139
aI21
aI193
aI8
aI32
aI0
aa(lp349
I49
aI246
aa(lp350
I233
aI2
aI248
aI255
aI255
aasg17
(tsg19
I0
sg20
g21
ssS'__fgetws_alias'
p351
(dp352
g7
g8
sg9
(lp353
sg11
(lp354
sg17
(tsg19
I0
sg20
g21
ssS'signal'
p355
(dp356
g7
g8
sg9
(lp357
sg11
(lp358
sg17
(tsg19
I0
sg20
g21
ssS'__errno_location'
p359
(dp360
g7
g8
sg9
(lp361
sg11
(lp362
sg17
(tsg19
I0
sg20
g21
ssS'__builtin_fputc'
p363
(dp364
g7
g8
sg9
(lp365
sg11
(lp366
sg17
(tsg19
I0
sg20
g21
ssS'close_stdout'
p367
(dp368
g7
g8
sg9
(lp369
sg11
(lp370
(lp371
I85
aa(lp372
I83
aa(lp373
I72
aI131
aI236
aI8
aa(lp374
I72
aI139
aI45
aI155
aI10
aI32
aI0
aa(lp375
I232
aI14
aI248
aI255
aI255
aa(lp376
I199
aI0
aI0
aI0
aI0
aI0
aa(lp377
I72
aI137
aI195
aa(lp378
I72
aI137
aI239
aa(lp379
I232
aI61
aI248
aI255
aI255
aa(lp380
I133
aI192
aa(lp381
I116
aI121
aa(lp382
I139
aI3
aa(lp383
I131
aI248
aI9
aa(lp384
I117
aI50
aa(lp385
I72
aI139
aI45
aI139
aI10
aI32
aI0
aa(lp386
I199
aI3
aI0
aI0
aI0
aI0
aa(lp387
I72
aI137
aI239
aa(lp388
I232
aI29
aI248
aI255
aI255
aa(lp389
I133
aI192
aa(lp390
I15
aI132
aI157
aI0
aI0
aI0
aa(lp391
I131
aI59
aI9
aa(lp392
I117
aI64
aa(lp393
I72
aI131
aI196
aI8
aa(lp394
I91
aa(lp395
I93
aa(lp396
I195
aasg17
(I5504
I5823
tp397
sg19
I0
sg20
g21
ssS'textdomain'
p398
(dp399
g7
g8
sg9
(lp400
sg11
(lp401
sg17
(tsg19
I0
sg20
g21
ssS'_exit'
p402
(dp403
g7
g8
sg9
(lp404
sg11
(lp405
sg17
(tsg19
I0
sg20
g21
ssS'xmalloc'
p406
(dp407
g7
g8
sg9
(lp408
sg11
(lp409
sg17
(tsg19
I1
sg20
g21
ssS'fgetws'
p410
(dp411
g7
g8
sg9
(lp412
sg11
(lp413
sg17
(tsg19
I3
sg20
g21
sssS'function_calls'
p414
(dp415
sS'binary_filename'
p416
S'rev'
p417
sS'structures'
p418
(dp419
sS'extern_functions'
p420
(dp421
sS'arch'
p422
S'amd64'
p423
sS'bin_raw_bytes'
p424
g8
s.