(dp0
S'text_addr'
p1
S'0x1b70'
p2
sS'functions'
p3
(dp4
S'err_exclusive_options'
p5
(dp6
S'ret_type'
p7
S''
p8
sS'args_type'
p9
(lp10
sS'inst_bytes'
p11
(lp12
sS'boundaries'
p13
(tsS'num_args'
p14
I4
sS'inst_strings'
p15
(lp16
ssS'fseek'
p17
(dp18
g7
g8
sg9
(lp19
sg11
(lp20
sg13
(tsg14
I0
sg15
g16
ssS'replay_set_crmode'
p21
(dp22
g7
g8
sg9
(lp23
sg11
(lp24
(lp25
I72
aI133
aI255
aa(lp26
I116
aI9
aa(lp27
I137
aI183
aI140
aI0
aI0
aI0
aa(lp28
I49
aI192
aa(lp29
I195
aasg13
(I13120
I13169
tp30
sg14
I2
sg15
g16
ssS'fclose'
p31
(dp32
g7
g8
sg9
(lp33
sg11
(lp34
sg13
(tsg14
I0
sg15
g16
ssS'replay_get_next_step'
p35
(dp36
g7
g8
sg9
(lp37
sg11
(lp38
(lp39
I65
aI87
aa(lp40
I65
aI86
aa(lp41
I65
aI85
aa(lp42
I65
aI84
aa(lp43
I85
aa(lp44
I83
aa(lp45
I72
aI131
aI236
aI56
aa(lp46
I72
aI133
aI255
aa(lp47
I72
aI137
aI116
aI36
aI24
aa(lp48
I72
aI137
aI84
aI36
aI32
aa(lp49
I15
aI132
aI121
aI7
aI0
aI0
aa(lp50
I73
aI137
aI255
aa(lp51
I72
aI139
aI127
aI72
aa(lp52
I72
aI133
aI255
aa(lp53
I15
aI132
aI74
aI7
aI0
aI0
aa(lp54
I72
aI131
aI124
aI36
aI32
aI0
aa(lp55
I15
aI132
aI124
aI7
aI0
aI0
aa(lp56
I73
aI141
aI71
aI16
aa(lp57
I69
aI49
aI228
aa(lp58
I72
aI199
aI68
aI36
aI8
aI0
aI0
aa(lp59
I0
aI0
aa(lp60
I77
aI137
aI254
aa(lp61
I72
aI137
aI68
aI36
aI40
aa(lp62
I72
aI139
aI68
aI36
aI32
aa(lp63
I72
aI199
aI0
aI0
aI0
aI0
aI0
aa(lp64
I232
aI218
aI224
aI255
aI255
aa(lp65
I133
aI192
aa(lp66
I15
aI133
aI112
aI6
aI0
aI0
aa(lp67
I246
aI5
aI55
aI87
aI32
aI0
aI4
aa(lp68
I15
aI133
aI45
aI3
aI0
aI0
aa(lp69
I65
aI139
aI70
aI88
aa(lp70
I65
aI131
aI70
aI92
aI1
aa(lp71
I73
aI199
aI70
aI24
aI0
aI0
aI0
aI0
aa(lp72
I73
aI199
aI70
aI64
aI0
aI0
aI0
aI0
aa(lp73
I65
aI198
aI70
aI16
aI0
aa(lp74
I73
aI199
aI70
aI56
aI0
aI0
aI0
aI0
aa(lp75
I133
aI192
aa(lp76
I73
aI199
aI70
aI48
aI0
aI0
aI0
aI0
aa(lp77
I15
aI132
aI167
aI2
aI0
aI0
aa(lp78
I131
aI248
aI1
aa(lp79
I15
aI133
aI118
aI1
aI0
aI0
aa(lp80
I72
aI139
aI92
aI36
aI40
aa(lp81
I73
aI139
aI126
aI72
aa(lp82
I72
aI141
aI53
aI128
aI50
aI0
aI0
aa(lp83
I49
aI192
aa(lp84
I72
aI137
aI218
aa(lp85
I232
aI204
aI223
aI255
aI255
aa(lp86
I131
aI248
aI1
aa(lp87
I15
aI133
aI145
aI6
aI0
aI0
aa(lp88
I65
aI15
aI190
aI86
aI16
aa(lp89
I73
aI139
aI118
aI72
aa(lp90
I72
aI137
aI223
aa(lp91
I232
aI66
aI244
aI255
aI255
aa(lp92
I133
aI192
aa(lp93
I15
aI133
aI128
aI2
aI0
aI0
aa(lp94
I139
aI5
aI176
aI86
aI32
aI0
aa(lp95
I168
aI4
aa(lp96
I137
aI68
aI36
aI20
aa(lp97
I15
aI133
aI232
aI2
aI0
aI0
aa(lp98
I73
aI139
aI94
aI8
aa(lp99
I65
aI15
aI190
aI110
aI16
aa(lp100
I72
aI133
aI219
aa(lp101
I15
aI132
aI222
aI0
aI0
aI0
aa(lp102
I77
aI139
aI62
aa(lp103
I73
aI139
aI63
aa(lp104
I72
aI133
aI255
aa(lp105
I116
aI48
aa(lp106
I69
aI49
aI237
aa(lp107
I235
aI31
aa(lp108
I102
aI15
aI31
aI68
aI0
aI0
aa(lp109
I73
aI131
aI197
aI1
aa(lp110
I73
aI57
aI221
aa(lp111
I15
aI132
aI19
aI3
aI0
aI0
aa(lp112
I73
aI131
aI199
aI32
aa(lp113
I73
aI139
aI63
aa(lp114
I72
aI133
aI255
aa(lp115
I116
aI12
aa(lp116
I137
aI238
aa(lp117
I232
aI208
aI222
aI255
aI255
aa(lp118
I72
aI133
aI192
aa(lp119
I116
aI219
aa(lp120
I72
aI131
aI124
aI36
aI24
aI0
aa(lp121
I15
aI132
aI148
aI5
aI0
aI0
aa(lp122
I72
aI139
aI124
aI36
aI24
aa(lp123
I137
aI238
aa(lp124
I232
aI179
aI222
aI255
aI255
aa(lp125
I72
aI133
aI192
aa(lp126
I15
aI133
aI127
aI5
aI0
aI0
aa(lp127
I65
aI246
aI71
aI24
aI1
aa(lp128
I117
aI42
aa(lp129
I246
aI68
aI36
aI20
aI8
aa(lp130
I73
aI139
aI94
aI24
aa(lp131
I15
aI133
aI116
aI4
aI0
aI0
aa(lp132
I73
aI139
aI127
aI16
aa(lp133
I186
aI1
aI0
aI0
aI0
aa(lp134
I72
aI137
aI222
aa(lp135
I232
aI83
aI224
aI255
aI255
aa(lp136
I139
aI5
aI9
aI86
aI32
aI0
aa(lp137
I137
aI68
aI36
aI20
aa(lp138
I246
aI68
aI36
aI20
aI4
aa(lp139
I116
aI74
aa(lp140
I232
aI189
aI221
aI255
aI255
aa(lp141
I72
aI139
aI61
aI230
aI85
aI32
aI0
aa(lp142
I72
aI141
aI21
aI240
aI42
aI0
aI0
aa(lp143
I76
aI141
aI13
aI213
aI42
aI0
aI0
aa(lp144
I76
aI141
aI5
aI213
aI42
aI0
aI0
aa(lp145
I137
aI193
aa(lp146
I190
aI1
aI0
aI0
aI0
aa(lp147
I49
aI192
aa(lp148
I232
aI179
aI224
aI255
aI255
aa(lp149
I65
aI15
aI190
aI118
aI16
aa(lp150
I73
aI139
aI78
aI56
aa(lp151
I72
aI141
aI61
aI67
aI51
aI0
aI0
aa(lp152
I73
aI139
aI86
aI48
aa(lp153
I49
aI192
aa(lp154
I232
aI88
aI242
aI255
aI255
aa(lp155
I77
aI3
aI102
aI56
aa(lp156
I73
aI139
aI78
aI48
aa(lp157
I72
aI1
aI76
aI36
aI8
aa(lp158
I72
aI139
aI68
aI36
aI8
aa(lp159
I73
aI129
aI252
aI63
aI66
aI15
aI0
aa(lp160
I126
aI16
aa(lp161
I72
aI131
aI192
aI1
aa(lp162
I73
aI129
aI236
aI64
aI66
aI15
aI0
aa(lp163
I72
aI137
aI68
aI36
aI8
aa(lp164
I73
aI139
aI126
aI72
aa(lp165
I233
aI53
aI254
aI255
aI255
aa(lp166
I15
aI31
aI64
aI0
aa(lp167
I77
aI137
aI247
aa(lp168
I187
aI1
aI0
aI0
aI0
aa(lp169
I139
aI5
aI110
aI85
aI32
aI0
aa(lp170
I137
aI68
aI36
aI20
aa(lp171
I72
aI139
aI84
aI36
aI8
aa(lp172
I72
aI137
aI208
aa(lp173
I76
aI9
aI224
aa(lp174
I116
aI31
aa(lp175
I73
aI139
aI71
aI56
aa(lp176
I73
aI3
aI87
aI48
aa(lp177
I76
aI1
aI224
aa(lp178
I72
aI61
aI63
aI66
aI15
aI0
aa(lp179
I15
aI143
aI146
aI2
aI0
aI0
aa(lp180
I73
aI137
aI87
aI48
aa(lp181
I73
aI137
aI71
aI56
aa(lp182
I246
aI68
aI36
aI20
aI4
aa(lp183
I15
aI133
aI183
aI2
aI0
aI0
aa(lp184
I242
aI65
aI15
aI16
aI135
aI128
aI0
aa(lp185
I0
aI0
aa(lp186
I102
aI15
aI46
aI5
aI62
aI53
aI0
aI0
aa(lp187
I122
aI2
aa(lp188
I116
aI46
aa(lp189
I102
aI15
aI239
aI201
aa(lp190
I242
aI73
aI15
aI42
aI79
aI48
aa(lp191
I242
aI15
aI94
aI200
aa(lp192
I242
aI72
aI15
aI44
aI193
aa(lp193
I102
aI15
aI239
aI201
aa(lp194
I242
aI73
aI15
aI42
aI79
aI56
aa(lp195
I242
aI15
aI94
aI200
aa(lp196
I73
aI137
aI71
aI48
aa(lp197
I242
aI72
aI15
aI44
aI193
aa(lp198
I73
aI137
aI71
aI56
aa(lp199
I73
aI139
aI71
aI96
aa(lp200
I72
aI133
aI192
aa(lp201
I15
aI132
aI247
aI1
aI0
aI0
aa(lp202
I73
aI139
aI87
aI48
aa(lp203
I72
aI57
aI208
aa(lp204
I15
aI156
aI193
aa(lp205
I72
aI57
aI208
aa(lp206
I15
aI132
aI52
aI2
aI0
aI0
aa(lp207
I132
aI201
aa(lp208
I116
aI25
aa(lp209
I246
aI5
aI197
aI84
aI32
aI0
aI4
aa(lp210
I15
aI133
aI171
aI3
aI0
aI0
aa(lp211
I73
aI137
aI71
aI48
aa(lp212
I73
aI139
aI71
aI104
aa(lp213
I73
aI137
aI71
aI56
aa(lp214
I73
aI139
aI71
aI112
aa(lp215
I72
aI133
aI192
aa(lp216
I15
aI132
aI170
aI1
aI0
aI0
aa(lp217
I73
aI139
aI87
aI48
aa(lp218
I72
aI57
aI208
aa(lp219
I15
aI159
aI193
aa(lp220
I72
aI57
aI208
aa(lp221
I117
aI11
aa(lp222
I73
aI139
aI71
aI120
aa(lp223
I73
aI57
aI71
aI56
aa(lp224
I15
aI156
aI193
aa(lp225
I132
aI201
aa(lp226
I116
aI29
aa(lp227
I246
aI5
aI129
aI84
aI32
aI0
aI4
aa(lp228
I15
aI133
aI31
aI3
aI0
aI0
aa(lp229
I73
aI199
aI71
aI56
aI0
aI0
aI0
aI0
aa(lp230
I73
aI199
aI71
aI48
aI0
aI0
aI0
aI0
aa(lp231
I72
aI131
aI196
aI56
aa(lp232
I137
aI216
aa(lp233
I91
aa(lp234
I93
aa(lp235
I65
aI92
aa(lp236
I65
aI93
aa(lp237
I65
aI94
aa(lp238
I65
aI95
aa(lp239
I195
aasg13
(I14496
I16504
tp240
sg14
I3
sg15
g16
ssS'xrealloc'
p241
(dp242
g7
g8
sg9
(lp243
sg11
(lp244
sg13
(tsg14
I2
sg15
g16
ssS'close_stdout_atexit'
p245
(dp246
g7
g8
sg9
(lp247
sg11
(lp248
sg13
(tsg14
I0
sg15
g16
ssS'strtoul'
p249
(dp250
g7
g8
sg9
(lp251
sg11
(lp252
sg13
(tsg14
I0
sg15
g16
ssS'strtod_or_err'
p253
(dp254
g7
g8
sg9
(lp255
sg11
(lp256
(lp257
I85
aa(lp258
I83
aa(lp259
I72
aI137
aI251
aa(lp260
I72
aI137
aI245
aa(lp261
I72
aI131
aI236
aI40
aa(lp262
I100
aI72
aI139
aI4
aI37
aI40
aI0
aa(lp263
I0
aI0
aa(lp264
I72
aI137
aI68
aI36
aI24
aa(lp265
I49
aI192
aa(lp266
I72
aI199
aI68
aI36
aI16
aI0
aI0
aa(lp267
I0
aI0
aa(lp268
I232
aI102
aI198
aI255
aI255
aa(lp269
I72
aI133
aI219
aa(lp270
I199
aI0
aI0
aI0
aI0
aI0
aa(lp271
I139
aI61
aI215
aI62
aI32
aI0
aa(lp272
I116
aI5
aa(lp273
I128
aI59
aI0
aa(lp274
I117
aI24
aa(lp275
I72
aI141
aI53
aI41
aI31
aI0
aI0
aa(lp276
I72
aI137
aI217
aa(lp277
I72
aI137
aI234
aa(lp278
I49
aI192
aa(lp279
I232
aI92
aI199
aI255
aI255
aa(lp280
I15
aI31
aI64
aI0
aa(lp281
I72
aI141
aI116
aI36
aI16
aa(lp282
I72
aI137
aI223
aa(lp283
I72
aI137
aI68
aI36
aI8
aa(lp284
I232
aI118
aI198
aI255
aI255
aa(lp285
I72
aI139
aI68
aI36
aI8
aa(lp286
I139
aI0
aa(lp287
I133
aI192
aa(lp288
I117
aI43
aa(lp289
I72
aI139
aI68
aI36
aI16
aa(lp290
I72
aI57
aI216
aa(lp291
I116
aI65
aa(lp292
I72
aI133
aI192
aa(lp293
I116
aI5
aa(lp294
I128
aI56
aI0
aa(lp295
I117
aI55
aa(lp296
I72
aI139
aI68
aI36
aI24
aa(lp297
I100
aI72
aI51
aI4
aI37
aI40
aI0
aa(lp298
I0
aI0
aa(lp299
I117
aI50
aa(lp300
I72
aI131
aI196
aI40
aa(lp301
I91
aa(lp302
I93
aa(lp303
I195
aasg13
(tsg14
I2
sg15
g16
ssS'strtosize'
p304
(dp305
g7
g8
sg9
(lp306
sg11
(lp307
(lp308
I49
aI210
aa(lp309
I233
aI57
aI251
aI255
aI255
aa(lp310
I102
aI15
aI31
aI132
aI0
aI0
aI0
aa(lp311
I0
aI0
aasg13
(I19552
I19559
tp312
sg14
I2
sg15
g16
ssS'fflush'
p313
(dp314
g7
g8
sg9
(lp315
sg11
(lp316
sg13
(tsg14
I0
sg15
g16
ssS'strtol'
p317
(dp318
g7
g8
sg9
(lp319
sg11
(lp320
sg13
(tsg14
I0
sg15
g16
ssS'fputc'
p321
(dp322
g7
g8
sg9
(lp323
sg11
(lp324
sg13
(tsg14
I0
sg15
g16
ssS'strtod'
p325
(dp326
g7
g8
sg9
(lp327
sg11
(lp328
sg13
(tsg14
I0
sg15
g16
ssS'fputs'
p329
(dp330
g7
g8
sg9
(lp331
sg11
(lp332
sg13
(tsg14
I0
sg15
g16
ssS'replay_seek_log'
p333
(dp334
g7
g8
sg9
(lp335
sg11
(lp336
sg13
(tsg14
I2
sg15
g16
ssS'getpid'
p337
(dp338
g7
g8
sg9
(lp339
sg11
(lp340
sg13
(tsg14
I0
sg15
g16
ssS'usage'
p341
(dp342
g7
g8
sg9
(lp343
sg11
(lp344
sg13
(tsg14
I0
sg15
g16
ssS'main'
p345
(dp346
g7
g8
sg9
(lp347
sg11
(lp348
(lp349
I65
aI87
aa(lp350
I65
aI86
aa(lp351
I69
aI49
aI246
aa(lp352
I65
aI85
aa(lp353
I65
aI84
aa(lp354
I73
aI137
aI244
aa(lp355
I85
aa(lp356
I83
aa(lp357
I72
aI141
aI53
aI4
aI73
aI0
aI0
aa(lp358
I137
aI253
aa(lp359
I191
aI6
aI0
aI0
aI0
aa(lp360
I72
aI141
aI29
aI171
aI77
aI0
aI0
aa(lp361
I72
aI129
aI236
aI168
aI0
aI0
aI0
aa(lp362
I69
aI49
aI237
aa(lp363
I100
aI72
aI139
aI4
aI37
aI40
aI0
aa(lp364
I0
aI0
aa(lp365
I72
aI137
aI132
aI36
aI152
aI0
aI0
aI0
aa(lp366
I49
aI192
aa(lp367
I49
aI192
aa(lp368
I72
aI199
aI68
aI36
aI72
aI0
aI0
aa(lp369
I0
aI0
aa(lp370
I199
aI132
aI36
aI146
aI0
aI0
aI0
aa(lp371
I0
aI0
aI0
aI0
aa(lp372
I102
aI137
aI132
aI36
aI150
aI0
aI0
aI0
aa(lp373
I72
aI199
aI132
aI36
aI136
aI0
aI0
aa(lp374
I0
aI0
aI0
aI0
aI0
aa(lp375
I232
aI143
aI254
aI255
aI255
aa(lp376
I72
aI141
aI53
aI118
aI71
aI0
aI0
aa(lp377
I191
aI1
aI0
aI0
aI0
aa(lp378
I232
aI126
aI254
aI255
aI255
aa(lp379
I72
aI141
aI53
aI103
aI71
aI0
aI0
aa(lp380
I72
aI141
aI61
aI114
aI71
aI0
aI0
aa(lp381
I232
aI11
aI252
aI255
aI255
aa(lp382
I72
aI141
aI61
aI102
aI71
aI0
aI0
aa(lp383
I232
aI207
aI251
aI255
aI255
aa(lp384
I72
aI141
aI61
aI88
aI14
aI0
aI0
aa(lp385
I232
aI195
aI70
aI0
aI0
aa(lp386
I232
aI222
aI20
aI0
aI0
aa(lp387
I72
aI139
aI5
aI183
aI78
aI0
aI0
aa(lp388
I72
aI199
aI68
aI36
aI88
aI0
aI0
aa(lp389
I0
aI0
aa(lp390
I72
aI199
aI68
aI36
aI80
aI0
aI0
aa(lp391
I0
aI0
aa(lp392
I199
aI68
aI36
aI40
aI0
aI0
aI0
aI0
aa(lp393
I199
aI68
aI36
aI44
aI0
aI0
aI0
aI0
aa(lp394
I72
aI199
aI68
aI36
aI16
aI0
aI0
aa(lp395
I0
aI0
aa(lp396
I72
aI137
aI68
aI36
aI32
aa(lp397
I72
aI141
aI132
aI36
aI146
aI0
aI0
aI0
aa(lp398
I72
aI199
aI68
aI36
aI24
aI0
aI0
aa(lp399
I0
aI0
aa(lp400
I72
aI199
aI68
aI36
aI8
aI0
aI0
aa(lp401
I0
aI0
aa(lp402
I72
aI137
aI68
aI36
aI56
aa(lp403
I72
aI141
aI68
aI36
aI80
aa(lp404
I72
aI137
aI68
aI36
aI48
aa(lp405
I72
aI141
aI13
aI55
aI109
aI32
aI0
aa(lp406
I72
aI141
aI21
aI12
aI72
aI0
aI0
aa(lp407
I69
aI49
aI192
aa(lp408
I76
aI137
aI230
aa(lp409
I137
aI239
aa(lp410
I232
aI195
aI251
aI255
aI255
aa(lp411
I131
aI248
aI255
aa(lp412
I15
aI132
aI204
aI5
aI0
aI0
aa(lp413
I131
aI248
aI78
aa(lp414
I126
aI75
aa(lp415
I72
aI141
aI140
aI36
aI136
aI0
aI0
aI0
aa(lp416
I76
aI141
aI61
aI166
aI77
aI0
aI0
aa(lp417
I186
aI79
aI0
aI0
aI0
aa(lp418
I144
aa(lp419
I57
aI208
aa(lp420
I124
aI31
aa(lp421
I116
aI21
aa(lp422
I76
aI137
aI254
aa(lp423
I72
aI131
aI198
aI4
aa(lp424
I139
aI22
aa(lp425
I57
aI208
aa(lp426
I124
aI16
aa(lp427
I133
aI210
aa(lp428
I116
aI12
aa(lp429
I57
aI208
aa(lp430
I117
aI238
aa(lp431
I139
aI17
aa(lp432
I133
aI210
aa(lp433
I117
aI47
aa(lp434
I137
aI1
aa(lp435
I73
aI131
aI199
aI64
aa(lp436
I65
aI139
aI23
aa(lp437
I72
aI131
aI193
aI4
aa(lp438
I57
aI208
aa(lp439
I124
aI4
aa(lp440
I133
aI210
aa(lp441
I117
aI202
aa(lp442
I131
aI232
aI66
aa(lp443
I131
aI248
aI62
aa(lp444
I15
aI135
aI11
aI5
aI0
aI0
aa(lp445
I72
aI99
aI4
aI131
aa(lp446
I72
aI1
aI216
aa(lp447
I255
aI224
aa(lp448
I15
aI31
aI68
aI0
aI0
aa(lp449
I57
aI208
aa(lp450
I116
aI207
aa(lp451
I72
aI141
aI53
aI101
aI72
aI0
aI0
aa(lp452
I72
aI139
aI29
aI190
aI114
aI32
aI0
aa(lp453
I186
aI5
aI0
aI0
aI0
aa(lp454
I49
aI255
aa(lp455
I72
aI141
aI45
aI27
aI70
aI0
aI0
aa(lp456
I232
aI235
aI250
aI255
aI255
aa(lp457
I72
aI139
aI61
aI196
aI114
aI32
aI0
aa(lp458
I72
aI137
aI217
aa(lp459
I72
aI137
aI194
aa(lp460
I190
aI1
aI0
aI0
aI0
aa(lp461
I49
aI192
aa(lp462
I49
aI219
aa(lp463
I232
aI160
aI253
aI255
aI255
aa(lp464
I65
aI139
aI12
aI31
aa(lp465
I133
aI201
aa(lp466
I116
aI72
aa(lp467
I72
aI137
aI234
aa(lp468
I72
aI141
aI5
aI94
aI108
aI32
aI0
aa(lp469
I235
aI16
aa(lp470
I72
aI131
aI192
aI32
aa(lp471
I72
aI139
aI16
aa(lp472
I72
aI133
aI210
aa(lp473
I15
aI132
aI80
aI8
aI0
aI0
aa(lp474
I59
aI72
aI24
aa(lp475
I117
aI235
aa(lp476
I72
aI139
aI61
aI128
aI114
aI32
aI0
aa(lp477
I72
aI137
aI209
aa(lp478
I72
aI141
aI21
aI168
aI71
aI0
aI0
aa(lp479
I190
aI1
aI0
aI0
aI0
aa(lp480
I49
aI192
aa(lp481
I232
aI90
aI253
aI255
aI255
aa(lp482
I72
aI131
aI195
aI4
aa(lp483
I72
aI131
aI251
aI60
aa(lp484
I117
aI176
aa(lp485
I72
aI139
aI53
aI89
aI114
aI32
aI0
aa(lp486
I191
aI10
aI0
aI0
aI0
aa(lp487
I232
aI143
aI251
aI255
aI255
aa(lp488
I191
aI1
aI0
aI0
aI0
aa(lp489
I232
aI37
aI253
aI255
aI255
aa(lp490
I199
aI68
aI36
aI40
aI1
aI0
aI0
aI0
aa(lp491
I233
aI186
aI254
aI255
aI255
aa(lp492
I76
aI139
aI61
aI41
aI114
aI32
aI0
aa(lp493
I72
aI141
aI61
aI113
aI71
aI0
aI0
aa(lp494
I76
aI137
aI254
aa(lp495
I232
aI178
aI251
aI255
aI255
aa(lp496
I133
aI192
aa(lp497
I15
aI132
aI120
aI4
aI0
aI0
aa(lp498
I72
aI141
aI61
aI97
aI71
aI0
aI0
aa(lp499
I76
aI137
aI254
aa(lp500
I232
aI155
aI251
aI255
aI255
aa(lp501
I133
aI192
aa(lp502
I15
aI132
aI77
aI4
aI0
aI0
aa(lp503
I72
aI141
aI61
aI172
aI69
aI0
aI0
aa(lp504
I76
aI137
aI254
aa(lp505
I232
aI132
aI251
aI255
aI255
aa(lp506
I133
aI192
aa(lp507
I15
aI132
aI109
aI7
aI0
aI0
aa(lp508
I72
aI141
aI61
aI156
aI69
aI0
aI0
aa(lp509
I76
aI137
aI254
aa(lp510
I232
aI109
aI251
aI255
aI255
aa(lp511
I133
aI192
aa(lp512
I15
aI133
aI110
aI9
aI0
aI0
aa(lp513
I72
aI139
aI124
aI36
aI56
aa(lp514
I190
aI72
aI0
aI0
aI0
aa(lp515
I232
aI246
aI11
aI0
aI0
aa(lp516
I233
aI67
aI254
aI255
aI255
aa(lp517
I72
aI141
aI53
aI98
aI71
aI0
aI0
aa(lp518
I49
aI255
aa(lp519
I186
aI5
aI0
aI0
aI0
aa(lp520
I232
aI206
aI249
aI255
aI255
aa(lp521
I72
aI139
aI116
aI36
aI48
aa(lp522
I72
aI139
aI61
aI154
aI113
aI32
aI0
aa(lp523
I72
aI137
aI194
aa(lp524
I232
aI74
aI53
aI0
aI0
aa(lp525
I233
aI23
aI254
aI255
aI255
aa(lp526
I72
aI139
aI29
aI118
aI113
aI32
aI0
aa(lp527
I72
aI141
aI53
aI135
aI69
aI0
aI0
aa(lp528
I186
aI5
aI0
aI0
aI0
aa(lp529
I49
aI255
aa(lp530
I232
aI155
aI249
aI255
aI255
aa(lp531
I72
aI137
aI222
aa(lp532
I72
aI137
aI199
aa(lp533
I232
aI64
aI250
aI255
aI255
aa(lp534
I72
aI139
aI45
aI73
aI113
aI32
aI0
aa(lp535
I72
aI141
aI53
aI107
aI69
aI0
aI0
aa(lp536
I49
aI255
aa(lp537
I186
aI5
aI0
aI0
aI0
aa(lp538
I232
aI118
aI249
aI255
aI255
aa(lp539
I72
aI137
aI233
aa(lp540
I72
aI137
aI194
aa(lp541
I72
aI137
aI223
aa(lp542
I190
aI1
aI0
aI0
aI0
aa(lp543
I49
aI192
aa(lp544
I232
aI49
aI252
aI255
aI255
aa(lp545
I72
aI139
aI45
aI26
aI113
aI32
aI0
aa(lp546
I72
aI141
aI53
aI3
aI71
aI0
aI0
aa(lp547
I49
aI255
aa(lp548
I186
aI5
aI0
aI0
aI0
aa(lp549
I232
aI71
aI249
aI255
aI255
aa(lp550
I72
aI137
aI233
aa(lp551
I72
aI137
aI194
aa(lp552
I72
aI137
aI223
aa(lp553
I190
aI1
aI0
aI0
aI0
aa(lp554
I49
aI192
aa(lp555
I232
aI2
aI252
aI255
aI255
aa(lp556
I72
aI137
aI222
aa(lp557
I191
aI10
aI0
aI0
aI0
aa(lp558
I232
aI69
aI250
aI255
aI255
aa(lp559
I72
aI141
aI53
aI254
aI70
aI0
aI0
aa(lp560
I186
aI5
aI0
aI0
aI0
aa(lp561
I49
aI255
aa(lp562
I232
aI18
aI249
aI255
aI255
aa(lp563
I72
aI137
aI222
aa(lp564
I72
aI137
aI199
aa(lp565
I232
aI183
aI249
aI255
aI255
aa(lp566
I72
aI141
aI53
aI248
aI68
aI0
aI0
aa(lp567
I186
aI5
aI0
aI0
aI0
aa(lp568
I49
aI255
aa(lp569
I232
aI244
aI248
aI255
aI255
aa(lp570
I72
aI137
aI222
aa(lp571
I72
aI137
aI199
aa(lp572
I232
aI153
aI249
aI255
aI255
aa(lp573
I72
aI141
aI53
aI2
aI71
aI0
aI0
aa(lp574
I186
aI5
aI0
aI0
aI0
aa(lp575
I49
aI255
aa(lp576
I232
aI214
aI248
aI255
aI255
aa(lp577
I72
aI137
aI222
aa(lp578
I72
aI137
aI199
aa(lp579
I232
aI123
aI249
aI255
aI255
aa(lp580
I72
aI141
aI53
aI28
aI71
aI0
aI0
aa(lp581
I186
aI5
aI0
aI0
aI0
aa(lp582
I49
aI255
aa(lp583
I232
aI184
aI248
aI255
aI255
aa(lp584
I72
aI137
aI222
aa(lp585
I72
aI137
aI199
aa(lp586
I232
aI93
aI249
aI255
aI255
aa(lp587
I72
aI141
aI53
aI38
aI71
aI0
aI0
aa(lp588
I186
aI5
aI0
aI0
aI0
aa(lp589
I49
aI255
aa(lp590
I232
aI154
aI248
aI255
aI255
aa(lp591
I72
aI137
aI222
aa(lp592
I72
aI137
aI199
aa(lp593
I232
aI63
aI249
aI255
aI255
aa(lp594
I72
aI141
aI53
aI56
aI71
aI0
aI0
aa(lp595
I186
aI5
aI0
aI0
aI0
aa(lp596
I49
aI255
aa(lp597
I232
aI124
aI248
aI255
aI255
aa(lp598
I72
aI137
aI222
aa(lp599
I72
aI137
aI199
aa(lp600
I232
aI33
aI249
aI255
aI255
aa(lp601
I72
aI141
aI53
aI90
aI71
aI0
aI0
aa(lp602
I186
aI5
aI0
aI0
aI0
aa(lp603
I49
aI255
aa(lp604
I232
aI94
aI248
aI255
aI255
aa(lp605
I72
aI137
aI222
aa(lp606
I72
aI137
aI199
aa(lp607
I232
aI3
aI249
aI255
aI255
aa(lp608
I72
aI137
aI222
aa(lp609
I191
aI10
aI0
aI0
aI0
aa(lp610
I232
aI102
aI249
aI255
aI255
aa(lp611
I72
aI141
aI53
aI111
aI71
aI0
aI0
aa(lp612
I186
aI5
aI0
aI0
aI0
aa(lp613
I49
aI255
aa(lp614
I232
aI51
aI248
aI255
aI255
aa(lp615
I72
aI137
aI222
aa(lp616
I72
aI137
aI199
aa(lp617
I232
aI216
aI248
aI255
aI255
aa(lp618
I72
aI137
aI222
aa(lp619
I191
aI10
aI0
aI0
aI0
aa(lp620
I232
aI59
aI249
aI255
aI255
aa(lp621
I72
aI141
aI53
aI124
aI71
aI0
aI0
aa(lp622
I186
aI5
aI0
aI0
aI0
aa(lp623
I49
aI255
aa(lp624
I232
aI8
aI248
aI255
aI255
aa(lp625
I72
aI137
aI222
aa(lp626
I72
aI137
aI199
aa(lp627
I232
aI173
aI248
aI255
aI255
aa(lp628
I72
aI141
aI53
aI174
aI71
aI0
aI0
aa(lp629
I186
aI5
aI0
aI0
aI0
aa(lp630
I49
aI255
aa(lp631
I232
aI234
aI247
aI255
aI255
aa(lp632
I72
aI137
aI222
aa(lp633
I72
aI137
aI199
aa(lp634
I232
aI143
aI248
aI255
aI255
aa(lp635
I72
aI141
aI53
aI224
aI71
aI0
aI0
aa(lp636
I186
aI5
aI0
aI0
aI0
aa(lp637
I49
aI255
aa(lp638
I232
aI204
aI247
aI255
aI255
aa(lp639
I72
aI137
aI222
aa(lp640
I72
aI137
aI199
aa(lp641
I232
aI113
aI248
aI255
aI255
aa(lp642
I72
aI141
aI53
aI18
aI72
aI0
aI0
aa(lp643
I186
aI5
aI0
aI0
aI0
aa(lp644
I49
aI255
aa(lp645
I232
aI174
aI247
aI255
aI255
aa(lp646
I72
aI137
aI222
aa(lp647
I72
aI137
aI199
aa(lp648
I232
aI83
aI248
aI255
aI255
aa(lp649
I72
aI141
aI53
aI52
aI72
aI0
aI0
aa(lp650
I186
aI5
aI0
aI0
aI0
aa(lp651
I49
aI255
aa(lp652
I232
aI144
aI247
aI255
aI255
aa(lp653
I72
aI137
aI222
aa(lp654
I72
aI137
aI199
aa(lp655
I232
aI53
aI248
aI255
aI255
aa(lp656
I72
aI141
aI53
aI129
aI67
aI0
aI0
aa(lp657
I186
aI5
aI0
aI0
aI0
aa(lp658
I49
aI255
aa(lp659
I232
aI114
aI247
aI255
aI255
aa(lp660
I72
aI141
aI53
aI126
aI67
aI0
aI0
aa(lp661
I186
aI5
aI0
aI0
aI0
aa(lp662
I49
aI255
aa(lp663
I72
aI137
aI195
aa(lp664
I232
aI92
aI247
aI255
aI255
aa(lp665
I76
aI141
aI5
aI122
aI67
aI0
aI0
aa(lp666
I72
aI141
aI21
aI130
aI67
aI0
aI0
aa(lp667
I72
aI141
aI53
aI135
aI67
aI0
aI0
aa(lp668
I72
aI137
aI193
aa(lp669
I73
aI137
aI217
aa(lp670
I191
aI1
aI0
aI0
aI0
aa(lp671
I49
aI192
aa(lp672
I232
aI149
aI249
aI255
aI255
aa(lp673
I72
aI141
aI53
aI127
aI67
aI0
aI0
aa(lp674
I186
aI5
aI0
aI0
aI0
aa(lp675
I49
aI255
aa(lp676
I232
aI34
aI247
aI255
aI255
aa(lp677
I72
aI141
aI21
aI135
aI67
aI0
aI0
aa(lp678
I72
aI137
aI198
aa(lp679
I191
aI1
aI0
aI0
aI0
aa(lp680
I49
aI192
aa(lp681
I232
aI108
aI249
aI255
aI255
aa(lp682
I49
aI255
aa(lp683
I232
aI197
aI249
aI255
aI255
aa(lp684
I72
aI139
aI61
aI214
aI110
aI32
aI0
aa(lp685
I232
aI185
aI7
aI0
aI0
aa(lp686
I199
aI68
aI36
aI44
aI1
aI0
aI0
aI0
aa(lp687
I242
aI15
aI17
aI68
aI36
aI32
aa(lp688
I233
aI72
aI251
aI255
aI255
aa(lp689
I76
aI139
aI61
aI183
aI110
aI32
aI0
aa(lp690
I72
aI141
aI61
aI58
aI66
aI0
aI0
aa(lp691
I76
aI137
aI254
aa(lp692
I232
aI64
aI248
aI255
aI255
aa(lp693
I133
aI192
aa(lp694
I65
aI137
aI198
aa(lp695
I15
aI132
aI39
aI251
aI255
aI255
aa(lp696
I72
aI141
aI61
aI37
aI66
aI0
aI0
aa(lp697
I76
aI137
aI254
aa(lp698
I232
aI38
aI248
aI255
aI255
aa(lp699
I133
aI192
aa(lp700
I15
aI132
aI176
aI3
aI0
aI0
aa(lp701
I72
aI141
aI61
aI20
aI66
aI0
aI0
aa(lp702
I76
aI137
aI254
aa(lp703
I232
aI15
aI248
aI255
aI255
aa(lp704
I133
aI192
aa(lp705
I15
aI133
aI53
aI6
aI0
aI0
aa(lp706
I65
aI190
aI2
aI0
aI0
aI0
aa(lp707
I233
aI238
aI250
aI255
aI255
aa(lp708
I72
aI139
aI29
aI69
aI110
aI32
aI0
aa(lp709
I72
aI141
aI53
aI56
aI66
aI0
aI0
aa(lp710
I186
aI5
aI0
aI0
aI0
aa(lp711
I49
aI255
aa(lp712
I232
aI114
aI246
aI255
aI255
aa(lp713
I72
aI141
aI13
aI49
aI66
aI0
aI0
aa(lp714
I72
aI137
aI198
aa(lp715
I191
aI1
aI0
aI0
aI0
aa(lp716
I72
aI137
aI218
aa(lp717
I49
aI192
aa(lp718
I232
aI185
aI248
aI255
aI255
aa(lp719
I49
aI255
aa(lp720
I232
aI18
aI249
aI255
aI255
aa(lp721
I72
aI139
aI5
aI35
aI110
aI32
aI0
aa(lp722
I72
aI137
aI68
aI36
aI16
aa(lp723
I233
aI163
aI250
aI255
aI255
aa(lp724
I76
aI139
aI45
aI18
aI110
aI32
aI0
aa(lp725
I233
aI151
aI250
aI255
aI255
aa(lp726
I72
aI139
aI5
aI6
aI110
aI32
aI0
aa(lp727
I72
aI137
aI68
aI36
aI8
aa(lp728
I233
aI134
aI250
aI255
aI255
aa(lp729
I72
aI139
aI5
aI245
aI109
aI32
aI0
aa(lp730
I72
aI137
aI68
aI36
aI24
aa(lp731
I233
aI117
aI250
aI255
aI255
aa(lp732
I72
aI141
aI53
aI228
aI70
aI0
aI0
aa(lp733
I72
aI139
aI29
aI197
aI109
aI32
aI0
aa(lp734
I186
aI5
aI0
aI0
aI0
aa(lp735
I49
aI255
aa(lp736
I232
aI249
aI245
aI255
aI255
aa(lp737
I72
aI139
aI61
aI210
aI109
aI32
aI0
aa(lp738
I72
aI137
aI194
aa(lp739
I72
aI137
aI217
aa(lp740
I190
aI1
aI0
aI0
aI0
aa(lp741
I49
aI192
aa(lp742
I232
aI176
aI248
aI255
aI255
aa(lp743
I191
aI1
aI0
aI0
aI0
aa(lp744
I232
aI150
aI248
aI255
aI255
aa(lp745
I72
aI139
aI124
aI36
aI56
aa(lp746
I190
aI79
aI0
aI0
aI0
aa(lp747
I232
aI215
aI7
aI0
aI0
aa(lp748
I233
aI36
aI250
aI255
aI255
aa(lp749
I72
aI139
aI124
aI36
aI56
aa(lp750
I190
aI73
aI0
aI0
aI0
aa(lp751
I232
aI195
aI7
aI0
aI0
aa(lp752
I233
aI16
aI250
aI255
aI255
aa(lp753
I72
aI99
aI5
aI119
aI109
aI32
aI0
aa(lp754
I41
aI197
aa(lp755
I72
aI131
aI124
aI36
aI16
aI0
aa(lp756
I73
aI141
aI12
aI196
aa(lp757
I15
aI148
aI194
aa(lp758
I133
aI237
aa(lp759
I15
aI159
aI192
aa(lp760
I33
aI194
aa(lp761
I139
aI68
aI36
aI40
aa(lp762
I137
aI195
aa(lp763
I131
aI243
aI1
aa(lp764
I133
aI192
aa(lp765
I15
aI132
aI141
aI2
aI0
aI0
aa(lp766
I49
aI192
aa(lp767
I132
aI210
aa(lp768
I102
aI199
aI132
aI36
aI146
aI0
aI0
aa(lp769
I0
aI72
aI0
aa(lp770
I116
aI67
aa(lp771
I72
aI139
aI1
aa(lp772
I72
aI137
aI68
aI36
aI16
aa(lp773
I184
aI1
aI0
aI0
aI0
aa(lp774
I77
aI133
aI237
aa(lp775
I117
aI49
aa(lp776
I132
aI219
aa(lp777
I116
aI45
aa(lp778
I72
aI131
aI124
aI36
aI8
aI0
aa(lp779
I15
aI133
aI167
aI2
aI0
aI0
aa(lp780
I72
aI131
aI124
aI36
aI24
aI0
aa(lp781
I15
aI133
aI155
aI2
aI0
aI0
aa(lp782
I57
aI232
aa(lp783
I76
aI141
aI45
aI108
aI64
aI0
aI0
aa(lp784
I125
aI10
aa(lp785
I72
aI99
aI208
aa(lp786
I131
aI192
aI1
aa(lp787
I76
aI139
aI44
aI209
aa(lp788
I131
aI124
aI36
aI44
aI0
aa(lp789
I117
aI20
aa(lp790
I72
aI139
aI61
aI223
aI71
aI0
aI0
aa(lp791
I57
aI232
aa(lp792
I72
aI137
aI124
aI36
aI32
aa(lp793
I15
aI140
aI46
aI2
aI0
aI0
aa(lp794
I72
aI131
aI124
aI36
aI16
aI0
aa(lp795
I186
aI5
aI0
aI0
aI0
aa(lp796
I72
aI141
aI53
aI147
aI65
aI0
aI0
aa(lp797
I116
aI37
aa(lp798
I77
aI133
aI237
aa(lp799
I117
aI54
aa(lp800
I72
aI131
aI124
aI36
aI8
aI0
aa(lp801
I117
aI46
aa(lp802
I72
aI131
aI124
aI36
aI24
aI0
aa(lp803
I117
aI38
aa(lp804
I132
aI219
aa(lp805
I116
aI34
aa(lp806
I72
aI141
aI53
aI139
aI65
aI0
aI0
aa(lp807
I186
aI5
aI0
aI0
aI0
aa(lp808
I49
aI255
aa(lp809
I232
aI210
aI244
aI255
aI255
aa(lp810
I191
aI1
aI0
aI0
aI0
aa(lp811
I72
aI137
aI198
aa(lp812
I49
aI192
aa(lp813
I232
aI19
aI245
aI255
aI255
aa(lp814
I232
aI222
aI14
aI0
aI0
aa(lp815
I72
aI139
aI116
aI36
aI16
aa(lp816
I72
aI137
aI199
aa(lp817
I72
aI137
aI195
aa(lp818
I232
aI30
aI16
aI0
aI0
aa(lp819
I133
aI192
aa(lp820
I15
aI133
aI216
aI1
aI0
aI0
aa(lp821
I77
aI133
aI237
aa(lp822
I116
aI26
aa(lp823
I72
aI141
aI53
aI117
aI65
aI0
aI0
aa(lp824
I76
aI137
aI234
aa(lp825
I72
aI137
aI223
aa(lp826
I232
aI127
aI18
aI0
aI0
aa(lp827
I133
aI192
aa(lp828
I15
aI133
aI219
aI3
aI0
aI0
aa(lp829
I72
aI139
aI68
aI36
aI8
aa(lp830
I72
aI133
aI192
aa(lp831
I116
aI26
aa(lp832
I72
aI141
aI53
aI78
aI65
aI0
aI0
aa(lp833
I72
aI137
aI194
aa(lp834
I72
aI137
aI223
aa(lp835
I232
aI91
aI18
aI0
aI0
aa(lp836
I133
aI192
aa(lp837
I15
aI133
aI71
aI3
aI0
aI0
aa(lp838
I72
aI139
aI84
aI36
aI24
aa(lp839
I72
aI133
aI210
aa(lp840
I15
aI132
aI36
aI2
aI0
aI0
aa(lp841
I72
aI141
aI53
aI40
aI65
aI0
aI0
aa(lp842
I72
aI137
aI223
aa(lp843
I232
aI54
aI18
aI0
aI0
aa(lp844
I133
aI192
aa(lp845
I15
aI133
aI232
aI2
aI0
aI0
aa(lp846
I128
aI188
aI36
aI146
aI0
aI0
aI0
aI0
aa(lp847
I15
aI132
aI192
aI2
aI0
aI0
aa(lp848
I15
aI182
aI132
aI36
aI146
aI0
aI0
aI0
aa(lp849
I72
aI141
aI172
aI36
aI146
aI0
aI0
aI0
aa(lp850
I128
aI188
aI36
aI147
aI0
aI0
aI0
aI0
aa(lp851
I15
aI133
aI39
aI2
aI0
aI0
aa(lp852
I15
aI190
aI240
aa(lp853
I72
aI137
aI223
aa(lp854
I232
aI167
aI14
aI0
aI0
aa(lp855
I68
aI137
aI246
aa(lp856
I72
aI137
aI223
aa(lp857
I232
aI220
aI14
aI0
aI0
aa(lp858
I242
aI15
aI16
aI76
aI36
aI32
aa(lp859
I102
aI15
aI46
aI13
aI174
aI70
aI0
aI0
aa(lp860
I15
aI138
aI185
aI2
aI0
aI0
aa(lp861
I15
aI133
aI179
aI2
aI0
aI0
aa(lp862
I72
aI131
aI124
aI36
aI80
aI0
aa(lp863
I117
aI8
aa(lp864
I72
aI131
aI124
aI36
aI88
aI0
aa(lp865
I116
aI13
aa(lp866
I72
aI141
aI116
aI36
aI80
aa(lp867
I72
aI137
aI223
aa(lp868
I232
aI5
aI15
aI0
aI0
aa(lp869
I72
aI141
aI53
aI222
aI69
aI0
aI0
aa(lp870
I72
aI137
aI223
aa(lp871
I76
aI141
aI116
aI36
aI72
aa(lp872
I76
aI141
aI108
aI36
aI112
aa(lp873
I76
aI141
aI100
aI36
aI96
aa(lp874
I232
aI199
aI14
aI0
aI0
aa(lp875
I235
aI26
aa(lp876
I72
aI139
aI116
aI36
aI72
aa(lp877
I186
aI1
aI0
aI0
aI0
aa(lp878
I72
aI137
aI223
aa(lp879
I232
aI179
aI27
aI0
aI0
aa(lp880
I133
aI192
aa(lp881
I15
aI133
aI0
aI1
aI0
aI0
aa(lp882
I76
aI137
aI242
aa(lp883
I72
aI137
aI238
aa(lp884
I72
aI137
aI223
aa(lp885
I232
aI189
aI19
aI0
aI0
aa(lp886
I133
aI192
aa(lp887
I15
aI133
aI234
aI0
aI0
aI0
aa(lp888
I131
aI124
aI36
aI40
aI0
aa(lp889
I117
aI201
aa(lp890
I72
aI139
aI124
aI36
aI72
aa(lp891
I232
aI244
aI18
aI0
aI0
aa(lp892
I72
aI133
aI192
aa(lp893
I73
aI137
aI199
aa(lp894
I116
aI183
aa(lp895
I72
aI139
aI16
aa(lp896
I72
aI139
aI64
aI8
aa(lp897
I72
aI133
aI210
aa(lp898
I117
aI5
aa(lp899
I72
aI133
aI192
aa(lp900
I116
aI166
aa(lp901
I72
aI105
aI192
aI232
aI3
aI0
aI0
aa(lp902
I246
aI5
aI41
aI107
aI32
aI0
aI4
aa(lp903
I72
aI137
aI84
aI36
aI96
aa(lp904
I72
aI137
aI68
aI36
aI104
aa(lp905
I116
aI30
aa(lp906
I233
aI55
aI2
aI0
aI0
aa(lp907
I232
aI87
aI242
aI255
aI255
aa(lp908
I131
aI56
aI4
aa(lp909
I15
aI133
aI121
aI255
aI255
aI255
aa(lp910
I102
aI15
aI111
aI68
aI36
aI112
aa(lp911
I15
aI41
aI68
aI36
aI96
aa(lp912
I76
aI137
aI238
aa(lp913
I76
aI137
aI231
aa(lp914
I232
aI136
aI243
aI255
aI255
aa(lp915
I131
aI192
aI1
aa(lp916
I116
aI215
aa(lp917
I233
aI89
aI255
aI255
aI255
aa(lp918
I65
aI190
aI1
aI0
aI0
aI0
aa(lp919
I233
aI85
aI247
aI255
aI255
aa(lp920
I132
aI210
aa(lp921
I15
aI133
aI123
aI253
aI255
aI255
aa(lp922
I49
aI192
aa(lp923
I233
aI129
aI253
aI255
aI255
aa(lp924
I72
aI152
aa(lp925
I72
aI139
aI60
aI193
aa(lp926
I232
aI153
aI3
aI0
aI0
aa(lp927
I242
aI15
aI17
aI68
aI36
aI32
aa(lp928
I233
aI188
aI253
aI255
aI255
aa(lp929
I72
aI141
aI53
aI144
aI63
aI0
aI0
aa(lp930
I186
aI5
aI0
aI0
aI0
aa(lp931
I49
aI255
aa(lp932
I232
aI187
aI242
aI255
aI255
aa(lp933
I72
aI139
aI84
aI36
aI16
aa(lp934
I72
aI137
aI198
aa(lp935
I191
aI1
aI0
aI0
aI0
aa(lp936
I49
aI192
aa(lp937
I232
aI119
aI244
aI255
aI255
aa(lp938
I69
aI49
aI237
aa(lp939
I233
aI114
aI253
aI255
aI255
aa(lp940
I72
aI139
aI124
aI36
aI56
aa(lp941
I190
aI83
aI0
aI0
aI0
aa(lp942
I232
aI160
aI4
aI0
aI0
aa(lp943
I233
aI237
aI246
aI255
aI255
aa(lp944
I72
aI139
aI124
aI36
aI72
aa(lp945
I72
aI133
aI255
aa(lp946
I15
aI132
aI201
aI0
aI0
aI0
aa(lp947
I133
aI192
aa(lp948
I15
aI136
aI148
aI0
aI0
aI0
aa(lp949
I191
aI10
aI0
aI0
aI0
aa(lp950
I232
aI123
aI241
aI255
aI255
aa(lp951
I72
aI137
aI223
aa(lp952
I232
aI195
aI12
aI0
aI0
aa(lp953
I49
aI255
aa(lp954
I232
aI28
aI245
aI255
aI255
aa(lp955
I141
aI65
aI223
aa(lp956
I131
aI248
aI93
aa(lp957
I15
aI135
aI198
aI247
aI255
aI255
aa(lp958
I72
aI139
aI61
aI41
aI106
aI32
aI0
aa(lp959
I72
aI141
aI21
aI159
aI61
aI0
aI0
aa(lp960
I190
aI1
aI0
aI0
aI0
aa(lp961
I49
aI192
aa(lp962
I232
aI6
aI245
aI255
aI255
aa(lp963
I233
aI167
aI247
aI255
aI255
aa(lp964
I15
aI182
aI132
aI36
aI146
aI0
aI0
aI0
aa(lp965
I132
aI192
aa(lp966
I15
aI133
aI249
aI253
aI255
aI255
aa(lp967
I77
aI133
aI237
aa(lp968
I15
aI133
aI168
aI0
aI0
aI0
aa(lp969
I72
aI131
aI124
aI36
aI8
aI0
aa(lp970
I72
aI141
aI172
aI36
aI146
aI0
aI0
aI0
aa(lp971
I116
aI29
aa(lp972
I190
aI73
aI0
aI0
aI0
aa(lp973
I72
aI137
aI239
aa(lp974
I232
aI11
aI4
aI0
aI0
aa(lp975
I15
aI182
aI132
aI36
aI146
aI0
aI0
aI0
aa(lp976
I132
aI192
aa(lp977
I15
aI133
aI203
aI253
aI255
aI255
aa(lp978
I190
aI79
aI0
aI0
aI0
aa(lp979
I233
aI210
aI253
aI255
aI255
aa(lp980
I232
aI156
aI17
aI0
aI0
aa(lp981
I72
aI141
aI53
aI212
aI62
aI0
aI0
aa(lp982
I72
aI137
aI195
aa(lp983
I186
aI5
aI0
aI0
aI0
aa(lp984
I49
aI255
aa(lp985
I232
aI198
aI241
aI255
aI255
aa(lp986
I72
aI137
aI218
aa(lp987
I72
aI137
aI198
aa(lp988
I191
aI1
aI0
aI0
aI0
aa(lp989
I49
aI192
aa(lp990
I232
aI132
aI243
aI255
aI255
aa(lp991
I133
aI192
aa(lp992
I15
aI137
aI55
aI255
aI255
aI255
aa(lp993
I72
aI137
aI223
aa(lp994
I232
aI100
aI15
aI0
aI0
aa(lp995
I72
aI137
aI223
aa(lp996
I137
aI197
aa(lp997
I232
aI42
aI15
aI0
aI0
aa(lp998
I72
aI141
aI53
aI147
aI66
aI0
aI0
aa(lp999
I72
aI137
aI195
aa(lp1000
I186
aI5
aI0
aI0
aI0
aa(lp1001
I49
aI255
aa(lp1002
I232
aI132
aI241
aI255
aI255
aa(lp1003
I137
aI233
aa(lp1004
I72
aI137
aI198
aa(lp1005
I72
aI137
aI218
aa(lp1006
I191
aI1
aI0
aI0
aI0
aa(lp1007
I49
aI192
aa(lp1008
I232
aI64
aI243
aI255
aI255
aa(lp1009
I72
aI141
aI172
aI36
aI146
aI0
aI0
aI0
aa(lp1010
I190
aI79
aI0
aI0
aI0
aa(lp1011
I72
aI137
aI239
aa(lp1012
I232
aI107
aI3
aI0
aI0
aa(lp1013
I233
aI91
aI255
aI255
aI255
aa(lp1014
I72
aI141
aI53
aI24
aI62
aI0
aI0
aa(lp1015
I186
aI5
aI0
aI0
aI0
aa(lp1016
I49
aI255
aa(lp1017
I232
aI67
aI241
aI255
aI255
aa(lp1018
I72
aI139
aI84
aI36
aI24
aa(lp1019
I72
aI137
aI198
aa(lp1020
I191
aI1
aI0
aI0
aI0
aa(lp1021
I49
aI192
aa(lp1022
I232
aI255
aI242
aI255
aI255
aa(lp1023
I242
aI15
aI16
aI68
aI36
aI32
aa(lp1024
I72
aI137
aI223
aa(lp1025
I232
aI129
aI12
aI0
aI0
aa(lp1026
I233
aI58
aI253
aI255
aI255
aa(lp1027
I72
aI141
aI53
aI222
aI61
aI0
aI0
aa(lp1028
I186
aI5
aI0
aI0
aI0
aa(lp1029
I49
aI255
aa(lp1030
I232
aI9
aI241
aI255
aI255
aa(lp1031
I72
aI139
aI84
aI36
aI8
aa(lp1032
I72
aI137
aI198
aa(lp1033
I191
aI1
aI0
aI0
aI0
aa(lp1034
I49
aI192
aa(lp1035
I232
aI197
aI242
aI255
aI255
aa(lp1036
I232
aI160
aI240
aI255
aI255
aa(lp1037
I72
aI139
aI61
aI201
aI104
aI32
aI0
aa(lp1038
I76
aI141
aI13
aI191
aI61
aI0
aI0
aa(lp1039
I76
aI141
aI5
aI191
aI61
aI0
aI0
aa(lp1040
I72
aI141
aI21
aI197
aI61
aI0
aI0
aa(lp1041
I137
aI193
aa(lp1042
I190
aI1
aI0
aI0
aI0
aa(lp1043
I49
aI192
aa(lp1044
I232
aI150
aI243
aI255
aI255
aa(lp1045
I73
aI139
aI87
aI8
aa(lp1046
I73
aI139
aI55
aa(lp1047
I72
aI141
aI61
aI186
aI59
aI0
aI0
aa(lp1048
I49
aI192
aa(lp1049
I232
aI225
aI1
aI0
aI0
aa(lp1050
I233
aI153
aI253
aI255
aI255
aa(lp1051
I72
aI141
aI53
aI110
aI61
aI0
aI0
aa(lp1052
I186
aI5
aI0
aI0
aI0
aa(lp1053
I49
aI255
aa(lp1054
I232
aI153
aI240
aI255
aI255
aa(lp1055
I76
aI137
aI234
aa(lp1056
I72
aI137
aI198
aa(lp1057
I191
aI1
aI0
aI0
aI0
aa(lp1058
I49
aI192
aa(lp1059
I232
aI87
aI242
aI255
aI255
aa(lp1060
I72
aI141
aI53
aI28
aI60
aI0
aI0
aa(lp1061
I186
aI5
aI0
aI0
aI0
aa(lp1062
I49
aI255
aa(lp1063
I232
aI116
aI240
aI255
aI255
aa(lp1064
I76
aI137
aI250
aa(lp1065
I72
aI137
aI198
aa(lp1066
I191
aI1
aI0
aI0
aI0
aa(lp1067
I49
aI192
aa(lp1068
I232
aI178
aI240
aI255
aI255
aa(lp1069
I186
aI5
aI0
aI0
aI0
aa(lp1070
I72
aI141
aI53
aI202
aI59
aI0
aI0
aa(lp1071
I235
aI217
aa(lp1072
I15
aI31
aI64
aI0
aasg13
(I7088
I10252
tp1073
sg14
I2
sg15
g16
ssS'strappend'
p1074
(dp1075
g7
g8
sg9
(lp1076
sg11
(lp1077
(lp1078
I83
aa(lp1079
I49
aI210
aa(lp1080
I72
aI137
aI251
aa(lp1081
I72
aI131
aI236
aI16
aa(lp1082
I72
aI133
aI246
aa(lp1083
I116
aI21
aa(lp1084
I72
aI137
aI247
aa(lp1085
I72
aI137
aI116
aI36
aI8
aa(lp1086
I232
aI148
aI184
aI255
aI255
aa(lp1087
I72
aI139
aI116
aI36
aI8
aa(lp1088
I72
aI137
aI194
aa(lp1089
I72
aI131
aI196
aI16
aa(lp1090
I72
aI137
aI223
aa(lp1091
I91
aa(lp1092
I233
aI239
aI254
aI255
aI255
aa(lp1093
I15
aI31
aI68
aI0
aI0
aa(lp1094
I102
aI46
aI15
aI31
aI132
aI0
aI0
aa(lp1095
I0
aI0
aI0
aasg13
(I24512
I24561
tp1096
sg14
I2
sg15
g16
ssS'strtos32_or_err'
p1097
(dp1098
g7
g8
sg9
(lp1099
sg11
(lp1100
(lp1101
I85
aa(lp1102
I83
aa(lp1103
I72
aI137
aI253
aa(lp1104
I72
aI137
aI243
aa(lp1105
I72
aI131
aI236
aI8
aa(lp1106
I232
aI31
aI255
aI255
aI255
aa(lp1107
I186
aI0
aI0
aI0
aI128
aa(lp1108
I185
aI255
aI255
aI255
aI255
aa(lp1109
I72
aI1
aI194
aa(lp1110
I72
aI57
aI202
aa(lp1111
I119
aI7
aa(lp1112
I72
aI131
aI196
aI8
aa(lp1113
I91
aa(lp1114
I93
aa(lp1115
I195
aasg13
(tsg14
I2
sg15
g16
ssS'string_to_idarray'
p1116
(dp1117
g7
g8
sg9
(lp1118
sg11
(lp1119
(lp1120
I72
aI133
aI255
aa(lp1121
I15
aI132
aI251
aI0
aI0
aI0
aa(lp1122
I65
aI87
aa(lp1123
I65
aI86
aa(lp1124
I65
aI85
aa(lp1125
I65
aI84
aa(lp1126
I85
aa(lp1127
I83
aa(lp1128
I72
aI137
aI251
aa(lp1129
I72
aI131
aI236
aI8
aa(lp1130
I15
aI182
aI7
aa(lp1131
I132
aI192
aa(lp1132
I15
aI132
aI183
aI0
aI0
aI0
aa(lp1133
I72
aI133
aI246
aa(lp1134
I73
aI137
aI204
aa(lp1135
I72
aI137
aI213
aa(lp1136
I15
aI148
aI193
aa(lp1137
I72
aI133
aI210
aa(lp1138
I73
aI137
aI245
aa(lp1139
I15
aI148
aI194
aa(lp1140
I8
aI209
aa(lp1141
I15
aI133
aI154
aI0
aI0
aI0
aa(lp1142
I77
aI133
aI228
aa(lp1143
I15
aI132
aI145
aI0
aI0
aI0
aa(lp1144
I49
aI255
aa(lp1145
I69
aI49
aI246
aa(lp1146
I76
aI57
aI245
aa(lp1147
I15
aI134
aI151
aI0
aI0
aI0
aa(lp1148
I72
aI133
aI255
aa(lp1149
I15
aI182
aI83
aI1
aa(lp1150
I72
aI15
aI68
aI251
aa(lp1151
I60
aI44
aa(lp1152
I116
aI104
aa(lp1153
I132
aI210
aa(lp1154
I117
aI57
aa(lp1155
I72
aI141
aI83
aI1
aa(lp1156
I72
aI131
aI251
aI255
aa(lp1157
I73
aI137
aI215
aa(lp1158
I116
aI48
aa(lp1159
I76
aI57
aI255
aa(lp1160
I115
aI94
aa(lp1161
I76
aI137
aI254
aa(lp1162
I72
aI41
aI254
aa(lp1163
I65
aI255
aI212
aa(lp1164
I131
aI248
aI255
aa(lp1165
I116
aI80
aa(lp1166
I73
aI141
aI86
aI1
aa(lp1167
I77
aI133
aI255
aa(lp1168
I67
aI137
aI68
aI181
aI0
aa(lp1169
I73
aI137
aI214
aa(lp1170
I116
aI6
aa(lp1171
I65
aI128
aI63
aI0
aa(lp1172
I116
aI21
aa(lp1173
I49
aI255
aa(lp1174
I72
aI141
aI83
aI1
aa(lp1175
I72
aI133
aI210
aa(lp1176
I72
aI137
aI211
aa(lp1177
I116
aI7
aa(lp1178
I15
aI182
aI2
aa(lp1179
I132
aI192
aa(lp1180
I117
aI152
aa(lp1181
I72
aI131
aI196
aI8
aa(lp1182
I68
aI137
aI240
aa(lp1183
I91
aa(lp1184
I93
aa(lp1185
I65
aI92
aa(lp1186
I65
aI93
aa(lp1187
I65
aI94
aa(lp1188
I65
aI95
aa(lp1189
I195
aasg13
(tsg14
I4
sg15
g16
ssS'strtou32_or_err'
p1190
(dp1191
g7
g8
sg9
(lp1192
sg11
(lp1193
(lp1194
I186
aI10
aI0
aI0
aI0
aa(lp1195
I233
aI6
aI248
aI255
aI255
aa(lp1196
I102
aI15
aI31
aI68
aI0
aI0
aasg13
(I20304
I20314
tp1197
sg14
I2
sg15
g16
ssS'xstrmode'
p1198
(dp1199
g7
g8
sg9
(lp1200
sg11
(lp1201
(lp1202
I137
aI250
aa(lp1203
I65
aI85
aa(lp1204
I72
aI137
aI240
aa(lp1205
I129
aI226
aI0
aI240
aI0
aI0
aa(lp1206
I65
aI84
aa(lp1207
I76
aI141
aI110
aI1
aa(lp1208
I85
aa(lp1209
I76
aI141
aI102
aI2
aa(lp1210
I83
aa(lp1211
I72
aI141
aI110
aI3
aa(lp1212
I72
aI141
aI94
aI4
aa(lp1213
I76
aI141
aI94
aI5
aa(lp1214
I76
aI141
aI86
aI6
aa(lp1215
I76
aI141
aI70
aI7
aa(lp1216
I72
aI131
aI198
aI8
aa(lp1217
I129
aI250
aI0
aI64
aI0
aI0
aa(lp1218
I72
aI141
aI72
aI9
aa(lp1219
I15
aI132
aI135
aI1
aI0
aI0
aa(lp1220
I129
aI250
aI0
aI160
aI0
aI0
aa(lp1221
I116
aI95
aa(lp1222
I129
aI250
aI0
aI32
aI0
aI0
aa(lp1223
I15
aI132
aI147
aI1
aI0
aI0
aa(lp1224
I129
aI250
aI0
aI96
aI0
aI0
aa(lp1225
I15
aI132
aI119
aI1
aI0
aI0
aa(lp1226
I129
aI250
aI0
aI192
aI0
aI0
aa(lp1227
I15
aI132
aI139
aI1
aI0
aI0
aa(lp1228
I129
aI250
aI0
aI16
aI0
aI0
aa(lp1229
I15
aI132
aI143
aI1
aI0
aI0
aa(lp1230
I129
aI250
aI0
aI128
aI0
aI0
aa(lp1231
I15
aI132
aI147
aI1
aI0
aI0
aa(lp1232
I73
aI137
aI201
aa(lp1233
I72
aI137
aI241
aa(lp1234
I76
aI137
aI198
aa(lp1235
I77
aI137
aI208
aa(lp1236
I77
aI137
aI218
aa(lp1237
I73
aI137
aI219
aa(lp1238
I72
aI137
aI235
aa(lp1239
I76
aI137
aI229
aa(lp1240
I77
aI137
aI236
aa(lp1241
I73
aI137
aI197
aa(lp1242
I235
aI10
aa(lp1243
I15
aI31
aI0
aa(lp1244
I76
aI141
aI72
aI10
aa(lp1245
I198
aI0
aI108
aa(lp1246
I137
aI250
aa(lp1247
I129
aI226
aI0
aI1
aI0
aI0
aa(lp1248
I131
aI250
aI1
aa(lp1249
I25
aI210
aa(lp1250
I131
aI226
aI187
aa(lp1251
I131
aI194
aI114
aa(lp1252
I65
aI136
aI85
aI0
aa(lp1253
I137
aI250
aa(lp1254
I129
aI226
aI128
aI0
aI0
aI0
aa(lp1255
I131
aI250
aI1
aa(lp1256
I25
aI210
aa(lp1257
I131
aI226
aI182
aa(lp1258
I131
aI194
aI119
aa(lp1259
I65
aI136
aI20
aI36
aa(lp1260
I137
aI250
aa(lp1261
I131
aI226
aI64
aa(lp1262
I131
aI250
aI1
aa(lp1263
I25
aI210
aa(lp1264
I247
aI199
aI0
aI8
aI0
aI0
aa(lp1265
I15
aI132
aI157
aI0
aI0
aI0
aa(lp1266
I131
aI226
aI224
aa(lp1267
I131
aI194
aI115
aa(lp1268
I136
aI85
aI0
aa(lp1269
I137
aI250
aa(lp1270
I131
aI226
aI32
aa(lp1271
I131
aI250
aI1
aa(lp1272
I25
aI210
aa(lp1273
I131
aI226
aI187
aa(lp1274
I131
aI194
aI114
aa(lp1275
I136
aI19
aa(lp1276
I137
aI250
aa(lp1277
I131
aI226
aI16
aa(lp1278
I131
aI250
aI1
aa(lp1279
I25
aI210
aa(lp1280
I131
aI226
aI182
aa(lp1281
I131
aI194
aI119
aa(lp1282
I65
aI136
aI19
aa(lp1283
I137
aI250
aa(lp1284
I131
aI226
aI8
aa(lp1285
I131
aI250
aI1
aa(lp1286
I25
aI210
aa(lp1287
I247
aI199
aI0
aI4
aI0
aI0
aa(lp1288
I15
aI132
aI129
aI0
aI0
aI0
aa(lp1289
I131
aI226
aI224
aa(lp1290
I131
aI194
aI115
aa(lp1291
I65
aI136
aI18
aa(lp1292
I137
aI250
aa(lp1293
I131
aI226
aI4
aa(lp1294
I131
aI250
aI1
aa(lp1295
I25
aI210
aa(lp1296
I131
aI226
aI187
aa(lp1297
I131
aI194
aI114
aa(lp1298
I65
aI136
aI16
aa(lp1299
I137
aI250
aa(lp1300
I131
aI226
aI2
aa(lp1301
I131
aI250
aI1
aa(lp1302
I25
aI210
aa(lp1303
I131
aI226
aI182
aa(lp1304
I131
aI194
aI119
aa(lp1305
I136
aI22
aa(lp1306
I137
aI250
aa(lp1307
I131
aI226
aI1
aa(lp1308
I131
aI250
aI1
aa(lp1309
I25
aI210
aa(lp1310
I129
aI231
aI0
aI2
aI0
aI0
aa(lp1311
I116
aI41
aa(lp1312
I131
aI226
aI224
aa(lp1313
I131
aI194
aI116
aa(lp1314
I136
aI17
aa(lp1315
I65
aI198
aI1
aI0
aa(lp1316
I91
aa(lp1317
I93
aa(lp1318
I65
aI92
aa(lp1319
I65
aI93
aa(lp1320
I195
aasg13
(I21552
I22100
tp1321
sg14
I2
sg15
g16
ssS'_strtou32_or_err'
p1322
(dp1323
g7
g8
sg9
(lp1324
sg11
(lp1325
(lp1326
I85
aa(lp1327
I83
aa(lp1328
I72
aI137
aI245
aa(lp1329
I72
aI137
aI251
aa(lp1330
I72
aI131
aI236
aI8
aa(lp1331
I232
aI15
aI255
aI255
aI255
aa(lp1332
I186
aI255
aI255
aI255
aI255
aa(lp1333
I72
aI57
aI208
aa(lp1334
I119
aI7
aa(lp1335
I72
aI131
aI196
aI8
aa(lp1336
I91
aa(lp1337
I93
aa(lp1338
I195
aasg13
(tsg14
I3
sg15
g16
ssS'memcpy'
p1339
(dp1340
g7
g8
sg9
(lp1341
sg11
(lp1342
sg13
(tsg14
I3
sg15
g16
ssS'fileno'
p1343
(dp1344
g7
g8
sg9
(lp1345
sg11
(lp1346
sg13
(tsg14
I0
sg15
g16
ssS'strtox32_or_err'
p1347
(dp1348
g7
g8
sg9
(lp1349
sg11
(lp1350
(lp1351
I186
aI16
aI0
aI0
aI0
aa(lp1352
I233
aI246
aI247
aI255
aI255
aa(lp1353
I102
aI15
aI31
aI68
aI0
aI0
aasg13
(I20320
I20330
tp1354
sg14
I2
sg15
g16
ssS'fscanf'
p1355
(dp1356
g7
g8
sg9
(lp1357
sg11
(lp1358
sg13
(tsg14
I0
sg15
g16
ssS'__stack_chk_fail'
p1359
(dp1360
g7
g8
sg9
(lp1361
sg11
(lp1362
sg13
(tsg14
I0
sg15
g16
ssS'close_stdout'
p1363
(dp1364
g7
g8
sg9
(lp1365
sg11
(lp1366
(lp1367
I85
aa(lp1368
I83
aa(lp1369
I72
aI131
aI236
aI8
aa(lp1370
I72
aI139
aI45
aI107
aI101
aI32
aI0
aa(lp1371
I232
aI206
aI236
aI255
aI255
aa(lp1372
I199
aI0
aI0
aI0
aI0
aI0
aa(lp1373
I72
aI137
aI195
aa(lp1374
I72
aI137
aI239
aa(lp1375
I232
aI253
aI236
aI255
aI255
aa(lp1376
I133
aI192
aa(lp1377
I116
aI121
aa(lp1378
I139
aI3
aa(lp1379
I131
aI248
aI9
aa(lp1380
I117
aI50
aa(lp1381
I72
aI139
aI45
aI91
aI101
aI32
aI0
aa(lp1382
I199
aI3
aI0
aI0
aI0
aI0
aa(lp1383
I72
aI137
aI239
aa(lp1384
I232
aI221
aI236
aI255
aI255
aa(lp1385
I133
aI192
aa(lp1386
I15
aI132
aI157
aI0
aI0
aI0
aa(lp1387
I131
aI59
aI9
aa(lp1388
I117
aI64
aa(lp1389
I72
aI131
aI196
aI8
aa(lp1390
I91
aa(lp1391
I93
aa(lp1392
I195
aasg13
(I10928
I11247
tp1393
sg14
I0
sg15
g16
ssS'strcmp'
p1394
(dp1395
g7
g8
sg9
(lp1396
sg11
(lp1397
sg13
(tsg14
I0
sg15
g16
ssS'replay_get_stream_log'
p1398
(dp1399
g7
g8
sg9
(lp1400
sg11
(lp1401
sg13
(tsg14
I2
sg15
g16
ssS'strncmp'
p1402
(dp1403
g7
g8
sg9
(lp1404
sg11
(lp1405
sg13
(tsg14
I0
sg15
g16
ssS'warnx'
p1406
(dp1407
g7
g8
sg9
(lp1408
sg11
(lp1409
sg13
(tsg14
I0
sg15
g16
ssS'snprintf'
p1410
(dp1411
g7
g8
sg9
(lp1412
sg11
(lp1413
sg13
(tsg14
I3
sg15
g16
ssS'strrealloc'
p1414
(dp1415
g7
g8
sg9
(lp1416
sg11
(lp1417
sg13
(tsg14
I2
sg15
g16
ssS'fgetc'
p1418
(dp1419
g7
g8
sg9
(lp1420
sg11
(lp1421
sg13
(tsg14
I0
sg15
g16
ssS'memset'
p1422
(dp1423
g7
g8
sg9
(lp1424
sg11
(lp1425
sg13
(tsg14
I3
sg15
g16
ssS'replay_new_setup'
p1426
(dp1427
g7
g8
sg9
(lp1428
sg11
(lp1429
(lp1430
I72
aI131
aI236
aI8
aa(lp1431
I190
aI144
aI0
aI0
aI0
aa(lp1432
I191
aI1
aI0
aI0
aI0
aa(lp1433
I232
aI45
aI231
aI255
aI255
aa(lp1434
I72
aI133
aI192
aa(lp1435
I117
aI24
aa(lp1436
I72
aI141
aI53
aI188
aI56
aI0
aI0
aa(lp1437
I186
aI144
aI0
aI0
aI0
aa(lp1438
I191
aI1
aI0
aI0
aI0
aa(lp1439
I232
aI130
aI231
aI255
aI255
aa(lp1440
I102
aI144
aa(lp1441
I72
aI131
aI196
aI8
aa(lp1442
I195
aasg13
(I12928
I12981
tp1443
sg14
I0
sg15
g16
ssS'atexit'
p1444
(dp1445
g7
g8
sg9
(lp1446
sg11
(lp1447
(lp1448
I72
aI139
aI21
aI225
aI44
aI32
aI0
aa(lp1449
I49
aI246
aa(lp1450
I233
aI226
aI183
aI255
aI255
aasg13
(tsg14
I0
sg15
g16
ssS'replay_reset_step'
p1451
(dp1452
g7
g8
sg9
(lp1453
sg11
(lp1454
sg13
(tsg14
I1
sg15
g16
ssS'fgets'
p1455
(dp1456
g7
g8
sg9
(lp1457
sg11
(lp1458
sg13
(tsg14
I3
sg15
g16
ssS'close'
p1459
(dp1460
g7
g8
sg9
(lp1461
sg11
(lp1462
sg13
(tsg14
I0
sg15
g16
ssS'getgid'
p1463
(dp1464
g7
g8
sg9
(lp1465
sg11
(lp1466
sg13
(tsg14
I0
sg15
g16
ssS'replay_free_setup'
p1467
(dp1468
g7
g8
sg9
(lp1469
sg11
(lp1470
(lp1471
I72
aI133
aI255
aa(lp1472
I116
aI43
aa(lp1473
I83
aa(lp1474
I72
aI137
aI251
aa(lp1475
I72
aI139
aI63
aa(lp1476
I232
aI143
aI228
aI255
aI255
aa(lp1477
I72
aI139
aI123
aI32
aa(lp1478
I232
aI134
aI228
aI255
aI255
aa(lp1479
I72
aI139
aI123
aI40
aa(lp1480
I232
aI125
aI228
aI255
aI255
aa(lp1481
I72
aI137
aI223
aa(lp1482
I91
aa(lp1483
I233
aI116
aI228
aI255
aI255
aa(lp1484
I15
aI31
aI64
aI0
aa(lp1485
I243
aI195
aa(lp1486
I15
aI31
aI64
aI0
aa(lp1487
I102
aI46
aI15
aI31
aI132
aI0
aI0
aa(lp1488
I0
aI0
aI0
aasg13
(I12992
I13042
tp1489
sg14
I1
sg15
g16
ssS'strutils_set_exitcode'
p1490
(dp1491
g7
g8
sg9
(lp1492
sg11
(lp1493
(lp1494
I137
aI61
aI122
aI72
aI32
aI0
aa(lp1495
I195
aasg13
(I18320
I18327
tp1496
sg14
I1
sg15
g16
ssS'strchr'
p1497
(dp1498
g7
g8
sg9
(lp1499
sg11
(lp1500
sg13
(tsg14
I0
sg15
g16
ssS'replay_step_get_filename'
p1501
(dp1502
g7
g8
sg9
(lp1503
sg11
(lp1504
(lp1505
I72
aI133
aI255
aa(lp1506
I116
aI9
aa(lp1507
I72
aI139
aI71
aI48
aa(lp1508
I72
aI139
aI64
aI8
aa(lp1509
I195
aasg13
(I14368
I14417
tp1510
sg14
I1
sg15
g16
ssS'strtou64_or_err'
p1511
(dp1512
g7
g8
sg9
(lp1513
sg11
(lp1514
(lp1515
I186
aI10
aI0
aI0
aI0
aa(lp1516
I233
aI150
aI245
aI255
aI255
aa(lp1517
I102
aI15
aI31
aI68
aI0
aI0
aasg13
(I20704
I20714
tp1518
sg14
I2
sg15
g16
ssS'replay_associate_log'
p1519
(dp1520
g7
g8
sg9
(lp1521
sg11
(lp1522
(lp1523
I72
aI133
aI255
aa(lp1524
I65
aI86
aa(lp1525
I65
aI85
aa(lp1526
I65
aI84
aa(lp1527
I85
aa(lp1528
I83
aa(lp1529
I15
aI132
aI49
aI1
aI0
aI0
aa(lp1530
I72
aI133
aI246
aa(lp1531
I73
aI137
aI245
aa(lp1532
I15
aI132
aI99
aI1
aI0
aI0
aa(lp1533
I72
aI133
aI210
aa(lp1534
I73
aI137
aI212
aa(lp1535
I15
aI132
aI56
aI1
aI0
aI0
aa(lp1536
I72
aI141
aI53
aI217
aI44
aI0
aI0
aa(lp1537
I73
aI137
aI254
aa(lp1538
I72
aI137
aI215
aa(lp1539
I232
aI85
aI228
aI255
aI255
aa(lp1540
I72
aI133
aI192
aa(lp1541
I72
aI137
aI195
aa(lp1542
I117
aI10
aa(lp1543
I235
aI75
aa(lp1544
I15
aI31
aI0
aa(lp1545
I131
aI248
aI10
aa(lp1546
I116
aI13
aa(lp1547
I72
aI137
aI223
aa(lp1548
I232
aI171
aI226
aI255
aI255
aa(lp1549
I131
aI248
aI255
aa(lp1550
I117
aI238
aa(lp1551
I72
aI137
aI223
aa(lp1552
I232
aI30
aI225
aI255
aI255
aa(lp1553
I133
aI192
aa(lp1554
I117
aI42
aa(lp1555
I246
aI5
aI143
aI89
aI32
aI0
aI8
aa(lp1556
I15
aI133
aI141
aI0
aI0
aI0
aa(lp1557
I72
aI137
aI217
aa(lp1558
I76
aI137
aI226
aa(lp1559
I76
aI137
aI238
aa(lp1560
I76
aI137
aI247
aa(lp1561
I49
aI237
aa(lp1562
I232
aI26
aI245
aI255
aI255
aa(lp1563
I235
aI21
aa(lp1564
I15
aI31
aI132
aI0
aI0
aI0
aI0
aI0
aa(lp1565
I232
aI171
aI224
aI255
aI255
aa(lp1566
I139
aI40
aa(lp1567
I247
aI221
aa(lp1568
I133
aI237
aa(lp1569
I116
aI214
aa(lp1570
I246
aI5
aI88
aI89
aI32
aI0
aI8
aa(lp1571
I116
aI69
aa(lp1572
I232
aI21
aI225
aI255
aI255
aa(lp1573
I72
aI139
aI61
aI62
aI89
aI32
aI0
aa(lp1574
I72
aI141
aI21
aI72
aI46
aI0
aI0
aa(lp1575
I76
aI141
aI13
aI155
aI52
aI0
aI0
aa(lp1576
I76
aI141
aI5
aI45
aI46
aI0
aI0
aa(lp1577
I137
aI193
aa(lp1578
I190
aI1
aI0
aI0
aI0
aa(lp1579
I49
aI192
aa(lp1580
I232
aI11
aI228
aI255
aI255
aa(lp1581
I72
aI141
aI61
aI84
aI54
aI0
aI0
aa(lp1582
I137
aI233
aa(lp1583
I76
aI137
aI234
aa(lp1584
I76
aI137
aI230
aa(lp1585
I49
aI192
aa(lp1586
I232
aI181
aI245
aI255
aI255
aa(lp1587
I91
aa(lp1588
I137
aI232
aa(lp1589
I93
aa(lp1590
I65
aI92
aa(lp1591
I65
aI93
aa(lp1592
I65
aI94
aa(lp1593
I195
aasg13
(I13904
I14319
tp1594
sg14
I3
sg15
g16
ssS'exit'
p1595
(dp1596
g7
g8
sg9
(lp1597
sg11
(lp1598
sg13
(tsg14
I0
sg15
g16
ssS'strtos16_or_err'
p1599
(dp1600
g7
g8
sg9
(lp1601
sg11
(lp1602
(lp1603
I85
aa(lp1604
I83
aa(lp1605
I72
aI137
aI253
aa(lp1606
I72
aI137
aI243
aa(lp1607
I72
aI131
aI236
aI8
aa(lp1608
I232
aI159
aI255
aI255
aI255
aa(lp1609
I141
aI144
aI0
aI128
aI0
aI0
aa(lp1610
I129
aI250
aI255
aI255
aI0
aI0
aa(lp1611
I119
aI7
aa(lp1612
I72
aI131
aI196
aI8
aa(lp1613
I91
aa(lp1614
I93
aa(lp1615
I195
aasg13
(I20624
I20699
tp1616
sg14
I2
sg15
g16
ssS'__ctype_b_loc'
p1617
(dp1618
g7
g8
sg9
(lp1619
sg11
(lp1620
sg13
(tsg14
I0
sg15
g16
ssS'strspn'
p1621
(dp1622
g7
g8
sg9
(lp1623
sg11
(lp1624
sg13
(tsg14
I0
sg15
g16
ssS'string_to_bitarray'
p1625
(dp1626
g7
g8
sg9
(lp1627
sg11
(lp1628
(lp1629
I65
aI87
aa(lp1630
I65
aI86
aa(lp1631
I65
aI85
aa(lp1632
I65
aI84
aa(lp1633
I73
aI137
aI212
aa(lp1634
I85
aa(lp1635
I83
aa(lp1636
I72
aI131
aI236
aI8
aa(lp1637
I72
aI133
aI210
aa(lp1638
I15
aI148
aI194
aa(lp1639
I72
aI133
aI246
aa(lp1640
I15
aI148
aI192
aa(lp1641
I8
aI194
aa(lp1642
I15
aI133
aI211
aI0
aI0
aI0
aa(lp1643
I72
aI133
aI255
aa(lp1644
I72
aI137
aI251
aa(lp1645
I15
aI132
aI199
aI0
aI0
aI0
aa(lp1646
I15
aI182
aI7
aa(lp1647
I49
aI255
aa(lp1648
I73
aI137
aI246
aa(lp1649
I65
aI189
aI1
aI0
aI0
aI0
aa(lp1650
I132
aI192
aa(lp1651
I15
aI132
aI160
aI0
aI0
aI0
aa(lp1652
I72
aI133
aI255
aa(lp1653
I72
aI15
aI68
aI251
aa(lp1654
I72
aI131
aI195
aI1
aa(lp1655
I60
aI44
aa(lp1656
I72
aI141
aI107
aI255
aa(lp1657
I73
aI137
aI223
aa(lp1658
I15
aI182
aI19
aa(lp1659
I116
aI86
aa(lp1660
I132
aI210
aa(lp1661
I117
aI116
aa(lp1662
I72
aI137
aI221
aa(lp1663
I72
aI57
aI239
aa(lp1664
I115
aI85
aa(lp1665
I72
aI137
aI238
aa(lp1666
I72
aI41
aI254
aa(lp1667
I65
aI255
aI212
aa(lp1668
I133
aI192
aa(lp1669
I120
aI77
aa(lp1670
I137
aI194
aa(lp1671
I131
aI224
aI7
aa(lp1672
I68
aI137
aI238
aa(lp1673
I193
aI250
aI3
aa(lp1674
I137
aI193
aa(lp1675
I72
aI99
aI210
aa(lp1676
I211
aI230
aa(lp1677
I65
aI8
aI52
aI22
aa(lp1678
I72
aI133
aI237
aa(lp1679
I116
aI6
aa(lp1680
I128
aI125
aI0
aI0
aa(lp1681
I116
aI77
aa(lp1682
I15
aI182
aI3
aa(lp1683
I132
aI192
aa(lp1684
I116
aI70
aa(lp1685
I72
aI131
aI195
aI1
aa(lp1686
I60
aI44
aa(lp1687
I76
aI137
aI255
aa(lp1688
I72
aI141
aI107
aI255
aa(lp1689
I73
aI137
aI223
aa(lp1690
I15
aI182
aI19
aa(lp1691
I117
aI170
aa(lp1692
I132
aI210
aa(lp1693
I72
aI15
aI68
aI235
aa(lp1694
I72
aI57
aI239
aa(lp1695
I114
aI171
aa(lp1696
I184
aI255
aI255
aI255
aI255
aa(lp1697
I72
aI131
aI196
aI8
aa(lp1698
I91
aa(lp1699
I93
aa(lp1700
I65
aI92
aa(lp1701
I65
aI93
aa(lp1702
I65
aI94
aa(lp1703
I65
aI95
aa(lp1704
I195
aasg13
(I23216
I23471
tp1705
sg14
I3
sg15
g16
ssS'strnappend'
p1706
(dp1707
g7
g8
sg9
(lp1708
sg11
(lp1709
(lp1710
I65
aI87
aa(lp1711
I65
aI86
aa(lp1712
I65
aI85
aa(lp1713
I65
aI84
aa(lp1714
I73
aI137
aI245
aa(lp1715
I85
aa(lp1716
I83
aa(lp1717
I72
aI131
aI236
aI8
aa(lp1718
I72
aI133
aI255
aa(lp1719
I117
aI5
aa(lp1720
I72
aI133
aI246
aa(lp1721
I116
aI117
aa(lp1722
I72
aI133
aI255
aa(lp1723
I15
aI132
aI148
aI0
aI0
aI0
aa(lp1724
I77
aI133
aI237
aa(lp1725
I116
aI110
aa(lp1726
I73
aI137
aI212
aa(lp1727
I72
aI137
aI251
aa(lp1728
I232
aI92
aI185
aI255
aI255
aa(lp1729
I72
aI137
aI197
aa(lp1730
I72
aI247
aI208
aa(lp1731
I73
aI57
aI196
aa(lp1732
I119
aI113
aa(lp1733
I77
aI141
aI52
aI44
aa(lp1734
I73
aI141
aI126
aI1
aa(lp1735
I232
aI20
aI187
aI255
aI255
aa(lp1736
I72
aI133
aI192
aa(lp1737
I73
aI137
aI199
aa(lp1738
I116
aI34
aa(lp1739
I72
aI137
aI234
aa(lp1740
I72
aI137
aI222
aa(lp1741
I72
aI137
aI199
aa(lp1742
I232
aI190
aI186
aI255
aI255
aa(lp1743
I73
aI141
aI60
aI47
aa(lp1744
I76
aI137
aI226
aa(lp1745
I76
aI137
aI238
aa(lp1746
I232
aI175
aI186
aI255
aI255
aa(lp1747
I67
aI198
aI4
aI55
aI0
aa(lp1748
I72
aI131
aI196
aI8
aa(lp1749
I76
aI137
aI248
aa(lp1750
I91
aa(lp1751
I93
aa(lp1752
I65
aI92
aa(lp1753
I65
aI93
aa(lp1754
I65
aI94
aa(lp1755
I65
aI95
aa(lp1756
I195
aasg13
(tsg14
I3
sg15
g16
ssS'__printf_chk'
p1757
(dp1758
g7
g8
sg9
(lp1759
sg11
(lp1760
sg13
(tsg14
I0
sg15
g16
ssS'strtol_or_err'
p1761
(dp1762
g7
g8
sg9
(lp1763
sg11
(lp1764
(lp1765
I65
aI84
aa(lp1766
I85
aa(lp1767
I73
aI137
aI244
aa(lp1768
I83
aa(lp1769
I72
aI137
aI251
aa(lp1770
I72
aI131
aI236
aI16
aa(lp1771
I100
aI72
aI139
aI4
aI37
aI40
aI0
aa(lp1772
I0
aI0
aa(lp1773
I72
aI137
aI68
aI36
aI8
aa(lp1774
I49
aI192
aa(lp1775
I72
aI199
aI4
aI36
aI0
aI0
aI0
aI0
aa(lp1776
I232
aI149
aI197
aI255
aI255
aa(lp1777
I72
aI133
aI219
aa(lp1778
I199
aI0
aI0
aI0
aI0
aI0
aa(lp1779
I139
aI61
aI6
aI62
aI32
aI0
aa(lp1780
I116
aI5
aa(lp1781
I128
aI59
aI0
aa(lp1782
I117
aI23
aa(lp1783
I72
aI141
aI53
aI88
aI30
aI0
aI0
aa(lp1784
I72
aI137
aI217
aa(lp1785
I76
aI137
aI226
aa(lp1786
I49
aI192
aa(lp1787
I232
aI139
aI198
aI255
aI255
aa(lp1788
I15
aI31
aI0
aa(lp1789
I72
aI137
aI197
aa(lp1790
I186
aI10
aI0
aI0
aI0
aa(lp1791
I72
aI137
aI230
aa(lp1792
I72
aI137
aI223
aa(lp1793
I232
aI181
aI199
aI255
aI255
aa(lp1794
I139
aI85
aI0
aa(lp1795
I133
aI210
aa(lp1796
I117
aI46
aa(lp1797
I72
aI139
aI20
aI36
aa(lp1798
I72
aI57
aI218
aa(lp1799
I116
aI69
aa(lp1800
I72
aI133
aI210
aa(lp1801
I116
aI5
aa(lp1802
I128
aI58
aI0
aa(lp1803
I117
aI59
aa(lp1804
I72
aI139
aI76
aI36
aI8
aa(lp1805
I100
aI72
aI51
aI12
aI37
aI40
aI0
aa(lp1806
I0
aI0
aa(lp1807
I117
aI54
aa(lp1808
I72
aI131
aI196
aI16
aa(lp1809
I91
aa(lp1810
I93
aa(lp1811
I65
aI92
aa(lp1812
I195
aasg13
(I20944
I21152
tp1813
sg14
I2
sg15
g16
ssS'flush_standard_stream'
p1814
(dp1815
g7
g8
sg9
(lp1816
sg11
(lp1817
sg13
(tsg14
I1
sg15
g16
ssS'__vfprintf_chk'
p1818
(dp1819
g7
g8
sg9
(lp1820
sg11
(lp1821
sg13
(tsg14
I0
sg15
g16
ssS'strcspn'
p1822
(dp1823
g7
g8
sg9
(lp1824
sg11
(lp1825
sg13
(tsg14
I0
sg15
g16
ssS'strtotimeval_or_err'
p1826
(dp1827
g7
g8
sg9
(lp1828
sg11
(lp1829
(lp1830
I83
aa(lp1831
I72
aI137
aI243
aa(lp1832
I72
aI137
aI214
aa(lp1833
I232
aI4
aI253
aI255
aI255
aa(lp1834
I242
aI72
aI15
aI44
aI192
aa(lp1835
I102
aI15
aI239
aI201
aa(lp1836
I242
aI72
aI15
aI42
aI200
aa(lp1837
I72
aI137
aI3
aa(lp1838
I242
aI15
aI92
aI193
aa(lp1839
I242
aI15
aI89
aI5
aI143
aI28
aI0
aI0
aa(lp1840
I242
aI72
aI15
aI44
aI192
aa(lp1841
I72
aI137
aI67
aI8
aa(lp1842
I91
aa(lp1843
I195
aasg13
(I21488
I21540
tp1844
sg14
I3
sg15
g16
ssS'ferror'
p1845
(dp1846
g7
g8
sg9
(lp1847
sg11
(lp1848
sg13
(tsg14
I0
sg15
g16
ssS'strrem'
p1849
(dp1850
g7
g8
sg9
(lp1851
sg11
(lp1852
sg13
(tsg14
I2
sg15
g16
ssS'free'
p1853
(dp1854
g7
g8
sg9
(lp1855
sg11
(lp1856
sg13
(tsg14
I0
sg15
g16
ssS'__strtoul_internal'
p1857
(dp1858
g7
g8
sg9
(lp1859
sg11
(lp1860
sg13
(tsg14
I0
sg15
g16
ssS'replay_set_delay_min'
p1861
(dp1862
g7
g8
sg9
(lp1863
sg11
(lp1864
(lp1865
I72
aI139
aI6
aa(lp1866
I72
aI137
aI71
aI112
aa(lp1867
I72
aI139
aI70
aI8
aa(lp1868
I72
aI137
aI71
aI120
aa(lp1869
I49
aI192
aa(lp1870
I195
aasg13
(I13184
I13202
tp1871
sg14
I2
sg15
g16
ssS'strtox64_or_err'
p1872
(dp1873
g7
g8
sg9
(lp1874
sg11
(lp1875
(lp1876
I186
aI16
aI0
aI0
aI0
aa(lp1877
I233
aI134
aI245
aI255
aI255
aa(lp1878
I102
aI15
aI31
aI68
aI0
aI0
aasg13
(I20720
I20730
tp1879
sg14
I2
sg15
g16
ssS'strcspn_escaped'
p1880
(dp1881
g7
g8
sg9
(lp1882
sg11
(lp1883
(lp1884
I65
aI85
aa(lp1885
I65
aI84
aa(lp1886
I73
aI137
aI244
aa(lp1887
I85
aa(lp1888
I83
aa(lp1889
I49
aI192
aa(lp1890
I72
aI131
aI236
aI8
aa(lp1891
I15
aI190
aI55
aa(lp1892
I64
aI132
aI246
aa(lp1893
I116
aI93
aa(lp1894
I72
aI137
aI253
aa(lp1895
I49
aI219
aa(lp1896
I15
aI31
aI64
aI0
aa(lp1897
I64
aI128
aI254
aI92
aa(lp1898
I116
aI50
aa(lp1899
I72
aI99
aI195
aa(lp1900
I76
aI141
aI108
aI5
aI1
aa(lp1901
I76
aI137
aI231
aa(lp1902
I232
aI154
aI210
aI255
aI255
aa(lp1903
I72
aI133
aI192
aa(lp1904
I117
aI69
aa(lp1905
I65
aI15
aI190
aI117
aI0
aa(lp1906
I131
aI195
aI1
aa(lp1907
I64
aI132
aI246
aa(lp1908
I116
aI56
aa(lp1909
I73
aI131
aI197
aI1
aa(lp1910
I64
aI128
aI254
aI92
aa(lp1911
I117
aI220
aa(lp1912
I102
aI15
aI31
aI68
aI0
aI0
aa(lp1913
I141
aI67
aI1
aa(lp1914
I72
aI152
aa(lp1915
I128
aI124
aI5
aI0
aI0
aa(lp1916
I116
aI28
aa(lp1917
I131
aI195
aI2
aa(lp1918
I72
aI99
aI195
aa(lp1919
I15
aI190
aI116
aI5
aI0
aa(lp1920
I64
aI132
aI246
aa(lp1921
I117
aI172
aa(lp1922
I72
aI131
aI196
aI8
aa(lp1923
I91
aa(lp1924
I93
aa(lp1925
I65
aI92
aa(lp1926
I65
aI93
aa(lp1927
I195
aasg13
(I17904
I18046
tp1928
sg14
I2
sg15
g16
ssS'__strtol_internal'
p1929
(dp1930
g7
g8
sg9
(lp1931
sg11
(lp1932
sg13
(tsg14
I0
sg15
g16
ssS'strtosize_or_err'
p1933
(dp1934
g7
g8
sg9
(lp1935
sg11
(lp1936
(lp1937
I85
aa(lp1938
I83
aa(lp1939
I72
aI137
aI245
aa(lp1940
I72
aI137
aI251
aa(lp1941
I72
aI131
aI236
aI24
aa(lp1942
I72
aI137
aI230
aa(lp1943
I100
aI72
aI139
aI4
aI37
aI40
aI0
aa(lp1944
I0
aI0
aa(lp1945
I72
aI137
aI68
aI36
aI8
aa(lp1946
I49
aI192
aa(lp1947
I232
aI204
aI248
aI255
aI255
aa(lp1948
I133
aI192
aa(lp1949
I117
aI32
aa(lp1950
I72
aI139
aI84
aI36
aI8
aa(lp1951
I100
aI72
aI51
aI20
aI37
aI40
aI0
aa(lp1952
I0
aI0
aa(lp1953
I72
aI139
aI4
aI36
aa(lp1954
I117
aI57
aa(lp1955
I72
aI131
aI196
aI24
aa(lp1956
I91
aa(lp1957
I93
aa(lp1958
I195
aasg13
(I21360
I21482
tp1959
sg14
I2
sg15
g16
ssS'replay_get_timing_line'
p1960
(dp1961
g7
g8
sg9
(lp1962
sg11
(lp1963
(lp1964
I72
aI133
aI255
aa(lp1965
I116
aI4
aa(lp1966
I139
aI71
aI92
aa(lp1967
I195
aasg13
(I13856
I13900
tp1968
sg14
I1
sg15
g16
ssS'__builtin_fputc'
p1969
(dp1970
g7
g8
sg9
(lp1971
sg11
(lp1972
sg13
(tsg14
I0
sg15
g16
ssS'__vasprintf_chk'
p1973
(dp1974
g7
g8
sg9
(lp1975
sg11
(lp1976
sg13
(tsg14
I0
sg15
g16
ssS'strtou16_or_err'
p1977
(dp1978
g7
g8
sg9
(lp1979
sg11
(lp1980
(lp1981
I85
aa(lp1982
I83
aa(lp1983
I186
aI10
aI0
aI0
aI0
aa(lp1984
I72
aI137
aI251
aa(lp1985
I72
aI137
aI245
aa(lp1986
I72
aI131
aI236
aI8
aa(lp1987
I232
aI90
aI248
aI255
aI255
aa(lp1988
I61
aI255
aI255
aI0
aI0
aa(lp1989
I119
aI7
aa(lp1990
I72
aI131
aI196
aI8
aa(lp1991
I91
aa(lp1992
I93
aa(lp1993
I195
aasg13
(I20208
I20255
tp1994
sg14
I2
sg15
g16
ssS'strtoul_or_err'
p1995
(dp1996
g7
g8
sg9
(lp1997
sg11
(lp1998
(lp1999
I65
aI84
aa(lp2000
I85
aa(lp2001
I73
aI137
aI244
aa(lp2002
I83
aa(lp2003
I72
aI137
aI251
aa(lp2004
I72
aI131
aI236
aI16
aa(lp2005
I100
aI72
aI139
aI4
aI37
aI40
aI0
aa(lp2006
I0
aI0
aa(lp2007
I72
aI137
aI68
aI36
aI8
aa(lp2008
I49
aI192
aa(lp2009
I72
aI199
aI4
aI36
aI0
aI0
aI0
aI0
aa(lp2010
I232
aI197
aI196
aI255
aI255
aa(lp2011
I72
aI133
aI219
aa(lp2012
I199
aI0
aI0
aI0
aI0
aI0
aa(lp2013
I139
aI61
aI54
aI61
aI32
aI0
aa(lp2014
I116
aI5
aa(lp2015
I128
aI59
aI0
aa(lp2016
I117
aI23
aa(lp2017
I72
aI141
aI53
aI136
aI29
aI0
aI0
aa(lp2018
I72
aI137
aI217
aa(lp2019
I76
aI137
aI226
aa(lp2020
I49
aI192
aa(lp2021
I232
aI187
aI197
aI255
aI255
aa(lp2022
I15
aI31
aI0
aa(lp2023
I72
aI137
aI197
aa(lp2024
I186
aI10
aI0
aI0
aI0
aa(lp2025
I72
aI137
aI230
aa(lp2026
I72
aI137
aI223
aa(lp2027
I232
aI245
aI199
aI255
aI255
aa(lp2028
I139
aI85
aI0
aa(lp2029
I133
aI210
aa(lp2030
I117
aI46
aa(lp2031
I72
aI139
aI20
aI36
aa(lp2032
I72
aI57
aI218
aa(lp2033
I116
aI69
aa(lp2034
I72
aI133
aI210
aa(lp2035
I116
aI5
aa(lp2036
I128
aI58
aI0
aa(lp2037
I117
aI59
aa(lp2038
I72
aI139
aI76
aI36
aI8
aa(lp2039
I100
aI72
aI51
aI12
aI37
aI40
aI0
aa(lp2040
I0
aI0
aa(lp2041
I117
aI54
aa(lp2042
I72
aI131
aI196
aI16
aa(lp2043
I91
aa(lp2044
I93
aa(lp2045
I65
aI92
aa(lp2046
I195
aasg13
(I21152
I21360
tp2047
sg14
I2
sg15
g16
ssS'_exit'
p2048
(dp2049
g7
g8
sg9
(lp2050
sg11
(lp2051
sg13
(tsg14
I0
sg15
g16
ssS'ignore_line'
p2052
(dp2053
g7
g8
sg9
(lp2054
sg11
(lp2055
sg13
(tsg14
I1
sg15
g16
ssS'replay_new_log'
p2056
(dp2057
g7
g8
sg9
(lp2058
sg11
(lp2059
(lp2060
I72
aI133
aI255
aa(lp2061
I65
aI86
aa(lp2062
I65
aI85
aa(lp2063
I65
aI84
aa(lp2064
I85
aa(lp2065
I83
aa(lp2066
I15
aI132
aI194
aI0
aI0
aI0
aa(lp2067
I72
aI133
aI246
aa(lp2068
I73
aI137
aI244
aa(lp2069
I15
aI132
aI151
aI0
aI0
aI0
aa(lp2070
I72
aI133
aI210
aa(lp2071
I73
aI137
aI213
aa(lp2072
I116
aI112
aa(lp2073
I72
aI139
aI71
aI8
aa(lp2074
I72
aI137
aI251
aa(lp2075
I72
aI139
aI63
aa(lp2076
I73
aI137
aI206
aa(lp2077
I72
aI141
aI104
aI1
aa(lp2078
I72
aI193
aI229
aI5
aa(lp2079
I72
aI137
aI238
aa(lp2080
I232
aI110
aI238
aI255
aI255
aa(lp2081
I72
aI133
aI192
aa(lp2082
I117
aI5
aa(lp2083
I72
aI133
aI237
aa(lp2084
I117
aI53
aa(lp2085
I72
aI139
aI115
aI8
aa(lp2086
I72
aI137
aI3
aa(lp2087
I72
aI137
aI242
aa(lp2088
I72
aI131
aI198
aI1
aa(lp2089
I72
aI193
aI226
aI5
aa(lp2090
I72
aI137
aI115
aI8
aa(lp2091
I72
aI1
aI208
aa(lp2092
I72
aI199
aI64
aI24
aI0
aI0
aI0
aI0
aa(lp2093
I76
aI137
aI104
aI8
aa(lp2094
I76
aI137
aI32
aa(lp2095
I76
aI137
aI112
aI16
aa(lp2096
I91
aa(lp2097
I93
aa(lp2098
I65
aI92
aa(lp2099
I65
aI93
aa(lp2100
I65
aI94
aa(lp2101
I195
aasg13
(I11248
I11490
tp2102
sg14
I4
sg15
g16
ssS'setlocale'
p2103
(dp2104
g7
g8
sg9
(lp2105
sg11
(lp2106
sg13
(tsg14
I0
sg15
g16
ssS'realloc'
p2107
(dp2108
g7
g8
sg9
(lp2109
sg11
(lp2110
sg13
(tsg14
I0
sg15
g16
ssS'isxdigit_strend'
p2111
(dp2112
g7
g8
sg9
(lp2113
sg11
(lp2114
(lp2115
I72
aI133
aI255
aa(lp2116
I65
aI84
aa(lp2117
I73
aI137
aI244
aa(lp2118
I85
aa(lp2119
I83
aa(lp2120
I116
aI84
aa(lp2121
I15
aI182
aI31
aa(lp2122
I72
aI137
aI253
aa(lp2123
I132
aI219
aa(lp2124
I116
aI89
aa(lp2125
I232
aI69
aI206
aI255
aI255
aa(lp2126
I72
aI137
aI234
aa(lp2127
I72
aI139
aI0
aa(lp2128
I235
aI18
aa(lp2129
I15
aI31
aI68
aI0
aI0
aa(lp2130
I72
aI131
aI194
aI1
aa(lp2131
I116
aI50
aa(lp2132
I15
aI182
aI26
aa(lp2133
I132
aI219
aa(lp2134
I116
aI7
aa(lp2135
I246
aI68
aI88
aI1
aI16
aa(lp2136
I117
aI236
aa(lp2137
I77
aI133
aI228
aa(lp2138
I116
aI4
aa(lp2139
I73
aI137
aI20
aI36
aa(lp2140
I72
aI57
aI213
aa(lp2141
I115
aI10
aa(lp2142
I128
aI58
aI0
aa(lp2143
I184
aI1
aI0
aI0
aI0
aa(lp2144
I116
aI2
aa(lp2145
I49
aI192
aa(lp2146
I91
aa(lp2147
I93
aa(lp2148
I65
aI92
aa(lp2149
I195
aasg13
(I19696
I19818
tp2150
sg14
I2
sg15
g16
ssS'errx'
p2151
(dp2152
g7
g8
sg9
(lp2153
sg11
(lp2154
sg13
(tsg14
I0
sg15
g16
ssS'replay_set_default_type'
p2155
(dp2156
g7
g8
sg9
(lp2157
sg11
(lp2158
(lp2159
I72
aI133
aI255
aa(lp2160
I116
aI10
aa(lp2161
I64
aI136
aI183
aI136
aI0
aI0
aI0
aa(lp2162
I49
aI192
aa(lp2163
I195
aasg13
(I13056
I13106
tp2164
sg14
I2
sg15
g16
ssS'printf'
p2165
(dp2166
g7
g8
sg9
(lp2167
sg11
(lp2168
sg13
(tsg14
I1
sg15
g16
ssS'parse_switch'
p2169
(dp2170
g7
g8
sg9
(lp2171
sg11
(lp2172
(lp2173
I65
aI85
aa(lp2174
I65
aI84
aa(lp2175
I73
aI137
aI244
aa(lp2176
I85
aa(lp2177
I83
aa(lp2178
I72
aI137
aI251
aa(lp2179
I72
aI131
aI236
aI88
aa(lp2180
I100
aI72
aI139
aI4
aI37
aI40
aI0
aa(lp2181
I0
aI0
aa(lp2182
I72
aI137
aI68
aI36
aI24
aa(lp2183
I49
aI192
aa(lp2184
I72
aI141
aI132
aI36
aI128
aI0
aI0
aI0
aa(lp2185
I72
aI137
aI84
aI36
aI48
aa(lp2186
I72
aI137
aI76
aI36
aI56
aa(lp2187
I76
aI137
aI68
aI36
aI64
aa(lp2188
I76
aI137
aI76
aI36
aI72
aa(lp2189
I72
aI137
aI68
aI36
aI8
aa(lp2190
I72
aI141
aI68
aI36
aI32
aa(lp2191
I199
aI4
aI36
aI16
aI0
aI0
aI0
aa(lp2192
I72
aI137
aI68
aI36
aI16
aa(lp2193
I72
aI137
aI197
aa(lp2194
I15
aI31
aI0
aa(lp2195
I139
aI4
aI36
aa(lp2196
I131
aI248
aI47
aa(lp2197
I119
aI74
aa(lp2198
I137
aI193
aa(lp2199
I141
aI80
aI8
aa(lp2200
I72
aI139
aI116
aI13
aI0
aa(lp2201
I137
aI20
aI36
aa(lp2202
I72
aI133
aI246
aa(lp2203
I116
aI30
aa(lp2204
I131
aI250
aI47
aa(lp2205
I15
aI135
aI161
aI0
aI0
aI0
aa(lp2206
I131
aI192
aI16
aa(lp2207
I72
aI1
aI234
aa(lp2208
I137
aI4
aI36
aa(lp2209
I235
aI70
aa(lp2210
I102
aI46
aI15
aI31
aI132
aI0
aI0
aa(lp2211
I0
aI0
aI0
aa(lp2212
I139
aI61
aI10
aI66
aI32
aI0
aa(lp2213
I72
aI141
aI53
aI99
aI34
aI0
aI0
aa(lp2214
I72
aI137
aI217
aa(lp2215
I76
aI137
aI226
aa(lp2216
I49
aI192
aa(lp2217
I232
aI150
aI202
aI255
aI255
aa(lp2218
I72
aI139
aI84
aI36
aI8
aa(lp2219
I72
aI137
aI208
aa(lp2220
I72
aI131
aI194
aI8
aa(lp2221
I72
aI139
aI48
aa(lp2222
I72
aI137
aI84
aI36
aI8
aa(lp2223
I72
aI133
aI246
aa(lp2224
I116
aI205
aa(lp2225
I72
aI141
aI66
aI8
aa(lp2226
I72
aI137
aI68
aI36
aI8
aa(lp2227
I76
aI139
aI42
aa(lp2228
I77
aI133
aI237
aa(lp2229
I116
aI188
aa(lp2230
I72
aI137
aI223
aa(lp2231
I232
aI132
aI203
aI255
aI255
aa(lp2232
I133
aI192
aa(lp2233
I116
aI48
aa(lp2234
I76
aI137
aI238
aa(lp2235
I72
aI137
aI223
aa(lp2236
I232
aI117
aI203
aI255
aI255
aa(lp2237
I133
aI192
aa(lp2238
I15
aI133
aI101
aI255
aI255
aI255
aa(lp2239
I72
aI139
aI124
aI36
aI24
aa(lp2240
I100
aI72
aI51
aI60
aI37
aI40
aI0
aa(lp2241
I0
aI0
aa(lp2242
I117
aI20
aa(lp2243
I72
aI131
aI196
aI88
aa(lp2244
I91
aa(lp2245
I93
aa(lp2246
I65
aI92
aa(lp2247
I65
aI93
aa(lp2248
I195
aasg13
(I19824
I20115
tp2249
sg14
I2
sg15
g16
ssS'fopen'
p2250
(dp2251
g7
g8
sg9
(lp2252
sg11
(lp2253
sg13
(tsg14
I0
sg15
g16
ssS'parse_range'
p2254
(dp2255
g7
g8
sg9
(lp2256
sg11
(lp2257
(lp2258
I65
aI87
aa(lp2259
I65
aI86
aa(lp2260
I65
aI85
aa(lp2261
I65
aI84
aa(lp2262
I85
aa(lp2263
I83
aa(lp2264
I72
aI131
aI236
aI24
aa(lp2265
I100
aI72
aI139
aI4
aI37
aI40
aI0
aa(lp2266
I0
aI0
aa(lp2267
I72
aI137
aI68
aI36
aI8
aa(lp2268
I49
aI192
aa(lp2269
I72
aI133
aI255
aa(lp2270
I72
aI199
aI4
aI36
aI0
aI0
aI0
aI0
aa(lp2271
I116
aI112
aa(lp2272
I73
aI137
aI247
aa(lp2273
I72
aI137
aI213
aa(lp2274
I72
aI137
aI251
aa(lp2275
I65
aI137
aI15
aa(lp2276
I137
aI77
aI0
aa(lp2277
I65
aI137
aI205
aa(lp2278
I232
aI190
aI186
aI255
aI255
aa(lp2279
I199
aI0
aI0
aI0
aI0
aI0
aa(lp2280
I128
aI59
aI58
aa(lp2281
I73
aI137
aI198
aa(lp2282
I116
aI112
aa(lp2283
I73
aI137
aI228
aa(lp2284
I186
aI10
aI0
aI0
aI0
aa(lp2285
I72
aI137
aI223
aa(lp2286
I76
aI137
aI230
aa(lp2287
I232
aI253
aI188
aI255
aI255
aa(lp2288
I65
aI137
aI7
aa(lp2289
I137
aI69
aI0
aa(lp2290
I65
aI139
aI6
aa(lp2291
I133
aI192
aa(lp2292
I15
aI133
aI188
aI0
aI0
aI0
aa(lp2293
I72
aI139
aI60
aI36
aa(lp2294
I72
aI57
aI223
aa(lp2295
I15
aI132
aI175
aI0
aI0
aI0
aa(lp2296
I72
aI133
aI255
aa(lp2297
I15
aI132
aI166
aI0
aI0
aI0
aa(lp2298
I15
aI182
aI23
aa(lp2299
I128
aI250
aI58
aa(lp2300
I15
aI132
aI138
aI0
aI0
aI0
aa(lp2301
I128
aI250
aI45
aa(lp2302
I116
aI101
aa(lp2303
I49
aI192
aa(lp2304
I72
aI139
aI76
aI36
aI8
aa(lp2305
I100
aI72
aI51
aI12
aI37
aI40
aI0
aa(lp2306
I0
aI0
aa(lp2307
I15
aI133
aI137
aI0
aI0
aI0
aa(lp2308
I72
aI131
aI196
aI24
aa(lp2309
I91
aa(lp2310
I93
aa(lp2311
I65
aI92
aa(lp2312
I65
aI93
aa(lp2313
I65
aI94
aa(lp2314
I65
aI95
aa(lp2315
I195
aasg13
(I23696
I24015
tp2316
sg14
I4
sg15
g16
ssS'ul_debug'
p2317
(dp2318
g7
g8
sg9
(lp2319
sg11
(lp2320
(lp2321
I72
aI129
aI236
aI216
aI0
aI0
aI0
aa(lp2322
I132
aI192
aa(lp2323
I72
aI137
aI116
aI36
aI40
aa(lp2324
I72
aI137
aI84
aI36
aI48
aa(lp2325
I72
aI137
aI76
aI36
aI56
aa(lp2326
I76
aI137
aI68
aI36
aI64
aa(lp2327
I76
aI137
aI76
aI36
aI72
aa(lp2328
I116
aI55
aa(lp2329
I15
aI41
aI68
aI36
aI80
aa(lp2330
I15
aI41
aI76
aI36
aI96
aa(lp2331
I15
aI41
aI84
aI36
aI112
aa(lp2332
I15
aI41
aI156
aI36
aI128
aI0
aI0
aI0
aa(lp2333
I15
aI41
aI164
aI36
aI144
aI0
aI0
aI0
aa(lp2334
I15
aI41
aI172
aI36
aI160
aI0
aI0
aI0
aa(lp2335
I15
aI41
aI180
aI36
aI176
aI0
aI0
aI0
aa(lp2336
I15
aI41
aI188
aI36
aI192
aI0
aI0
aI0
aa(lp2337
I100
aI72
aI139
aI4
aI37
aI40
aI0
aa(lp2338
I0
aI0
aa(lp2339
I72
aI137
aI68
aI36
aI24
aa(lp2340
I49
aI192
aa(lp2341
I72
aI141
aI132
aI36
aI224
aI0
aI0
aI0
aa(lp2342
I72
aI137
aI250
aa(lp2343
I72
aI137
aI225
aa(lp2344
I190
aI1
aI0
aI0
aI0
aa(lp2345
I72
aI139
aI61
aI203
aI98
aI32
aI0
aa(lp2346
I72
aI137
aI68
aI36
aI8
aa(lp2347
I72
aI141
aI68
aI36
aI32
aa(lp2348
I199
aI4
aI36
aI8
aI0
aI0
aI0
aa(lp2349
I199
aI68
aI36
aI4
aI48
aI0
aI0
aI0
aa(lp2350
I72
aI137
aI68
aI36
aI16
aa(lp2351
I232
aI232
aI233
aI255
aI255
aa(lp2352
I72
aI139
aI53
aI161
aI98
aI32
aI0
aa(lp2353
I191
aI10
aI0
aI0
aI0
aa(lp2354
I232
aI215
aI235
aI255
aI255
aa(lp2355
I72
aI139
aI68
aI36
aI24
aa(lp2356
I100
aI72
aI51
aI4
aI37
aI40
aI0
aa(lp2357
I0
aI0
aa(lp2358
I117
aI8
aa(lp2359
I72
aI129
aI196
aI216
aI0
aI0
aI0
aa(lp2360
I195
aasg13
(I11504
I11718
tp2361
sg14
I1
sg15
g16
ssS'next_path_segment'
p2362
(dp2363
g7
g8
sg9
(lp2364
sg11
(lp2365
(lp2366
I72
aI133
aI255
aa(lp2367
I72
aI199
aI6
aI0
aI0
aI0
aI0
aa(lp2368
I117
aI16
aa(lp2369
I235
aI98
aa(lp2370
I102
aI144
aa(lp2371
I128
aI127
aI1
aI47
aa(lp2372
I117
aI106
aa(lp2373
I72
aI131
aI199
aI1
aa(lp2374
I116
aI84
aa(lp2375
I15
aI182
aI23
aa(lp2376
I128
aI250
aI47
aa(lp2377
I116
aI236
aa(lp2378
I132
aI210
aa(lp2379
I72
aI137
aI248
aa(lp2380
I116
aI69
aa(lp2381
I72
aI199
aI6
aI1
aI0
aI0
aI0
aa(lp2382
I15
aI182
aI87
aI1
aa(lp2383
I128
aI250
aI47
aa(lp2384
I116
aI41
aa(lp2385
I132
aI210
aa(lp2386
I116
aI37
aa(lp2387
I186
aI2
aI0
aI0
aI0
aa(lp2388
I235
aI15
aa(lp2389
I102
aI46
aI15
aI31
aI132
aI0
aI0
aa(lp2390
I0
aI0
aI0
aa(lp2391
I128
aI249
aI47
aa(lp2392
I116
aI35
aa(lp2393
I72
aI137
aI22
aa(lp2394
I15
aI182
aI12
aI23
aa(lp2395
I72
aI131
aI194
aI1
aa(lp2396
I132
aI201
aa(lp2397
I117
aI236
aa(lp2398
I243
aI195
aa(lp2399
I102
aI46
aI15
aI31
aI132
aI0
aI0
aa(lp2400
I0
aI0
aI0
aa(lp2401
I49
aI192
aa(lp2402
I195
aasg13
(I17760
I17893
tp2403
sg14
I2
sg15
g16
ssS'read_multistream_step'
p2404
(dp2405
g7
g8
sg9
(lp2406
sg11
(lp2407
(lp2408
I65
aI86
aa(lp2409
I65
aI85
aa(lp2410
I65
aI84
aa(lp2411
I85
aa(lp2412
I73
aI137
aI244
aa(lp2413
I83
aa(lp2414
I72
aI137
aI253
aa(lp2415
I72
aI129
aI236
aI48
aI32
aI0
aI0
aa(lp2416
I100
aI72
aI139
aI4
aI37
aI40
aI0
aa(lp2417
I0
aI0
aa(lp2418
I72
aI137
aI132
aI36
aI40
aI32
aI0
aI0
aa(lp2419
I49
aI192
aa(lp2420
I128
aI250
aI73
aa(lp2421
I15
aI132
aI71
aI2
aI0
aI0
aa(lp2422
I15
aI142
aI137
aI0
aI0
aI0
aa(lp2423
I128
aI250
aI79
aa(lp2424
I15
aI132
aI56
aI2
aI0
aI0
aa(lp2425
I128
aI250
aI83
aa(lp2426
I15
aI132
aI124
aI0
aI0
aI0
aa(lp2427
I49
aI219
aa(lp2428
I246
aI5
aI42
aI98
aI32
aI0
aI4
aa(lp2429
I116
aI63
aa(lp2430
I232
aI231
aI233
aI255
aI255
aa(lp2431
I72
aI139
aI61
aI16
aI98
aI32
aI0
aa(lp2432
I76
aI141
aI13
aI6
aI55
aI0
aI0
aa(lp2433
I76
aI141
aI5
aI6
aI55
aI0
aI0
aa(lp2434
I72
aI141
aI21
aI12
aI55
aI0
aI0
aa(lp2435
I137
aI193
aa(lp2436
I190
aI1
aI0
aI0
aI0
aa(lp2437
I49
aI192
aa(lp2438
I232
aI221
aI236
aI255
aI255
aa(lp2439
I72
aI141
aI61
aI126
aI62
aI0
aI0
aa(lp2440
I137
aI222
aa(lp2441
I49
aI192
aa(lp2442
I232
aI141
aI254
aI255
aI255
aa(lp2443
I72
aI139
aI188
aI36
aI40
aI32
aI0
aI0
aa(lp2444
I100
aI72
aI51
aI60
aI37
aI40
aI0
aa(lp2445
I0
aI0
aa(lp2446
I137
aI216
aa(lp2447
I15
aI133
aI150
aI2
aI0
aI0
aa(lp2448
I72
aI129
aI196
aI48
aI32
aI0
aI0
aa(lp2449
I91
aa(lp2450
I93
aa(lp2451
I65
aI92
aa(lp2452
I65
aI93
aa(lp2453
I65
aI94
aa(lp2454
I195
aasg13
(I11728
I12603
tp2455
sg14
I3
sg15
g16
ssS'parse_size'
p2456
(dp2457
g7
g8
sg9
(lp2458
sg11
(lp2459
(lp2460
I65
aI87
aa(lp2461
I65
aI86
aa(lp2462
I73
aI137
aI255
aa(lp2463
I65
aI85
aa(lp2464
I65
aI84
aa(lp2465
I73
aI137
aI212
aa(lp2466
I85
aa(lp2467
I83
aa(lp2468
I72
aI137
aI245
aa(lp2469
I72
aI131
aI236
aI72
aa(lp2470
I72
aI199
aI6
aI0
aI0
aI0
aI0
aa(lp2471
I100
aI72
aI139
aI4
aI37
aI40
aI0
aa(lp2472
I0
aI0
aa(lp2473
I72
aI137
aI68
aI36
aI56
aa(lp2474
I49
aI192
aa(lp2475
I232
aI189
aI207
aI255
aI255
aa(lp2476
I77
aI133
aI255
aa(lp2477
I72
aI137
aI195
aa(lp2478
I116
aI61
aa(lp2479
I69
aI15
aI182
aI55
aa(lp2480
I69
aI132
aI246
aa(lp2481
I116
aI52
aa(lp2482
I232
aI103
aI211
aI255
aI255
aa(lp2483
I73
aI137
aI197
aa(lp2484
I72
aI139
aI8
aa(lp2485
I76
aI137
aI248
aa(lp2486
I235
aI12
aa(lp2487
I15
aI31
aI64
aI0
aa(lp2488
I72
aI131
aI192
aI1
aa(lp2489
I68
aI15
aI182
aI48
aa(lp2490
I65
aI15
aI182
aI214
aa(lp2491
I246
aI68
aI81
aI1
aI32
aa(lp2492
I117
aI237
aa(lp2493
I65
aI128
aI254
aI45
aa(lp2494
I117
aI63
aa(lp2495
I15
aI31
aI128
aI0
aI0
aI0
aI0
aa(lp2496
I184
aI22
aI0
aI0
aI0
aa(lp2497
I185
aI234
aI255
aI255
aI255
aa(lp2498
I137
aI3
aa(lp2499
I72
aI139
aI124
aI36
aI56
aa(lp2500
I100
aI72
aI51
aI60
aI37
aI40
aI0
aa(lp2501
I0
aI0
aa(lp2502
I137
aI200
aa(lp2503
I15
aI133
aI19
aI4
aI0
aI0
aa(lp2504
I72
aI131
aI196
aI72
aa(lp2505
I91
aa(lp2506
I93
aa(lp2507
I65
aI92
aa(lp2508
I65
aI93
aa(lp2509
I65
aI94
aa(lp2510
I65
aI95
aa(lp2511
I195
aasg13
(I18336
I19538
tp2512
sg14
I3
sg15
g16
ssS'__builtin_putchar'
p2513
(dp2514
g7
g8
sg9
(lp2515
sg11
(lp2516
sg13
(tsg14
I0
sg15
g16
ssS'nanosleep'
p2517
(dp2518
g7
g8
sg9
(lp2519
sg11
(lp2520
sg13
(tsg14
I0
sg15
g16
ssS'__fgets_alias'
p2521
(dp2522
g7
g8
sg9
(lp2523
sg11
(lp2524
sg13
(tsg14
I0
sg15
g16
ssS'_strtou64_or_err'
p2525
(dp2526
g7
g8
sg9
(lp2527
sg11
(lp2528
(lp2529
I65
aI85
aa(lp2530
I65
aI84
aa(lp2531
I65
aI137
aI213
aa(lp2532
I85
aa(lp2533
I83
aa(lp2534
I72
aI137
aI251
aa(lp2535
I73
aI137
aI244
aa(lp2536
I72
aI131
aI236
aI24
aa(lp2537
I100
aI72
aI139
aI4
aI37
aI40
aI0
aa(lp2538
I0
aI0
aa(lp2539
I72
aI137
aI68
aI36
aI8
aa(lp2540
I49
aI192
aa(lp2541
I72
aI199
aI4
aI36
aI0
aI0
aI0
aI0
aa(lp2542
I232
aI224
aI208
aI255
aI255
aa(lp2543
I72
aI133
aI219
aa(lp2544
I199
aI0
aI0
aI0
aI0
aI0
aa(lp2545
I139
aI61
aI81
aI73
aI32
aI0
aa(lp2546
I116
aI5
aa(lp2547
I128
aI59
aI0
aa(lp2548
I117
aI26
aa(lp2549
I72
aI141
aI53
aI163
aI41
aI0
aI0
aa(lp2550
I72
aI137
aI217
aa(lp2551
I76
aI137
aI226
aa(lp2552
I49
aI192
aa(lp2553
I232
aI214
aI209
aI255
aI255
aa(lp2554
I102
aI15
aI31
aI68
aI0
aI0
aa(lp2555
I72
aI137
aI197
aa(lp2556
I49
aI201
aa(lp2557
I68
aI137
aI234
aa(lp2558
I72
aI137
aI230
aa(lp2559
I72
aI137
aI223
aa(lp2560
I232
aI45
aI210
aI255
aI255
aa(lp2561
I139
aI85
aI0
aa(lp2562
I133
aI210
aa(lp2563
I117
aI54
aa(lp2564
I72
aI139
aI20
aI36
aa(lp2565
I72
aI57
aI218
aa(lp2566
I116
aI77
aa(lp2567
I72
aI133
aI210
aa(lp2568
I116
aI5
aa(lp2569
I128
aI58
aI0
aa(lp2570
I117
aI67
aa(lp2571
I72
aI139
aI76
aI36
aI8
aa(lp2572
I100
aI72
aI51
aI12
aI37
aI40
aI0
aa(lp2573
I0
aI0
aa(lp2574
I117
aI62
aa(lp2575
I72
aI131
aI196
aI24
aa(lp2576
I91
aa(lp2577
I93
aa(lp2578
I65
aI92
aa(lp2579
I65
aI93
aa(lp2580
I195
aasg13
(I18048
I18272
tp2581
sg14
I3
sg15
g16
ssS'dcgettext'
p2582
(dp2583
g7
g8
sg9
(lp2584
sg11
(lp2585
sg13
(tsg14
I0
sg15
g16
ssS'strtoimax'
p2586
(dp2587
g7
g8
sg9
(lp2588
sg11
(lp2589
sg13
(tsg14
I3
sg15
g16
ssS'dup'
p2590
(dp2591
g7
g8
sg9
(lp2592
sg11
(lp2593
sg13
(tsg14
I0
sg15
g16
ssS'dprintf'
p2594
(dp2595
g7
g8
sg9
(lp2596
sg11
(lp2597
sg13
(tsg14
I2
sg15
g16
ssS'__err_oom'
p2598
(dp2599
g7
g8
sg9
(lp2600
sg11
(lp2601
sg13
(tsg14
I2
sg15
g16
ssS'appendchr'
p2602
(dp2603
g7
g8
sg9
(lp2604
sg11
(lp2605
sg13
(tsg14
I3
sg15
g16
ssS'strtoumax'
p2606
(dp2607
g7
g8
sg9
(lp2608
sg11
(lp2609
sg13
(tsg14
I3
sg15
g16
ssS'getenv'
p2610
(dp2611
g7
g8
sg9
(lp2612
sg11
(lp2613
sg13
(tsg14
I0
sg15
g16
ssS'warn'
p2614
(dp2615
g7
g8
sg9
(lp2616
sg11
(lp2617
sg13
(tsg14
I0
sg15
g16
ssS'vfprintf'
p2618
(dp2619
g7
g8
sg9
(lp2620
sg11
(lp2621
sg13
(tsg14
I3
sg15
g16
ssS'do_scale_by_power'
p2622
(dp2623
g7
g8
sg9
(lp2624
sg11
(lp2625
sg13
(tsg14
I3
sg15
g16
ssS'getuid'
p2626
(dp2627
g7
g8
sg9
(lp2628
sg11
(lp2629
sg13
(tsg14
I0
sg15
g16
ssS'strdup'
p2630
(dp2631
g7
g8
sg9
(lp2632
sg11
(lp2633
sg13
(tsg14
I0
sg15
g16
ssS'replay_set_timing_file'
p2634
(dp2635
g7
g8
sg9
(lp2636
sg11
(lp2637
(lp2638
I72
aI133
aI255
aa(lp2639
I65
aI84
aa(lp2640
I85
aa(lp2641
I83
aa(lp2642
I15
aI132
aI203
aI1
aI0
aI0
aa(lp2643
I72
aI133
aI246
aa(lp2644
I72
aI137
aI245
aa(lp2645
I15
aI132
aI222
aI1
aI0
aI0
aa(lp2646
I72
aI137
aI251
aa(lp2647
I72
aI137
aI115
aI80
aa(lp2648
I72
aI141
aI53
aI98
aI47
aI0
aI0
aa(lp2649
I199
aI71
aI92
aI0
aI0
aI0
aI0
aa(lp2650
I72
aI137
aI239
aa(lp2651
I232
aI218
aI230
aI255
aI255
aa(lp2652
I72
aI133
aI192
aa(lp2653
I72
aI137
aI67
aI72
aa(lp2654
I15
aI132
aI157
aI0
aI0
aI0
aa(lp2655
I72
aI137
aI199
aa(lp2656
I232
aI53
aI229
aI255
aI255
aa(lp2657
I131
aI248
aI255
aa(lp2658
I65
aI137
aI196
aa(lp2659
I15
aI132
aI169
aI0
aI0
aI0
aa(lp2660
I232
aI36
aI231
aI255
aI255
aa(lp2661
I72
aI139
aI0
aa(lp2662
I73
aI99
aI212
aa(lp2663
I72
aI139
aI115
aI72
aa(lp2664
I68
aI137
aI231
aa(lp2665
I246
aI68
aI80
aI1
aI8
aa(lp2666
I15
aI148
aI192
aa(lp2667
I15
aI182
aI192
aa(lp2668
I137
aI67
aI88
aa(lp2669
I232
aI36
aI230
aI255
aI255
aa(lp2670
I131
aI123
aI88
aI1
aa(lp2671
I15
aI132
aI202
aI0
aI0
aI0
aa(lp2672
I139
aI5
aI240
aI91
aI32
aI0
aa(lp2673
I69
aI49
aI228
aa(lp2674
I168
aI4
aa(lp2675
I116
aI67
aa(lp2676
I232
aI168
aI227
aI255
aI255
aa(lp2677
I72
aI139
aI61
aI209
aI91
aI32
aI0
aa(lp2678
I72
aI141
aI21
aI219
aI48
aI0
aI0
aa(lp2679
I76
aI141
aI13
aI192
aI48
aI0
aI0
aa(lp2680
I76
aI141
aI5
aI192
aI48
aI0
aI0
aa(lp2681
I137
aI193
aa(lp2682
I190
aI1
aI0
aI0
aI0
aa(lp2683
I49
aI192
aa(lp2684
I232
aI158
aI230
aI255
aI255
aa(lp2685
I72
aI141
aI61
aI199
aI56
aI0
aI0
aa(lp2686
I68
aI137
aI226
aa(lp2687
I72
aI137
aI238
aa(lp2688
I49
aI192
aa(lp2689
I232
aI74
aI248
aI255
aI255
aa(lp2690
I68
aI137
aI224
aa(lp2691
I91
aa(lp2692
I93
aa(lp2693
I65
aI92
aa(lp2694
I195
aasg13
(I13264
I13798
tp2695
sg14
I2
sg15
g16
ssS'err'
p2696
(dp2697
g7
g8
sg9
(lp2698
sg11
(lp2699
sg13
(tsg14
I0
sg15
g16
ssS'__fprintf_chk'
p2700
(dp2701
g7
g8
sg9
(lp2702
sg11
(lp2703
sg13
(tsg14
I0
sg15
g16
ssS'timerinc'
p2704
(dp2705
g7
g8
sg9
(lp2706
sg11
(lp2707
sg13
(tsg14
I2
sg15
g16
ssS'_strtou16_or_err'
p2708
(dp2709
g7
g8
sg9
(lp2710
sg11
(lp2711
sg13
(tsg14
I3
sg15
g16
ssS'__dprintf_chk'
p2712
(dp2713
g7
g8
sg9
(lp2714
sg11
(lp2715
sg13
(tsg14
I0
sg15
g16
ssS'__errno_location'
p2716
(dp2717
g7
g8
sg9
(lp2718
sg11
(lp2719
sg13
(tsg14
I0
sg15
g16
ssS'localeconv'
p2720
(dp2721
g7
g8
sg9
(lp2722
sg11
(lp2723
sg13
(tsg14
I0
sg15
g16
ssS'option_to_longopt'
p2724
(dp2725
g7
g8
sg9
(lp2726
sg11
(lp2727
sg13
(tsg14
I2
sg15
g16
ssS'ungetc'
p2728
(dp2729
g7
g8
sg9
(lp2730
sg11
(lp2731
sg13
(tsg14
I0
sg15
g16
ssS'is_wanted_stream'
p2732
(dp2733
g7
g8
sg9
(lp2734
sg11
(lp2735
sg13
(tsg14
I2
sg15
g16
ssS'string_to_bitmask'
p2736
(dp2737
g7
g8
sg9
(lp2738
sg11
(lp2739
(lp2740
I72
aI133
aI210
aa(lp2741
I65
aI86
aa(lp2742
I65
aI85
aa(lp2743
I65
aI84
aa(lp2744
I73
aI137
aI212
aa(lp2745
I15
aI148
aI194
aa(lp2746
I72
aI133
aI246
aa(lp2747
I85
aa(lp2748
I83
aa(lp2749
I15
aI148
aI192
aa(lp2750
I8
aI194
aa(lp2751
I15
aI133
aI179
aI0
aI0
aI0
aa(lp2752
I72
aI133
aI255
aa(lp2753
I72
aI137
aI251
aa(lp2754
I15
aI132
aI167
aI0
aI0
aI0
aa(lp2755
I15
aI182
aI7
aa(lp2756
I49
aI255
aa(lp2757
I73
aI137
aI246
aa(lp2758
I132
aI192
aa(lp2759
I15
aI132
aI140
aI0
aI0
aI0
aa(lp2760
I72
aI133
aI255
aa(lp2761
I72
aI15
aI68
aI251
aa(lp2762
I72
aI131
aI195
aI1
aa(lp2763
I60
aI44
aa(lp2764
I72
aI141
aI107
aI255
aa(lp2765
I73
aI137
aI221
aa(lp2766
I15
aI182
aI19
aa(lp2767
I116
aI68
aa(lp2768
I132
aI210
aa(lp2769
I117
aI96
aa(lp2770
I72
aI137
aI221
aa(lp2771
I72
aI57
aI239
aa(lp2772
I115
aI67
aa(lp2773
I72
aI137
aI238
aa(lp2774
I72
aI41
aI254
aa(lp2775
I65
aI255
aI212
aa(lp2776
I72
aI133
aI192
aa(lp2777
I120
aI58
aa(lp2778
I73
aI9
aI6
aa(lp2779
I72
aI133
aI237
aa(lp2780
I116
aI6
aa(lp2781
I128
aI125
aI0
aI0
aa(lp2782
I116
aI75
aa(lp2783
I15
aI182
aI3
aa(lp2784
I132
aI192
aa(lp2785
I116
aI68
aa(lp2786
I72
aI131
aI195
aI1
aa(lp2787
I60
aI44
aa(lp2788
I76
aI137
aI239
aa(lp2789
I72
aI141
aI107
aI255
aa(lp2790
I73
aI137
aI221
aa(lp2791
I15
aI182
aI19
aa(lp2792
I117
aI188
aa(lp2793
I132
aI210
aa(lp2794
I72
aI15
aI68
aI235
aa(lp2795
I72
aI57
aI239
aa(lp2796
I114
aI189
aa(lp2797
I184
aI255
aI255
aI255
aI255
aa(lp2798
I91
aa(lp2799
I93
aa(lp2800
I65
aI92
aa(lp2801
I65
aI93
aa(lp2802
I65
aI94
aa(lp2803
I195
aasg13
(I23472
I23689
tp2804
sg14
I3
sg15
g16
ssS'malloc'
p2805
(dp2806
g7
g8
sg9
(lp2807
sg11
(lp2808
sg13
(tsg14
I0
sg15
g16
ssS'strfappend'
p2809
(dp2810
g7
g8
sg9
(lp2811
sg11
(lp2812
(lp2813
I83
aa(lp2814
I72
aI137
aI251
aa(lp2815
I72
aI129
aI236
aI224
aI0
aI0
aI0
aa(lp2816
I132
aI192
aa(lp2817
I72
aI137
aI84
aI36
aI64
aa(lp2818
I72
aI137
aI76
aI36
aI72
aa(lp2819
I76
aI137
aI68
aI36
aI80
aa(lp2820
I76
aI137
aI76
aI36
aI88
aa(lp2821
I116
aI58
aa(lp2822
I15
aI41
aI68
aI36
aI96
aa(lp2823
I15
aI41
aI76
aI36
aI112
aa(lp2824
I15
aI41
aI148
aI36
aI128
aI0
aI0
aI0
aa(lp2825
I15
aI41
aI156
aI36
aI144
aI0
aI0
aI0
aa(lp2826
I15
aI41
aI164
aI36
aI160
aI0
aI0
aI0
aa(lp2827
I15
aI41
aI172
aI36
aI176
aI0
aI0
aI0
aa(lp2828
I15
aI41
aI180
aI36
aI192
aI0
aI0
aI0
aa(lp2829
I15
aI41
aI188
aI36
aI208
aI0
aI0
aI0
aa(lp2830
I100
aI72
aI139
aI4
aI37
aI40
aI0
aa(lp2831
I0
aI0
aa(lp2832
I72
aI137
aI68
aI36
aI40
aa(lp2833
I49
aI192
aa(lp2834
I72
aI141
aI132
aI36
aI240
aI0
aI0
aI0
aa(lp2835
I72
aI141
aI76
aI36
aI16
aa(lp2836
I72
aI141
aI124
aI36
aI8
aa(lp2837
I72
aI137
aI242
aa(lp2838
I190
aI1
aI0
aI0
aI0
aa(lp2839
I72
aI137
aI68
aI36
aI24
aa(lp2840
I72
aI141
aI68
aI36
aI48
aa(lp2841
I199
aI68
aI36
aI16
aI16
aI0
aI0
aI0
aa(lp2842
I199
aI68
aI36
aI20
aI48
aI0
aI0
aI0
aa(lp2843
I72
aI137
aI68
aI36
aI32
aa(lp2844
I232
aI181
aI185
aI255
aI255
aa(lp2845
I133
aI192
aa(lp2846
I120
aI65
aa(lp2847
I72
aI139
aI116
aI36
aI8
aa(lp2848
I72
aI137
aI223
aa(lp2849
I72
aI99
aI208
aa(lp2850
I232
aI33
aI254
aI255
aI255
aa(lp2851
I72
aI139
aI124
aI36
aI8
aa(lp2852
I72
aI137
aI195
aa(lp2853
I232
aI148
aI182
aI255
aI255
aa(lp2854
I72
aI137
aI216
aa(lp2855
I72
aI139
aI92
aI36
aI40
aa(lp2856
I100
aI72
aI51
aI28
aI37
aI40
aI0
aa(lp2857
I0
aI0
aa(lp2858
I117
aI21
aa(lp2859
I72
aI129
aI196
aI224
aI0
aI0
aI0
aa(lp2860
I91
aa(lp2861
I195
aasg13
(I24576
I24825
tp2862
sg14
I2
sg15
g16
ssS'__assert_fail'
p2863
(dp2864
g7
g8
sg9
(lp2865
sg11
(lp2866
sg13
(tsg14
I0
sg15
g16
ssS'strndup'
p2867
(dp2868
g7
g8
sg9
(lp2869
sg11
(lp2870
sg13
(tsg14
I0
sg15
g16
ssS'fread'
p2871
(dp2872
g7
g8
sg9
(lp2873
sg11
(lp2874
sg13
(tsg14
I4
sg15
g16
ssS'size_to_human_string'
p2875
(dp2876
g7
g8
sg9
(lp2877
sg11
(lp2878
(lp2879
I65
aI85
aa(lp2880
I65
aI84
aa(lp2881
I85
aa(lp2882
I83
aa(lp2883
I72
aI131
aI236
aI72
aa(lp2884
I100
aI72
aI139
aI4
aI37
aI40
aI0
aa(lp2885
I0
aI0
aa(lp2886
I72
aI137
aI68
aI36
aI56
aa(lp2887
I49
aI192
aa(lp2888
I64
aI246
aI199
aI2
aa(lp2889
I15
aI132
aI44
aI2
aI0
aI0
aa(lp2890
I72
aI141
aI92
aI36
aI11
aa(lp2891
I198
aI68
aI36
aI11
aI32
aa(lp2892
I76
aI141
aI67
aI1
aa(lp2893
I72
aI129
aI254
aI255
aI3
aI0
aI0
aa(lp2894
I15
aI134
aI249
aI1
aI0
aI0
aa(lp2895
I72
aI129
aI254
aI255
aI255
aI15
aI0
aa(lp2896
I15
aI134
aI68
aI2
aI0
aI0
aa(lp2897
I72
aI129
aI254
aI255
aI255
aI255
aI63
aa(lp2898
I15
aI134
aI79
aI2
aI0
aI0
aa(lp2899
I72
aI184
aI255
aI255
aI255
aI255
aI255
aa(lp2900
I0
aI0
aI0
aa(lp2901
I72
aI57
aI198
aa(lp2902
I15
aI134
aI68
aI2
aI0
aI0
aa(lp2903
I72
aI184
aI255
aI255
aI255
aI255
aI255
aa(lp2904
I255
aI3
aI0
aa(lp2905
I72
aI57
aI198
aa(lp2906
I15
aI134
aI65
aI2
aI0
aI0
aa(lp2907
I72
aI184
aI255
aI255
aI255
aI255
aI255
aa(lp2908
I255
aI255
aI15
aa(lp2909
I77
aI141
aI88
aI1
aa(lp2910
I185
aI60
aI0
aI0
aI0
aa(lp2911
I72
aI57
aI198
aa(lp2912
I65
aI186
aI70
aI0
aI0
aI0
aa(lp2913
I15
aI134
aI47
aI2
aI0
aI0
aa(lp2914
I137
aI200
aa(lp2915
I186
aI205
aI204
aI204
aI204
aa(lp2916
I72
aI137
aI245
aa(lp2917
I247
aI226
aa(lp2918
I72
aI141
aI5
aI121
aI25
aI0
aI0
aa(lp2919
I72
aI211
aI237
aa(lp2920
I65
aI137
aI233
aa(lp2921
I193
aI234
aI3
aa(lp2922
I15
aI182
aI20
aI16
aa(lp2923
I72
aI199
aI192
aI255
aI255
aI255
aI255
aa(lp2924
I72
aI211
aI224
aa(lp2925
I72
aI247
aI208
aa(lp2926
I72
aI33
aI198
aa(lp2927
I128
aI250
aI66
aa(lp2928
I65
aI136
aI16
aa(lp2929
I116
aI21
aa(lp2930
I64
aI246
aI199
aI1
aa(lp2931
I116
aI15
aa(lp2932
I65
aI188
aI105
aI66
aI0
aI0
aa(lp2933
I77
aI141
aI88
aI3
aa(lp2934
I102
aI69
aI137
aI96
aI1
aa(lp2935
I72
aI133
aI246
aa(lp2936
I65
aI198
aI3
aI0
aa(lp2937
I15
aI132
aI229
aI0
aI0
aI0
aa(lp2938
I65
aI141
aI74
aI236
aa(lp2939
I72
aI211
aI238
aa(lp2940
I131
aI231
aI4
aa(lp2941
I15
aI132
aI165
aI0
aI0
aI0
aa(lp2942
I72
aI131
aI198
aI5
aa(lp2943
I72
aI185
aI205
aI204
aI204
aI204
aI204
aa(lp2944
I204
aI204
aI204
aa(lp2945
I72
aI137
aI240
aa(lp2946
I72
aI247
aI225
aa(lp2947
I72
aI193
aI234
aI3
aa(lp2948
I72
aI137
aI208
aa(lp2949
I73
aI137
aI213
aa(lp2950
I72
aI247
aI225
aa(lp2951
I72
aI193
aI234
aI3
aa(lp2952
I72
aI141
aI4
aI146
aa(lp2953
I72
aI1
aI192
aa(lp2954
I73
aI57
aI197
aa(lp2955
I15
aI132
aI32
aI1
aI0
aI0
aa(lp2956
I77
aI133
aI237
aa(lp2957
I15
aI132
aI151
aI0
aI0
aI0
aa(lp2958
I232
aI66
aI192
aI255
aI255
aa(lp2959
I72
aI133
aI192
aa(lp2960
I72
aI141
aI21
aI211
aI24
aI0
aI0
aa(lp2961
I116
aI26
aa(lp2962
I72
aI139
aI16
aa(lp2963
I72
aI133
aI210
aa(lp2964
I15
aI132
aI26
aI1
aI0
aI0
aa(lp2965
I128
aI58
aI0
aa(lp2966
I72
aI141
aI5
aI187
aI24
aI0
aI0
aa(lp2967
I72
aI15
aI68
aI208
aa(lp2968
I76
aI141
aI100
aI36
aI16
aa(lp2969
I72
aI131
aI236
aI8
aa(lp2970
I76
aI141
aI5
aI177
aI24
aI0
aI0
aa(lp2971
I83
aa(lp2972
I65
aI85
aa(lp2973
I65
aI137
aI233
aa(lp2974
I82
aa(lp2975
I185
aI32
aI0
aI0
aI0
aa(lp2976
I186
aI1
aI0
aI0
aI0
aa(lp2977
I190
aI32
aI0
aI0
aI0
aa(lp2978
I76
aI137
aI231
aa(lp2979
I49
aI192
aa(lp2980
I232
aI76
aI191
aI255
aI255
aa(lp2981
I72
aI131
aI196
aI32
aa(lp2982
I235
aI98
aa(lp2983
I102
aI15
aI31
aI68
aI0
aI0
aa(lp2984
I72
aI131
aI198
aI50
aa(lp2985
I72
aI186
aI195
aI245
aI40
aI92
aI143
aa(lp2986
I194
aI245
aI40
aa(lp2987
I72
aI193
aI238
aI2
aa(lp2988
I72
aI137
aI240
aa(lp2989
I72
aI247
aI226
aa(lp2990
I72
aI193
aI234
aI2
aa(lp2991
I72
aI131
aI250
aI10
aa(lp2992
I73
aI137
aI213
aa(lp2993
I15
aI133
aI103
aI255
aI255
aI255
aa(lp2994
I68
aI141
aI77
aI1
aa(lp2995
I15
aI31
aI0
aa(lp2996
I76
aI141
aI100
aI36
aI16
aa(lp2997
I72
aI131
aI236
aI8
aa(lp2998
I76
aI141
aI5
aI79
aI24
aI0
aI0
aa(lp2999
I83
aa(lp3000
I185
aI32
aI0
aI0
aI0
aa(lp3001
I186
aI1
aI0
aI0
aI0
aa(lp3002
I190
aI32
aI0
aI0
aI0
aa(lp3003
I76
aI137
aI231
aa(lp3004
I49
aI192
aa(lp3005
I232
aI230
aI190
aI255
aI255
aa(lp3006
I90
aa(lp3007
I89
aa(lp3008
I76
aI137
aI231
aa(lp3009
I232
aI204
aI194
aI255
aI255
aa(lp3010
I72
aI139
aI92
aI36
aI56
aa(lp3011
I100
aI72
aI51
aI28
aI37
aI40
aI0
aa(lp3012
I0
aI0
aa(lp3013
I15
aI133
aI176
aI0
aI0
aI0
aa(lp3014
I72
aI131
aI196
aI72
aa(lp3015
I91
aa(lp3016
I93
aa(lp3017
I65
aI92
aa(lp3018
I65
aI93
aa(lp3019
I195
aasg13
(I22112
I22845
tp3020
sg14
I2
sg15
g16
ssS'getnum'
p3021
(dp3022
g7
g8
sg9
(lp3023
sg11
(lp3024
(lp3025
I83
aa(lp3026
I72
aI141
aI53
aI28
aI58
aI0
aI0
aa(lp3027
I72
aI137
aI251
aa(lp3028
I186
aI5
aI0
aI0
aI0
aa(lp3029
I49
aI255
aa(lp3030
I232
aI41
aI239
aI255
aI255
aa(lp3031
I72
aI137
aI223
aa(lp3032
I72
aI137
aI198
aa(lp3033
I232
aI190
aI39
aI0
aI0
aa(lp3034
I102
aI15
aI46
aI192
aa(lp3035
I122
aI2
aa(lp3036
I91
aa(lp3037
I195
aasg13
(tsg14
I1
sg15
g16
ssS'fprintf'
p3038
(dp3039
g7
g8
sg9
(lp3040
sg11
(lp3041
sg13
(tsg14
I2
sg15
g16
ssS'string_add_to_idarray'
p3042
(dp3043
g7
g8
sg9
(lp3044
sg11
(lp3045
(lp3046
I72
aI133
aI255
aa(lp3047
I116
aI82
aa(lp3048
I72
aI133
aI201
aa(lp3049
I83
aa(lp3050
I15
aI182
aI7
aa(lp3051
I72
aI137
aI203
aa(lp3052
I116
aI63
aa(lp3053
I132
aI192
aa(lp3054
I116
aI59
aa(lp3055
I76
aI139
aI9
aa(lp3056
I73
aI57
aI209
aa(lp3057
I119
aI51
aa(lp3058
I60
aI43
aa(lp3059
I116
aI31
aa(lp3060
I72
aI199
aI1
aI0
aI0
aI0
aI0
aa(lp3061
I76
aI137
aI193
aa(lp3062
I232
aI192
aI254
aI255
aI255
aa(lp3063
I133
aI192
aa(lp3064
I126
aI6
aa(lp3065
I72
aI99
aI208
aa(lp3066
I72
aI1
aI19
aa(lp3067
I91
aa(lp3068
I195
aasg13
(I23120
I23213
tp3069
sg14
I5
sg15
g16
ssS'bindtextdomain'
p3070
(dp3071
g7
g8
sg9
(lp3072
sg11
(lp3073
sg13
(tsg14
I0
sg15
g16
ssS'strlen'
p3074
(dp3075
g7
g8
sg9
(lp3076
sg11
(lp3077
sg13
(tsg14
I0
sg15
g16
ssS'__fread_chk'
p3078
(dp3079
g7
g8
sg9
(lp3080
sg11
(lp3081
sg13
(tsg14
I0
sg15
g16
ssS'c_isgraph'
p3082
(dp3083
g7
g8
sg9
(lp3084
sg11
(lp3085
sg13
(tsg14
I1
sg15
g16
ssS'feof'
p3086
(dp3087
g7
g8
sg9
(lp3088
sg11
(lp3089
sg13
(tsg14
I0
sg15
g16
ssS'geteuid'
p3090
(dp3091
g7
g8
sg9
(lp3092
sg11
(lp3093
sg13
(tsg14
I0
sg15
g16
ssS'replay_step_is_empty'
p3094
(dp3095
g7
g8
sg9
(lp3096
sg11
(lp3097
(lp3098
I72
aI133
aI255
aa(lp3099
I116
aI19
aa(lp3100
I49
aI192
aa(lp3101
I72
aI131
aI127
aI8
aI0
aa(lp3102
I117
aI8
aa(lp3103
I49
aI192
aa(lp3104
I128
aI63
aI0
aa(lp3105
I15
aI148
aI192
aa(lp3106
I243
aI195
aa(lp3107
I72
aI141
aI13
aI193
aI54
aI0
aI0
aa(lp3108
I72
aI141
aI53
aI162
aI50
aI0
aI0
aa(lp3109
I72
aI141
aI61
aI88
aI51
aI0
aI0
aa(lp3110
I72
aI131
aI236
aI8
aa(lp3111
I186
aI38
aI1
aI0
aI0
aa(lp3112
I232
aI101
aI224
aI255
aI255
aa(lp3113
I15
aI31
aI68
aI0
aI0
aasg13
(I14432
I14491
tp3114
sg14
I1
sg15
g16
ssS'delay_for'
p3115
(dp3116
g7
g8
sg9
(lp3117
sg11
(lp3118
sg13
(tsg14
I1
sg15
g16
ssS'write'
p3119
(dp3120
g7
g8
sg9
(lp3121
sg11
(lp3122
sg13
(tsg14
I0
sg15
g16
ssS'skip_fline'
p3123
(dp3124
g7
g8
sg9
(lp3125
sg11
(lp3126
(lp3127
I83
aa(lp3128
I72
aI137
aI251
aa(lp3129
I235
aI15
aa(lp3130
I102
aI46
aI15
aI31
aI132
aI0
aI0
aa(lp3131
I0
aI0
aI0
aa(lp3132
I131
aI248
aI10
aa(lp3133
I116
aI27
aa(lp3134
I72
aI137
aI223
aa(lp3135
I232
aI211
aI182
aI255
aI255
aa(lp3136
I131
aI248
aI255
aa(lp3137
I117
aI238
aa(lp3138
I184
aI1
aI0
aI0
aI0
aa(lp3139
I91
aa(lp3140
I195
aasg13
(I25184
I25236
tp3141
sg14
I1
sg15
g16
ssS'get_exp'
p3142
(dp3143
g7
g8
sg9
(lp3144
sg11
(lp3145
sg13
(tsg14
I1
sg15
g16
ssS'split'
p3146
(dp3147
g7
g8
sg9
(lp3148
sg11
(lp3149
(lp3150
I65
aI87
aa(lp3151
I65
aI86
aa(lp3152
I65
aI85
aa(lp3153
I65
aI84
aa(lp3154
I85
aa(lp3155
I83
aa(lp3156
I72
aI131
aI236
aI24
aa(lp3157
I72
aI139
aI31
aa(lp3158
I100
aI72
aI139
aI4
aI37
aI40
aI0
aa(lp3159
I0
aI0
aa(lp3160
I72
aI137
aI68
aI36
aI8
aa(lp3161
I49
aI192
aa(lp3162
I128
aI59
aI0
aa(lp3163
I15
aI132
aI38
aI1
aI0
aI0
aa(lp3164
I72
aI137
aI253
aa(lp3165
I73
aI137
aI246
aa(lp3166
I72
aI137
aI223
aa(lp3167
I72
aI137
aI214
aa(lp3168
I73
aI137
aI213
aa(lp3169
I65
aI137
aI207
aa(lp3170
I232
aI47
aI184
aI255
aI255
aa(lp3171
I72
aI1
aI195
aa(lp3172
I68
aI15
aI182
aI35
aa(lp3173
I69
aI132
aI228
aa(lp3174
I15
aI132
aI239
aI0
aI0
aI0
aa(lp3175
I69
aI133
aI255
aa(lp3176
I116
aI122
aa(lp3177
I72
aI141
aI61
aI71
aI15
aI0
aI0
aa(lp3178
I65
aI15
aI190
aI244
aa(lp3179
I232
aI90
aI183
aI255
aI255
aa(lp3180
I72
aI133
aI192
aa(lp3181
I15
aI132
aI161
aI0
aI0
aI0
aa(lp3182
I76
aI141
aI123
aI1
aa(lp3183
I72
aI141
aI116
aI36
aI6
aa(lp3184
I68
aI136
aI100
aI36
aI6
aa(lp3185
I198
aI68
aI36
aI7
aI0
aa(lp3186
I76
aI137
aI255
aa(lp3187
I232
aI102
aI228
aI255
aI255
aa(lp3188
I73
aI137
aI6
aa(lp3189
I15
aI182
aI84
aI3
aI1
aa(lp3190
I132
aI210
aa(lp3191
I15
aI132
aI166
aI0
aI0
aI0
aa(lp3192
I65
aI56
aI212
aa(lp3193
I15
aI133
aI157
aI0
aI0
aI0
aa(lp3194
I76
aI141
aI100
aI3
aI2
aa(lp3195
I65
aI15
aI190
aI52
aI36
aa(lp3196
I64
aI132
aI246
aa(lp3197
I116
aI17
aa(lp3198
I76
aI137
aI239
aa(lp3199
I232
aI6
aI183
aI255
aI255
aa(lp3200
I72
aI133
aI192
aa(lp3201
I15
aI132
aI125
aI0
aI0
aI0
aa(lp3202
I76
aI137
aI101
aI0
aa(lp3203
I76
aI137
aI251
aa(lp3204
I235
aI25
aa(lp3205
I15
aI31
aI64
aI0
aa(lp3206
I76
aI137
aI238
aa(lp3207
I72
aI137
aI223
aa(lp3208
I232
aI181
aI183
aI255
aI255
aa(lp3209
I73
aI137
aI6
aa(lp3210
I72
aI1
aI216
aa(lp3211
I72
aI137
aI69
aI0
aa(lp3212
I72
aI139
aI76
aI36
aI8
aa(lp3213
I100
aI72
aI51
aI12
aI37
aI40
aI0
aa(lp3214
I0
aI0
aa(lp3215
I72
aI137
aI216
aa(lp3216
I117
aI92
aa(lp3217
I72
aI131
aI196
aI24
aa(lp3218
I91
aa(lp3219
I93
aa(lp3220
I65
aI92
aa(lp3221
I65
aI93
aa(lp3222
I65
aI94
aa(lp3223
I65
aI95
aa(lp3224
I195
aasg13
(I24832
I25177
tp3225
sg14
I4
sg15
g16
ssS'isdigit_strend'
p3226
(dp3227
g7
g8
sg9
(lp3228
sg11
(lp3229
(lp3230
I72
aI133
aI255
aa(lp3231
I65
aI84
aa(lp3232
I73
aI137
aI244
aa(lp3233
I85
aa(lp3234
I83
aa(lp3235
I116
aI84
aa(lp3236
I15
aI182
aI31
aa(lp3237
I72
aI137
aI253
aa(lp3238
I132
aI219
aa(lp3239
I116
aI89
aa(lp3240
I232
aI197
aI206
aI255
aI255
aa(lp3241
I72
aI137
aI234
aa(lp3242
I72
aI139
aI0
aa(lp3243
I235
aI18
aa(lp3244
I15
aI31
aI68
aI0
aI0
aa(lp3245
I72
aI131
aI194
aI1
aa(lp3246
I116
aI50
aa(lp3247
I15
aI182
aI26
aa(lp3248
I132
aI219
aa(lp3249
I116
aI7
aa(lp3250
I246
aI68
aI88
aI1
aI8
aa(lp3251
I117
aI236
aa(lp3252
I77
aI133
aI228
aa(lp3253
I116
aI4
aa(lp3254
I73
aI137
aI20
aI36
aa(lp3255
I72
aI57
aI213
aa(lp3256
I115
aI10
aa(lp3257
I128
aI58
aI0
aa(lp3258
I184
aI1
aI0
aI0
aI0
aa(lp3259
I116
aI2
aa(lp3260
I49
aI192
aa(lp3261
I91
aa(lp3262
I93
aa(lp3263
I65
aI92
aa(lp3264
I195
aasg13
(I19568
I19690
tp3265
sg14
I2
sg15
g16
ssS'ul_debug_parse_mask'
p3266
(dp3267
g7
g8
sg9
(lp3268
sg11
(lp3269
sg13
(tsg14
I2
sg15
g16
ssS'vasprintf'
p3270
(dp3271
g7
g8
sg9
(lp3272
sg11
(lp3273
sg13
(tsg14
I3
sg15
g16
ssS'replay_get_timing_file'
p3274
(dp3275
g7
g8
sg9
(lp3276
sg11
(lp3277
(lp3278
I72
aI133
aI255
aa(lp3279
I116
aI5
aa(lp3280
I72
aI139
aI71
aI80
aa(lp3281
I195
aasg13
(I13808
I13853
tp3282
sg14
I1
sg15
g16
ssS'strtos64_or_err'
p3283
(dp3284
g7
g8
sg9
(lp3285
sg11
(lp3286
(lp3287
I65
aI84
aa(lp3288
I85
aa(lp3289
I73
aI137
aI244
aa(lp3290
I83
aa(lp3291
I72
aI137
aI251
aa(lp3292
I72
aI131
aI236
aI16
aa(lp3293
I100
aI72
aI139
aI4
aI37
aI40
aI0
aa(lp3294
I0
aI0
aa(lp3295
I72
aI137
aI68
aI36
aI8
aa(lp3296
I49
aI192
aa(lp3297
I72
aI199
aI4
aI36
aI0
aI0
aI0
aI0
aa(lp3298
I232
aI245
aI199
aI255
aI255
aa(lp3299
I72
aI133
aI219
aa(lp3300
I199
aI0
aI0
aI0
aI0
aI0
aa(lp3301
I139
aI61
aI102
aI64
aI32
aI0
aa(lp3302
I116
aI5
aa(lp3303
I128
aI59
aI0
aa(lp3304
I117
aI23
aa(lp3305
I72
aI141
aI53
aI184
aI32
aI0
aI0
aa(lp3306
I72
aI137
aI217
aa(lp3307
I76
aI137
aI226
aa(lp3308
I49
aI192
aa(lp3309
I232
aI235
aI200
aI255
aI255
aa(lp3310
I15
aI31
aI0
aa(lp3311
I72
aI137
aI197
aa(lp3312
I49
aI201
aa(lp3313
I186
aI10
aI0
aI0
aI0
aa(lp3314
I72
aI137
aI230
aa(lp3315
I72
aI137
aI223
aa(lp3316
I232
aI83
aI200
aI255
aI255
aa(lp3317
I139
aI85
aI0
aa(lp3318
I133
aI210
aa(lp3319
I117
aI44
aa(lp3320
I72
aI139
aI20
aI36
aa(lp3321
I72
aI57
aI218
aa(lp3322
I116
aI67
aa(lp3323
I72
aI133
aI210
aa(lp3324
I116
aI5
aa(lp3325
I128
aI58
aI0
aa(lp3326
I117
aI57
aa(lp3327
I72
aI139
aI76
aI36
aI8
aa(lp3328
I100
aI72
aI51
aI12
aI37
aI40
aI0
aa(lp3329
I0
aI0
aa(lp3330
I117
aI52
aa(lp3331
I72
aI131
aI196
aI16
aa(lp3332
I91
aa(lp3333
I93
aa(lp3334
I65
aI92
aa(lp3335
I195
aasg13
(I20336
I20544
tp3336
sg14
I2
sg15
g16
ssS'__builtin___snprintf_chk'
p3337
(dp3338
g7
g8
sg9
(lp3339
sg11
(lp3340
sg13
(tsg14
I0
sg15
g16
ssS'replay_init_debug'
p3341
(dp3342
g7
g8
sg9
(lp3343
sg11
(lp3344
(lp3345
I83
aa(lp3346
I72
aI141
aI61
aI73
aI58
aI0
aI0
aa(lp3347
I72
aI131
aI236
aI16
aa(lp3348
I100
aI72
aI139
aI4
aI37
aI40
aI0
aa(lp3349
I0
aI0
aa(lp3350
I72
aI137
aI68
aI36
aI8
aa(lp3351
I49
aI192
aa(lp3352
I232
aI223
aI229
aI255
aI255
aa(lp3353
I246
aI5
aI228
aI94
aI32
aI0
aI2
aa(lp3354
I116
aI118
aa(lp3355
I232
aI33
aI231
aI255
aI255
aa(lp3356
I137
aI195
aa(lp3357
I232
aI186
aI231
aI255
aI255
aa(lp3358
I57
aI195
aa(lp3359
I15
aI132
aI210
aI0
aI0
aI0
aa(lp3360
I129
aI13
aI196
aI94
aI32
aI0
aI0
aa(lp3361
I0
aI0
aI1
aa(lp3362
I232
aI131
aI230
aI255
aI255
aa(lp3363
I72
aI139
aI61
aI172
aI94
aI32
aI0
aa(lp3364
I72
aI141
aI21
aI93
aI59
aI0
aI0
aa(lp3365
I76
aI141
aI5
aI162
aI51
aI0
aI0
aa(lp3366
I137
aI193
aa(lp3367
I190
aI1
aI0
aI0
aI0
aa(lp3368
I49
aI192
aa(lp3369
I232
aI128
aI233
aI255
aI255
aa(lp3370
I139
aI21
aI150
aI94
aI32
aI0
aa(lp3371
I131
aI202
aI2
aa(lp3372
I72
aI139
aI68
aI36
aI8
aa(lp3373
I100
aI72
aI51
aI4
aI37
aI40
aI0
aa(lp3374
I0
aI0
aa(lp3375
I137
aI21
aI127
aI94
aI32
aI0
aa(lp3376
I15
aI133
aI159
aI0
aI0
aI0
aa(lp3377
I72
aI131
aI196
aI16
aa(lp3378
I91
aa(lp3379
I195
aasg13
(I12608
I12919
tp3380
sg14
I0
sg15
g16
ssS'getegid'
p3381
(dp3382
g7
g8
sg9
(lp3383
sg11
(lp3384
sg13
(tsg14
I0
sg15
g16
ssS'calloc'
p3385
(dp3386
g7
g8
sg9
(lp3387
sg11
(lp3388
sg13
(tsg14
I0
sg15
g16
ssS'replay_step_get_delay'
p3389
(dp3390
g7
g8
sg9
(lp3391
sg11
(lp3392
(lp3393
I72
aI133
aI255
aa(lp3394
I116
aI5
aa(lp3395
I72
aI141
aI71
aI32
aa(lp3396
I195
aasg13
(I14320
I14365
tp3397
sg14
I1
sg15
g16
ssS'getopt_long'
p3398
(dp3399
g7
g8
sg9
(lp3400
sg11
(lp3401
sg13
(tsg14
I0
sg15
g16
ssS'replay_emit_step_data'
p3402
(dp3403
g7
g8
sg9
(lp3404
sg11
(lp3405
(lp3406
I65
aI87
aa(lp3407
I65
aI86
aa(lp3408
I65
aI85
aa(lp3409
I65
aI84
aa(lp3410
I85
aa(lp3411
I83
aa(lp3412
I72
aI129
aI236
aI24
aI32
aI0
aI0
aa(lp3413
I100
aI72
aI139
aI4
aI37
aI40
aI0
aa(lp3414
I0
aI0
aa(lp3415
I72
aI137
aI132
aI36
aI8
aI32
aI0
aI0
aa(lp3416
I49
aI192
aa(lp3417
I72
aI133
aI255
aa(lp3418
I15
aI132
aI182
aI3
aI0
aI0
aa(lp3419
I72
aI133
aI246
aa(lp3420
I72
aI137
aI243
aa(lp3421
I15
aI132
aI139
aI3
aI0
aI0
aa(lp3422
I15
aI182
aI6
aa(lp3423
I65
aI137
aI212
aa(lp3424
I60
aI72
aa(lp3425
I15
aI132
aI65
aI1
aI0
aI0
aa(lp3426
I60
aI83
aa(lp3427
I15
aI132
aI201
aI0
aI0
aI0
aa(lp3428
I76
aI139
aI110
aI8
aa(lp3429
I77
aI133
aI237
aa(lp3430
I15
aI132
aI34
aI4
aI0
aI0
aa(lp3431
I72
aI139
aI86
aI48
aa(lp3432
I72
aI133
aI210
aa(lp3433
I15
aI132
aI52
aI4
aI0
aI0
aa(lp3434
I76
aI139
aI66
aI16
aa(lp3435
I77
aI133
aI192
aa(lp3436
I15
aI132
aI233
aI3
aI0
aI0
aa(lp3437
I139
aI151
aI140
aI0
aI0
aI0
aa(lp3438
I133
aI210
aa(lp3439
I15
aI132
aI116
aI2
aI0
aI0
aa(lp3440
I69
aI49
aI246
aa(lp3441
I131
aI250
aI2
aa(lp3442
I65
aI15
aI148
aI198
aa(lp3443
I72
aI137
aI229
aa(lp3444
I235
aI48
aa(lp3445
I15
aI31
aI68
aI0
aI0
aa(lp3446
I76
aI137
aI250
aa(lp3447
I72
aI137
aI238
aa(lp3448
I68
aI137
aI231
aa(lp3449
I77
aI41
aI253
aa(lp3450
I232
aI215
aI214
aI255
aI255
aa(lp3451
I76
aI57
aI248
aa(lp3452
I15
aI133
aI94
aI2
aI0
aI0
aa(lp3453
I77
aI133
aI237
aa(lp3454
I15
aI132
aI149
aI1
aI0
aI0
aa(lp3455
I72
aI139
aI67
aI48
aa(lp3456
I76
aI139
aI64
aI16
aa(lp3457
I73
aI129
aI253
aI0
aI32
aI0
aI0
aa(lp3458
I185
aI0
aI32
aI0
aI0
aa(lp3459
I186
aI1
aI0
aI0
aI0
aa(lp3460
I73
aI15
aI70
aI205
aa(lp3461
I190
aI0
aI32
aI0
aI0
aa(lp3462
I72
aI137
aI239
aa(lp3463
I232
aI107
aI217
aI255
aI255
aa(lp3464
I72
aI133
aI192
aa(lp3465
I73
aI137
aI199
aa(lp3466
I15
aI132
aI191
aI1
aI0
aI0
aa(lp3467
I69
aI133
aI246
aa(lp3468
I116
aI162
aa(lp3469
I74
aI141
aI84
aI61
aI0
aa(lp3470
I72
aI137
aI232
aa(lp3471
I102
aI144
aa(lp3472
I128
aI56
aI13
aa(lp3473
I117
aI3
aa(lp3474
I198
aI0
aI10
aa(lp3475
I72
aI131
aI192
aI1
aa(lp3476
I72
aI57
aI208
aa(lp3477
I117
aI239
aa(lp3478
I235
aI133
aa(lp3479
I15
aI31
aI68
aI0
aI0
aa(lp3480
I72
aI139
aI78
aI16
aa(lp3481
I72
aI133
aI201
aa(lp3482
I15
aI132
aI27
aI3
aI0
aI0
aa(lp3483
I76
aI139
aI70
aI24
aa(lp3484
I77
aI133
aI192
aa(lp3485
I15
aI132
aI208
aI2
aI0
aI0
aa(lp3486
I72
aI141
aI21
aI161
aI42
aI0
aI0
aa(lp3487
I49
aI192
aa(lp3488
I190
aI1
aI0
aI0
aI0
aa(lp3489
I68
aI137
aI231
aa(lp3490
I232
aI40
aI217
aI255
aI255
aa(lp3491
I246
aI5
aI125
aI78
aI32
aI0
aI8
aa(lp3492
I15
aI133
aI179
aI0
aI0
aI0
aa(lp3493
I49
aI237
aa(lp3494
I72
aI139
aI180
aI36
aI8
aI32
aI0
aI0
aa(lp3495
I100
aI72
aI51
aI52
aI37
aI40
aI0
aa(lp3496
I0
aI0
aa(lp3497
I137
aI232
aa(lp3498
I15
aI133
aI79
aI2
aI0
aI0
aa(lp3499
I72
aI129
aI196
aI24
aI32
aI0
aI0
aa(lp3500
I91
aa(lp3501
I93
aa(lp3502
I65
aI92
aa(lp3503
I65
aI93
aa(lp3504
I65
aI94
aa(lp3505
I65
aI95
aa(lp3506
I195
aasg13
(I16512
I17755
tp3507
sg14
I3
sg15
g16
ssS'strnchr'
p3508
(dp3509
g7
g8
sg9
(lp3510
sg11
(lp3511
(lp3512
I72
aI133
aI246
aa(lp3513
I116
aI47
aa(lp3514
I15
aI182
aI7
aa(lp3515
I132
aI192
aa(lp3516
I116
aI40
aa(lp3517
I56
aI208
aa(lp3518
I137
aI209
aa(lp3519
I116
aI46
aa(lp3520
I72
aI1
aI254
aa(lp3521
I235
aI20
aa(lp3522
I102
aI15
aI31
aI132
aI0
aI0
aI0
aa(lp3523
I0
aI0
aa(lp3524
I15
aI182
aI7
aa(lp3525
I132
aI192
aa(lp3526
I116
aI13
aa(lp3527
I56
aI200
aa(lp3528
I116
aI21
aa(lp3529
I72
aI131
aI199
aI1
aa(lp3530
I72
aI57
aI254
aa(lp3531
I117
aI236
aa(lp3532
I49
aI192
aa(lp3533
I195
aasg13
(I20128
I20196
tp3534
sg14
I3
sg15
g16
ssS'streq_paths'
p3535
(dp3536
g7
g8
sg9
(lp3537
sg11
(lp3538
(lp3539
I65
aI87
aa(lp3540
I65
aI86
aa(lp3541
I65
aI85
aa(lp3542
I65
aI84
aa(lp3543
I85
aa(lp3544
I83
aa(lp3545
I72
aI131
aI236
aI40
aa(lp3546
I100
aI72
aI139
aI4
aI37
aI40
aI0
aa(lp3547
I0
aI0
aa(lp3548
I72
aI137
aI68
aI36
aI24
aa(lp3549
I49
aI192
aa(lp3550
I72
aI133
aI246
aa(lp3551
I15
aI132
aI185
aI0
aI0
aI0
aa(lp3552
I72
aI133
aI255
aa(lp3553
I15
aI132
aI176
aI0
aI0
aI0
aa(lp3554
I72
aI137
aI243
aa(lp3555
I76
aI141
aI116
aI36
aI8
aa(lp3556
I76
aI141
aI108
aI36
aI16
aa(lp3557
I235
aI65
aa(lp3558
I144
aa(lp3559
I77
aI133
aI228
aa(lp3560
I15
aI148
aI194
aa(lp3561
I72
aI133
aI219
aa(lp3562
I15
aI148
aI192
aa(lp3563
I8
aI194
aa(lp3564
I15
aI133
aI140
aI0
aI0
aI0
aa(lp3565
I76
aI57
aI253
aa(lp3566
I15
aI133
aI131
aI0
aI0
aI0
aa(lp3567
I72
aI137
aI234
aa(lp3568
I72
aI137
aI222
aa(lp3569
I76
aI137
aI231
aa(lp3570
I232
aI101
aI185
aI255
aI255
aa(lp3571
I133
aI192
aa(lp3572
I117
aI113
aa(lp3573
I76
aI1
aI251
aa(lp3574
I73
aI141
aI60
aI44
aa(lp3575
I73
aI1
aI236
aa(lp3576
I116
aI101
aa(lp3577
I72
aI133
aI219
aa(lp3578
I116
aI96
aa(lp3579
I76
aI137
aI246
aa(lp3580
I232
aI8
aI231
aI255
aI255
aa(lp3581
I72
aI137
aI223
aa(lp3582
I76
aI137
aI238
aa(lp3583
I73
aI137
aI196
aa(lp3584
I232
aI250
aI230
aI255
aI255
aa(lp3585
I72
aI139
aI108
aI36
aI8
aa(lp3586
I76
aI139
aI124
aI36
aI16
aa(lp3587
I72
aI137
aI195
aa(lp3588
I72
aI137
aI232
aa(lp3589
I76
aI1
aI248
aa(lp3590
I116
aI37
aa(lp3591
I72
aI131
aI248
aI1
aa(lp3592
I117
aI143
aa(lp3593
I77
aI133
aI228
aa(lp3594
I116
aI7
aa(lp3595
I65
aI128
aI60
aI36
aI47
aa(lp3596
I116
aI19
aa(lp3597
I72
aI133
aI219
aa(lp3598
I116
aI30
aa(lp3599
I128
aI59
aI47
aa(lp3600
I15
aI133
aI117
aI255
aI255
aI255
aa(lp3601
I15
aI31
aI68
aI0
aI0
aa(lp3602
I184
aI1
aI0
aI0
aI0
aa(lp3603
I235
aI11
aa(lp3604
I102
aI15
aI31
aI132
aI0
aI0
aI0
aa(lp3605
I0
aI0
aa(lp3606
I49
aI192
aa(lp3607
I72
aI139
aI76
aI36
aI24
aa(lp3608
I100
aI72
aI51
aI12
aI37
aI40
aI0
aa(lp3609
I0
aI0
aa(lp3610
I117
aI15
aa(lp3611
I72
aI131
aI196
aI40
aa(lp3612
I91
aa(lp3613
I93
aa(lp3614
I65
aI92
aa(lp3615
I65
aI93
aa(lp3616
I65
aI94
aa(lp3617
I65
aI95
aa(lp3618
I195
aasg13
(I24016
I24278
tp3619
sg14
I2
sg15
g16
ssS'xcalloc'
p3620
(dp3621
g7
g8
sg9
(lp3622
sg11
(lp3623
sg13
(tsg14
I2
sg15
g16
ssS'replay_set_delay_div'
p3624
(dp3625
g7
g8
sg9
(lp3626
sg11
(lp3627
(lp3628
I242
aI15
aI17
aI135
aI128
aI0
aI0
aI0
aa(lp3629
I49
aI192
aa(lp3630
I195
aasg13
(I13248
I13259
tp3631
sg14
I2
sg15
g16
ssS'strtox16_or_err'
p3632
(dp3633
g7
g8
sg9
(lp3634
sg11
(lp3635
(lp3636
I85
aa(lp3637
I83
aa(lp3638
I186
aI16
aI0
aI0
aI0
aa(lp3639
I72
aI137
aI251
aa(lp3640
I72
aI137
aI245
aa(lp3641
I72
aI131
aI236
aI8
aa(lp3642
I232
aI42
aI248
aI255
aI255
aa(lp3643
I61
aI255
aI255
aI0
aI0
aa(lp3644
I119
aI7
aa(lp3645
I72
aI131
aI196
aI8
aa(lp3646
I91
aa(lp3647
I93
aa(lp3648
I195
aasg13
(I20256
I20303
tp3649
sg14
I2
sg15
g16
ssS'textdomain'
p3650
(dp3651
g7
g8
sg9
(lp3652
sg11
(lp3653
sg13
(tsg14
I0
sg15
g16
ssS'replay_set_delay_max'
p3654
(dp3655
g7
g8
sg9
(lp3656
sg11
(lp3657
(lp3658
I72
aI139
aI6
aa(lp3659
I72
aI137
aI71
aI96
aa(lp3660
I72
aI139
aI70
aI8
aa(lp3661
I72
aI137
aI71
aI104
aa(lp3662
I49
aI192
aa(lp3663
I195
aasg13
(I13216
I13234
tp3664
sg14
I2
sg15
g16
ssS'__builtin_memcpy'
p3665
(dp3666
g7
g8
sg9
(lp3667
sg11
(lp3668
sg13
(tsg14
I0
sg15
g16
sssS'function_calls'
p3669
(dp3670
sS'binary_filename'
p3671
S'scriptreplay'
p3672
sS'structures'
p3673
(dp3674
sS'extern_functions'
p3675
(dp3676
sS'arch'
p3677
S'amd64'
p3678
sS'bin_raw_bytes'
p3679
g8
s.