(dp0
S'text_addr'
p1
S'0x11a0'
p2
sS'functions'
p3
(dp4
S'warnx'
p5
(dp6
S'ret_type'
p7
S''
p8
sS'args_type'
p9
(lp10
sS'inst_bytes'
p11
(lp12
sS'boundaries'
p13
(tsS'num_args'
p14
I0
sS'inst_strings'
p15
(lp16
ssS'__builtin_puts'
p17
(dp18
g7
g8
sg9
(lp19
sg11
(lp20
sg13
(tsg14
I0
sg15
g16
ssS'setlocale'
p21
(dp22
g7
g8
sg9
(lp23
sg11
(lp24
sg13
(tsg14
I0
sg15
g16
ssS'atexit'
p25
(dp26
g7
g8
sg9
(lp27
sg11
(lp28
(lp29
I72
aI139
aI21
aI97
aI31
aI32
aI0
aa(lp30
I49
aI246
aa(lp31
I233
aI162
aI240
aI255
aI255
aasg13
(tsg14
I0
sg15
g16
ssS'errx'
p32
(dp33
g7
g8
sg9
(lp34
sg11
(lp35
sg13
(tsg14
I0
sg15
g16
ssS'fprintf'
p36
(dp37
g7
g8
sg9
(lp38
sg11
(lp39
sg13
(tsg14
I2
sg15
g16
ssS'close_stdout_atexit'
p40
(dp41
g7
g8
sg9
(lp42
sg11
(lp43
sg13
(tsg14
I0
sg15
g16
ssS'printf'
p44
(dp45
g7
g8
sg9
(lp46
sg11
(lp47
sg13
(tsg14
I1
sg15
g16
ssS'close'
p48
(dp49
g7
g8
sg9
(lp50
sg11
(lp51
sg13
(tsg14
I0
sg15
g16
ssS'bindtextdomain'
p52
(dp53
g7
g8
sg9
(lp54
sg11
(lp55
sg13
(tsg14
I0
sg15
g16
ssS'fflush'
p56
(dp57
g7
g8
sg9
(lp58
sg11
(lp59
sg13
(tsg14
I0
sg15
g16
ssS'dcgettext'
p60
(dp61
g7
g8
sg9
(lp62
sg11
(lp63
sg13
(tsg14
I0
sg15
g16
ssS'fputs'
p64
(dp65
g7
g8
sg9
(lp66
sg11
(lp67
sg13
(tsg14
I0
sg15
g16
ssS'exit'
p68
(dp69
g7
g8
sg9
(lp70
sg11
(lp71
sg13
(tsg14
I0
sg15
g16
ssS'usage'
p72
(dp73
g7
g8
sg9
(lp74
sg11
(lp75
sg13
(tsg14
I1
sg15
g16
ssS'main'
p76
(dp77
g7
g8
sg9
(lp78
sg11
(lp79
(lp80
I65
aI87
aa(lp81
I65
aI86
aa(lp82
I65
aI85
aa(lp83
I65
aI84
aa(lp84
I73
aI137
aI245
aa(lp85
I85
aa(lp86
I83
aa(lp87
I72
aI141
aI53
aI90
aI17
aI0
aI0
aa(lp88
I65
aI137
aI252
aa(lp89
I191
aI6
aI0
aI0
aI0
aa(lp90
I72
aI131
aI236
aI24
aa(lp91
I232
aI91
aI255
aI255
aI255
aa(lp92
I72
aI141
aI53
aI53
aI15
aI0
aI0
aa(lp93
I72
aI141
aI61
aI64
aI15
aI0
aI0
aa(lp94
I232
aI88
aI254
aI255
aI255
aa(lp95
I72
aI141
aI61
aI52
aI15
aI0
aI0
aa(lp96
I232
aI60
aI254
aI255
aI255
aa(lp97
I72
aI141
aI61
aI245
aI12
aI0
aI0
aa(lp98
I232
aI176
aI14
aI0
aI0
aa(lp99
I69
aI133
aI228
aa(lp100
I15
aI142
aI53
aI9
aI0
aI0
aa(lp101
I76
aI139
aI61
aI64
aI47
aI32
aI0
aa(lp102
I72
aI141
aI61
aI44
aI15
aI0
aI0
aa(lp103
I185
aI8
aI0
aI0
aI0
aa(lp104
I76
aI137
aI254
aa(lp105
I243
aI166
aa(lp106
I15
aI151
aI192
aa(lp107
I28
aI0
aa(lp108
I15
aI190
aI192
aa(lp109
I133
aI192
aa(lp110
I137
aI4
aI36
aa(lp111
I15
aI132
aI145
aI0
aI0
aI0
aa(lp112
I72
aI141
aI53
aI16
aI15
aI0
aI0
aa(lp113
I76
aI137
aI255
aa(lp114
I232
aI173
aI254
aI255
aI255
aa(lp115
I133
aI192
aa(lp116
I65
aI137
aI198
aa(lp117
I15
aI133
aI159
aI0
aI0
aI0
aa(lp118
I72
aI141
aI5
aI201
aI16
aI0
aI0
aa(lp119
I49
aI237
aa(lp120
I72
aI137
aI68
aI36
aI8
aa(lp121
I72
aI141
aI5
aI152
aI14
aI0
aI0
aa(lp122
I72
aI137
aI4
aI36
aa(lp123
I232
aI212
aI10
aI0
aI0
aa(lp124
I72
aI133
aI192
aa(lp125
I72
aI137
aI195
aa(lp126
I117
aI38
aa(lp127
I235
aI42
aa(lp128
I102
aI46
aI15
aI31
aI132
aI0
aI0
aa(lp129
I0
aI0
aI0
aa(lp130
I72
aI139
aI115
aI8
aa(lp131
I76
aI137
aI255
aa(lp132
I232
aI100
aI254
aI255
aI255
aa(lp133
I133
aI192
aa(lp134
I15
aI132
aI222
aI3
aI0
aI0
aa(lp135
I72
aI131
aI195
aI24
aa(lp136
I116
aI6
aa(lp137
I139
aI3
aa(lp138
I133
aI192
aa(lp139
I121
aI224
aa(lp140
I72
aI141
aI53
aI67
aI16
aI0
aI0
aa(lp141
I186
aI5
aI0
aI0
aI0
aa(lp142
I49
aI255
aa(lp143
I232
aI157
aI253
aI255
aI255
aa(lp144
I76
aI137
aI250
aa(lp145
I72
aI137
aI198
aa(lp146
I191
aI1
aI0
aI0
aI0
aa(lp147
I49
aI192
aa(lp148
I232
aI187
aI253
aI255
aI255
aa(lp149
I65
aI131
aI252
aI1
aa(lp150
I15
aI132
aI155
aI3
aI0
aI0
aa(lp151
I77
aI139
aI125
aI8
aa(lp152
I65
aI128
aI63
aI45
aa(lp153
I15
aI132
aI141
aI3
aI0
aI0
aa(lp154
I73
aI139
aI69
aI0
aa(lp155
I65
aI131
aI236
aI1
aa(lp156
I73
aI131
aI197
aI8
aa(lp157
I73
aI137
aI69
aI0
aa(lp158
I72
aI141
aI29
aI212
aI21
aI0
aI0
aa(lp159
I69
aI49
aI246
aa(lp160
I49
aI237
aa(lp161
I15
aI31
aI128
aI0
aI0
aI0
aI0
aa(lp162
I72
aI141
aI13
aI201
aI39
aI32
aI0
aa(lp163
I72
aI141
aI21
aI205
aI15
aI0
aI0
aa(lp164
I69
aI49
aI192
aa(lp165
I76
aI137
aI238
aa(lp166
I68
aI137
aI231
aa(lp167
I232
aI84
aI253
aI255
aI255
aa(lp168
I131
aI248
aI255
aa(lp169
I15
aI132
aI64
aI4
aI0
aI0
aa(lp170
I131
aI232
aI51
aa(lp171
I131
aI248
aI79
aa(lp172
I15
aI135
aI42
aI8
aI0
aI0
aa(lp173
I72
aI99
aI4
aI131
aa(lp174
I72
aI1
aI216
aa(lp175
I255
aI224
aa(lp176
I131
aI60
aI36
aI0
aa(lp177
I15
aI133
aI219
aI8
aI0
aI0
aa(lp178
I232
aI247
aI9
aI0
aI0
aa(lp179
I72
aI139
aI120
aI8
aa(lp180
I72
aI137
aI195
aa(lp181
I72
aI133
aI255
aa(lp182
I116
aI21
aa(lp183
I15
aI31
aI0
aa(lp184
I72
aI131
aI195
aI24
aa(lp185
I232
aI175
aI252
aI255
aI255
aa(lp186
I72
aI139
aI123
aI8
aa(lp187
I72
aI133
aI255
aa(lp188
I117
aI238
aa(lp189
I72
aI131
aI196
aI24
aa(lp190
I49
aI192
aa(lp191
I91
aa(lp192
I93
aa(lp193
I65
aI92
aa(lp194
I65
aI93
aa(lp195
I65
aI94
aa(lp196
I65
aI95
aa(lp197
I195
aasg13
(I4512
I7200
tp198
sg14
I2
sg15
g16
ssS'ferror'
p199
(dp200
g7
g8
sg9
(lp201
sg11
(lp202
sg13
(tsg14
I0
sg15
g16
ssS'verify_arch_domain'
p203
(dp204
g7
g8
sg9
(lp205
sg11
(lp206
(lp207
I65
aI85
aa(lp208
I65
aI84
aa(lp209
I85
aa(lp210
I83
aa(lp211
I72
aI129
aI236
aI152
aI1
aI0
aI0
aa(lp212
I100
aI72
aI139
aI4
aI37
aI40
aI0
aa(lp213
I0
aI0
aa(lp214
I72
aI137
aI132
aI36
aI136
aI1
aI0
aI0
aa(lp215
I49
aI192
aa(lp216
I72
aI133
aI255
aa(lp217
I15
aI132
aI199
aI0
aI0
aI0
aa(lp218
I72
aI131
aI127
aI16
aI0
aa(lp219
I72
aI137
aI251
aa(lp220
I15
aI132
aI185
aI0
aI0
aI0
aa(lp221
I72
aI137
aI229
aa(lp222
I73
aI137
aI244
aa(lp223
I72
aI137
aI239
aa(lp224
I72
aI129
aI197
aI4
aI1
aI0
aI0
aa(lp225
I232
aI132
aI242
aI255
aI255
aa(lp226
I76
aI139
aI107
aI16
aa(lp227
I72
aI137
aI239
aa(lp228
I76
aI137
aI238
aa(lp229
I232
aI197
aI242
aI255
aI255
aa(lp230
I133
aI192
aa(lp231
I15
aI132
aI141
aI0
aI0
aI0
aa(lp232
I72
aI141
aI53
aI154
aI2
aI0
aI0
aa(lp233
I76
aI137
aI239
aa(lp234
I232
aI174
aI242
aI255
aI255
aa(lp235
I133
aI192
aa(lp236
I117
aI76
aa(lp237
I72
aI141
aI53
aI140
aI2
aI0
aI0
aa(lp238
I72
aI137
aI239
aa(lp239
I232
aI155
aI242
aI255
aI255
aa(lp240
I133
aI192
aa(lp241
I116
aI103
aa(lp242
I72
aI141
aI53
aI126
aI2
aI0
aI0
aa(lp243
I72
aI137
aI239
aa(lp244
I232
aI136
aI242
aI255
aI255
aa(lp245
I133
aI192
aa(lp246
I116
aI84
aa(lp247
I72
aI141
aI53
aI112
aI2
aI0
aI0
aa(lp248
I72
aI137
aI239
aa(lp249
I232
aI117
aI242
aI255
aI255
aa(lp250
I133
aI192
aa(lp251
I116
aI65
aa(lp252
I72
aI141
aI53
aI98
aI2
aI0
aI0
aa(lp253
I72
aI137
aI239
aa(lp254
I232
aI98
aI242
aI255
aI255
aa(lp255
I133
aI192
aa(lp256
I116
aI46
aa(lp257
I72
aI141
aI53
aI95
aI5
aI0
aI0
aa(lp258
I186
aI5
aI0
aI0
aI0
aa(lp259
I49
aI255
aa(lp260
I232
aI171
aI241
aI255
aI255
aa(lp261
I76
aI137
aI226
aa(lp262
I72
aI137
aI198
aa(lp263
I191
aI1
aI0
aI0
aI0
aa(lp264
I49
aI192
aa(lp265
I232
aI201
aI241
aI255
aI255
aa(lp266
I102
aI15
aI31
aI132
aI0
aI0
aI0
aa(lp267
I0
aI0
aa(lp268
I72
aI139
aI132
aI36
aI136
aI1
aI0
aI0
aa(lp269
I100
aI72
aI51
aI4
aI37
aI40
aI0
aa(lp270
I0
aI0
aa(lp271
I117
aI14
aa(lp272
I72
aI129
aI196
aI152
aI1
aI0
aI0
aa(lp273
I91
aa(lp274
I93
aa(lp275
I65
aI92
aa(lp276
I65
aI93
aa(lp277
I195
aasg13
(I7616
I7894
tp278
sg14
I2
sg15
g16
ssS'flush_standard_stream'
p279
(dp280
g7
g8
sg9
(lp281
sg11
(lp282
sg13
(tsg14
I1
sg15
g16
ssS'__printf_chk'
p283
(dp284
g7
g8
sg9
(lp285
sg11
(lp286
sg13
(tsg14
I0
sg15
g16
ssS'execvp'
p287
(dp288
g7
g8
sg9
(lp289
sg11
(lp290
sg13
(tsg14
I0
sg15
g16
ssS'warn'
p291
(dp292
g7
g8
sg9
(lp293
sg11
(lp294
sg13
(tsg14
I0
sg15
g16
ssS'dup'
p295
(dp296
g7
g8
sg9
(lp297
sg11
(lp298
sg13
(tsg14
I0
sg15
g16
ssS'init_arch_domains'
p299
(dp300
g7
g8
sg9
(lp301
sg11
(lp302
(lp303
I65
aI84
aa(lp304
I72
aI141
aI61
aI71
aI36
aI32
aI0
aa(lp305
I85
aa(lp306
I83
aa(lp307
I232
aI80
aI243
aI255
aI255
aa(lp308
I139
aI21
aI218
aI34
aI32
aI0
aa(lp309
I133
aI210
aa(lp310
I120
aI64
aa(lp311
I72
aI141
aI29
aI215
aI34
aI32
aI0
aa(lp312
I49
aI237
aa(lp313
I76
aI141
aI37
aI42
aI37
aI32
aI0
aa(lp314
I235
aI19
aa(lp315
I15
aI31
aI64
aI0
aa(lp316
I72
aI131
aI195
aI24
aa(lp317
I139
aI67
aI248
aa(lp318
I72
aI131
aI197
aI1
aa(lp319
I133
aI192
aa(lp320
I120
aI29
aa(lp321
I72
aI139
aI51
aa(lp322
I76
aI137
aI231
aa(lp323
I232
aI102
aI243
aI255
aI255
aa(lp324
I133
aI192
aa(lp325
I117
aI226
aa(lp326
I91
aa(lp327
I72
aI141
aI5
aI154
aI34
aI32
aI0
aa(lp328
I93
aa(lp329
I65
aI92
aa(lp330
I195
aasg13
(I7472
I7602
tp331
sg14
I0
sg15
g16
ssS'list_arch_domains'
p332
(dp333
g7
g8
sg9
(lp334
sg11
(lp335
sg13
(tsg14
I1
sg15
g16
ssS'get_arch_domain'
p336
(dp337
g7
g8
sg9
(lp338
sg11
(lp339
sg13
(tsg14
I2
sg15
g16
ssS'getopt_long'
p340
(dp341
g7
g8
sg9
(lp342
sg11
(lp343
sg13
(tsg14
I0
sg15
g16
ssS'execl'
p344
(dp345
g7
g8
sg9
(lp346
sg11
(lp347
sg13
(tsg14
I0
sg15
g16
ssS'fileno'
p348
(dp349
g7
g8
sg9
(lp350
sg11
(lp351
sg13
(tsg14
I0
sg15
g16
ssS'err'
p352
(dp353
g7
g8
sg9
(lp354
sg11
(lp355
sg13
(tsg14
I0
sg15
g16
ssS'__fprintf_chk'
p356
(dp357
g7
g8
sg9
(lp358
sg11
(lp359
sg13
(tsg14
I0
sg15
g16
ssS'__errno_location'
p360
(dp361
g7
g8
sg9
(lp362
sg11
(lp363
sg13
(tsg14
I0
sg15
g16
ssS'__stack_chk_fail'
p364
(dp365
g7
g8
sg9
(lp366
sg11
(lp367
sg13
(tsg14
I0
sg15
g16
ssS'__builtin_fputc'
p368
(dp369
g7
g8
sg9
(lp370
sg11
(lp371
sg13
(tsg14
I0
sg15
g16
ssS'close_stdout'
p372
(dp373
g7
g8
sg9
(lp374
sg11
(lp375
(lp376
I85
aa(lp377
I83
aa(lp378
I72
aI131
aI236
aI8
aa(lp379
I72
aI139
aI45
aI91
aI34
aI32
aI0
aa(lp380
I232
aI222
aI240
aI255
aI255
aa(lp381
I199
aI0
aI0
aI0
aI0
aI0
aa(lp382
I72
aI137
aI195
aa(lp383
I72
aI137
aI239
aa(lp384
I232
aI13
aI241
aI255
aI255
aa(lp385
I133
aI192
aa(lp386
I116
aI121
aa(lp387
I139
aI3
aa(lp388
I131
aI248
aI9
aa(lp389
I117
aI50
aa(lp390
I72
aI139
aI45
aI75
aI34
aI32
aI0
aa(lp391
I199
aI3
aI0
aI0
aI0
aI0
aa(lp392
I72
aI137
aI239
aa(lp393
I232
aI237
aI240
aI255
aI255
aa(lp394
I133
aI192
aa(lp395
I15
aI132
aI157
aI0
aI0
aI0
aa(lp396
I131
aI59
aI9
aa(lp397
I117
aI64
aa(lp398
I72
aI131
aI196
aI8
aa(lp399
I91
aa(lp400
I93
aa(lp401
I195
aasg13
(I7904
I8223
tp402
sg14
I0
sg15
g16
ssS'textdomain'
p403
(dp404
g7
g8
sg9
(lp405
sg11
(lp406
sg13
(tsg14
I0
sg15
g16
ssS'uname'
p407
(dp408
g7
g8
sg9
(lp409
sg11
(lp410
sg13
(tsg14
I0
sg15
g16
ssS'_exit'
p411
(dp412
g7
g8
sg9
(lp413
sg11
(lp414
sg13
(tsg14
I0
sg15
g16
ssS'personality'
p415
(dp416
g7
g8
sg9
(lp417
sg11
(lp418
sg13
(tsg14
I0
sg15
g16
ssS'strcmp'
p419
(dp420
g7
g8
sg9
(lp421
sg11
(lp422
sg13
(tsg14
I0
sg15
g16
sssS'function_calls'
p423
(dp424
sS'binary_filename'
p425
S'setarch'
p426
sS'structures'
p427
(dp428
sS'extern_functions'
p429
(dp430
sS'arch'
p431
S'amd64'
p432
sS'bin_raw_bytes'
p433
g8
s.