(dp0
S'text_addr'
p1
S'0xf30'
p2
sS'functions'
p3
(dp4
S'fork'
p5
(dp6
S'ret_type'
p7
S''
p8
sS'args_type'
p9
(lp10
sS'inst_bytes'
p11
(lp12
sS'boundaries'
p13
(tsS'num_args'
p14
I0
sS'inst_strings'
p15
(lp16
ssS'setlocale'
p17
(dp18
g7
g8
sg9
(lp19
sg11
(lp20
sg13
(tsg14
I0
sg15
g16
ssS'__fprintf_chk'
p21
(dp22
g7
g8
sg9
(lp23
sg11
(lp24
sg13
(tsg14
I0
sg15
g16
ssS'fprintf'
p25
(dp26
g7
g8
sg9
(lp27
sg11
(lp28
sg13
(tsg14
I2
sg15
g16
ssS'close_stdout_atexit'
p29
(dp30
g7
g8
sg9
(lp31
sg11
(lp32
sg13
(tsg14
I0
sg15
g16
ssS'printf'
p33
(dp34
g7
g8
sg9
(lp35
sg11
(lp36
sg13
(tsg14
I1
sg15
g16
ssS'close'
p37
(dp38
g7
g8
sg9
(lp39
sg11
(lp40
sg13
(tsg14
I0
sg15
g16
ssS'bindtextdomain'
p41
(dp42
g7
g8
sg9
(lp43
sg11
(lp44
sg13
(tsg14
I0
sg15
g16
ssS'fflush'
p45
(dp46
g7
g8
sg9
(lp47
sg11
(lp48
sg13
(tsg14
I0
sg15
g16
ssS'dcgettext'
p49
(dp50
g7
g8
sg9
(lp51
sg11
(lp52
sg13
(tsg14
I0
sg15
g16
ssS'warnx'
p53
(dp54
g7
g8
sg9
(lp55
sg11
(lp56
sg13
(tsg14
I0
sg15
g16
ssS'fputs'
p57
(dp58
g7
g8
sg9
(lp59
sg11
(lp60
sg13
(tsg14
I0
sg15
g16
ssS'setsid'
p61
(dp62
g7
g8
sg9
(lp63
sg11
(lp64
sg13
(tsg14
I0
sg15
g16
ssS'exit'
p65
(dp66
g7
g8
sg9
(lp67
sg11
(lp68
sg13
(tsg14
I0
sg15
g16
ssS'getpid'
p69
(dp70
g7
g8
sg9
(lp71
sg11
(lp72
sg13
(tsg14
I0
sg15
g16
ssS'usage'
p73
(dp74
g7
g8
sg9
(lp75
sg11
(lp76
sg13
(tsg14
I0
sg15
g16
ssS'main'
p77
(dp78
g7
g8
sg9
(lp79
sg11
(lp80
(lp81
I65
aI86
aa(lp82
I65
aI85
aa(lp83
I69
aI49
aI246
aa(lp84
I65
aI84
aa(lp85
I85
aa(lp86
I73
aI137
aI244
aa(lp87
I83
aa(lp88
I72
aI141
aI53
aI33
aI8
aI0
aI0
aa(lp89
I137
aI253
aa(lp90
I191
aI6
aI0
aI0
aI0
aa(lp91
I72
aI141
aI29
aI229
aI9
aI0
aI0
aa(lp92
I69
aI49
aI237
aa(lp93
I72
aI131
aI236
aI16
aa(lp94
I100
aI72
aI139
aI4
aI37
aI40
aI0
aa(lp95
I0
aI0
aa(lp96
I72
aI137
aI68
aI36
aI8
aa(lp97
I49
aI192
aa(lp98
I199
aI68
aI36
aI4
aI0
aI0
aI0
aI0
aa(lp99
I232
aI25
aI255
aI255
aI255
aa(lp100
I72
aI141
aI53
aI50
aI7
aI0
aI0
aa(lp101
I72
aI141
aI61
aI61
aI7
aI0
aI0
aa(lp102
I232
aI38
aI254
aI255
aI255
aa(lp103
I72
aI141
aI61
aI49
aI7
aI0
aI0
aa(lp104
I232
aI10
aI254
aI255
aI255
aa(lp105
I72
aI141
aI61
aI35
aI5
aI0
aI0
aa(lp106
I232
aI222
aI6
aI0
aI0
aa(lp107
I72
aI141
aI13
aI119
aI12
aI32
aI0
aa(lp108
I72
aI141
aI21
aI231
aI7
aI0
aI0
aa(lp109
I69
aI49
aI192
aa(lp110
I76
aI137
aI230
aa(lp111
I137
aI239
aa(lp112
I232
aI35
aI254
aI255
aI255
aa(lp113
I131
aI248
aI255
aa(lp114
I15
aI132
aI133
aI0
aI0
aI0
aa(lp115
I131
aI232
aI86
aa(lp116
I131
aI248
aI33
aa(lp117
I15
aI135
aI255
aI2
aI0
aI0
aa(lp118
I72
aI99
aI4
aI131
aa(lp119
I72
aI1
aI216
aa(lp120
I255
aI224
aa(lp121
I15
aI31
aI68
aI0
aI0
aa(lp122
I199
aI68
aI36
aI4
aI1
aI0
aI0
aI0
aa(lp123
I235
aI184
aa(lp124
I102
aI15
aI31
aI68
aI0
aI0
aa(lp125
I65
aI189
aI1
aI0
aI0
aI0
aa(lp126
I235
aI170
aa(lp127
I15
aI31
aI132
aI0
aI0
aI0
aI0
aI0
aa(lp128
I72
aI139
aI29
aI25
aI16
aI32
aI0
aa(lp129
I72
aI141
aI53
aI99
aI7
aI0
aI0
aa(lp130
I186
aI5
aI0
aI0
aI0
aa(lp131
I49
aI255
aa(lp132
I232
aI166
aI253
aI255
aI255
aa(lp133
I72
aI141
aI13
aI92
aI7
aI0
aI0
aa(lp134
I72
aI137
aI198
aa(lp135
I191
aI1
aI0
aI0
aI0
aa(lp136
I72
aI137
aI218
aa(lp137
I49
aI192
aa(lp138
I232
aI109
aI254
aI255
aI255
aa(lp139
I49
aI255
aa(lp140
I232
aI166
aI254
aI255
aI255
aa(lp141
I102
aI15
aI31
aI68
aI0
aI0
aa(lp142
I65
aI190
aI1
aI0
aI0
aI0
aa(lp143
I233
aI87
aI255
aI255
aI255
aa(lp144
I43
aI45
aI223
aI15
aI32
aI0
aa(lp145
I133
aI237
aa(lp146
I15
aI142
aI91
aI2
aI0
aI0
aa(lp147
I69
aI133
aI237
aa(lp148
I15
aI133
aI150
aI0
aI0
aI0
aa(lp149
I232
aI73
aI254
aI255
aI255
aa(lp150
I137
aI195
aa(lp151
I232
aI34
aI253
aI255
aI255
aa(lp152
I57
aI195
aa(lp153
I15
aI132
aI130
aI0
aI0
aI0
aa(lp154
I232
aI197
aI253
aI255
aI255
aa(lp155
I133
aI192
aa(lp156
I15
aI136
aI224
aI2
aI0
aI0
aa(lp157
I69
aI133
aI246
aa(lp158
I116
aI27
aa(lp159
I49
aI255
aa(lp160
I49
aI192
aa(lp161
I186
aI1
aI0
aI0
aI0
aa(lp162
I190
aI14
aI84
aI0
aI0
aa(lp163
I232
aI133
aI253
aI255
aI255
aa(lp164
I133
aI192
aa(lp165
I15
aI133
aI107
aI2
aI0
aI0
aa(lp166
I72
aI99
aI5
aI134
aI15
aI32
aI0
aa(lp167
I73
aI141
aI4
aI196
aa(lp168
I72
aI139
aI56
aa(lp169
I72
aI137
aI198
aa(lp170
I232
aI7
aI254
aI255
aI255
aa(lp171
I72
aI99
aI5
aI112
aI15
aI32
aI0
aa(lp172
I72
aI141
aI53
aI4
aI7
aI0
aI0
aa(lp173
I49
aI255
aa(lp174
I186
aI5
aI0
aI0
aI0
aa(lp175
I73
aI139
aI44
aI196
aa(lp176
I232
aI233
aI252
aI255
aI255
aa(lp177
I72
aI137
aI195
aa(lp178
I232
aI113
aI252
aI255
aI255
aa(lp179
I49
aI255
aa(lp180
I131
aI56
aI2
aa(lp181
I72
aI137
aI234
aa(lp182
I72
aI137
aI222
aa(lp183
I64
aI15
aI148
aI199
aa(lp184
I49
aI192
aa(lp185
I131
aI199
aI126
aa(lp186
I232
aI120
aI253
aI255
aI255
aa(lp187
I232
aI19
aI254
aI255
aI255
aa(lp188
I131
aI248
aI255
aa(lp189
I137
aI195
aa(lp190
I15
aI132
aI77
aI2
aI0
aI0
aa(lp191
I133
aI192
aa(lp192
I15
aI132
aI102
aI255
aI255
aI255
aa(lp193
I139
aI68
aI36
aI4
aa(lp194
I133
aI192
aa(lp195
I15
aI133
aI20
aI2
aI0
aI0
aa(lp196
I72
aI139
aI76
aI36
aI8
aa(lp197
I100
aI72
aI51
aI12
aI37
aI40
aI0
aa(lp198
I0
aI0
aa(lp199
I15
aI133
aI32
aI2
aI0
aI0
aa(lp200
I72
aI131
aI196
aI16
aa(lp201
I91
aa(lp202
I93
aa(lp203
I65
aI92
aa(lp204
I65
aI93
aa(lp205
I65
aI94
aa(lp206
I195
aasg13
(I3888
I5031
tp207
sg14
I2
sg15
g16
ssS'ferror'
p208
(dp209
g7
g8
sg9
(lp210
sg11
(lp211
sg13
(tsg14
I0
sg15
g16
ssS'flush_standard_stream'
p212
(dp213
g7
g8
sg9
(lp214
sg11
(lp215
sg13
(tsg14
I1
sg15
g16
ssS'__printf_chk'
p216
(dp217
g7
g8
sg9
(lp218
sg11
(lp219
sg13
(tsg14
I0
sg15
g16
ssS'execvp'
p220
(dp221
g7
g8
sg9
(lp222
sg11
(lp223
sg13
(tsg14
I0
sg15
g16
ssS'warn'
p224
(dp225
g7
g8
sg9
(lp226
sg11
(lp227
sg13
(tsg14
I0
sg15
g16
ssS'dup'
p228
(dp229
g7
g8
sg9
(lp230
sg11
(lp231
sg13
(tsg14
I0
sg15
g16
ssS'ioctl'
p232
(dp233
g7
g8
sg9
(lp234
sg11
(lp235
sg13
(tsg14
I0
sg15
g16
ssS'getpgrp'
p236
(dp237
g7
g8
sg9
(lp238
sg11
(lp239
sg13
(tsg14
I0
sg15
g16
ssS'getopt_long'
p240
(dp241
g7
g8
sg9
(lp242
sg11
(lp243
sg13
(tsg14
I0
sg15
g16
ssS'wait'
p244
(dp245
g7
g8
sg9
(lp246
sg11
(lp247
sg13
(tsg14
I0
sg15
g16
ssS'fileno'
p248
(dp249
g7
g8
sg9
(lp250
sg11
(lp251
sg13
(tsg14
I0
sg15
g16
ssS'err'
p252
(dp253
g7
g8
sg9
(lp254
sg11
(lp255
sg13
(tsg14
I0
sg15
g16
ssS'atexit'
p256
(dp257
g7
g8
sg9
(lp258
sg11
(lp259
(lp260
I72
aI139
aI21
aI129
aI9
aI32
aI0
aa(lp261
I49
aI246
aa(lp262
I233
aI66
aI248
aI255
aI255
aasg13
(tsg14
I0
sg15
g16
ssS'__errno_location'
p263
(dp264
g7
g8
sg9
(lp265
sg11
(lp266
sg13
(tsg14
I0
sg15
g16
ssS'__stack_chk_fail'
p267
(dp268
g7
g8
sg9
(lp269
sg11
(lp270
sg13
(tsg14
I0
sg15
g16
ssS'__builtin_fputc'
p271
(dp272
g7
g8
sg9
(lp273
sg11
(lp274
sg13
(tsg14
I0
sg15
g16
ssS'close_stdout'
p275
(dp276
g7
g8
sg9
(lp277
sg11
(lp278
(lp279
I85
aa(lp280
I83
aa(lp281
I72
aI131
aI236
aI8
aa(lp282
I72
aI139
aI45
aI91
aI11
aI32
aI0
aa(lp283
I232
aI126
aI248
aI255
aI255
aa(lp284
I199
aI0
aI0
aI0
aI0
aI0
aa(lp285
I72
aI137
aI195
aa(lp286
I72
aI137
aI239
aa(lp287
I232
aI157
aI248
aI255
aI255
aa(lp288
I133
aI192
aa(lp289
I116
aI121
aa(lp290
I139
aI3
aa(lp291
I131
aI248
aI9
aa(lp292
I117
aI50
aa(lp293
I72
aI139
aI45
aI75
aI11
aI32
aI0
aa(lp294
I199
aI3
aI0
aI0
aI0
aI0
aa(lp295
I72
aI137
aI239
aa(lp296
I232
aI125
aI248
aI255
aI255
aa(lp297
I133
aI192
aa(lp298
I15
aI132
aI157
aI0
aI0
aI0
aa(lp299
I131
aI59
aI9
aa(lp300
I117
aI64
aa(lp301
I72
aI131
aI196
aI8
aa(lp302
I91
aa(lp303
I93
aa(lp304
I195
aasg13
(I5312
I5631
tp305
sg14
I0
sg15
g16
ssS'textdomain'
p306
(dp307
g7
g8
sg9
(lp308
sg11
(lp309
sg13
(tsg14
I0
sg15
g16
ssS'_exit'
p310
(dp311
g7
g8
sg9
(lp312
sg11
(lp313
sg13
(tsg14
I0
sg15
g16
sssS'function_calls'
p314
(dp315
sS'binary_filename'
p316
S'setsid'
p317
sS'structures'
p318
(dp319
sS'extern_functions'
p320
(dp321
sS'arch'
p322
S'amd64'
p323
sS'bin_raw_bytes'
p324
g8
s.