(dp0
S'text_addr'
p1
S'0x11a0'
p2
sS'functions'
p3
(dp4
S'warnx'
p5
(dp6
S'ret_type'
p7
S''
p8
sS'args_type'
p9
(lp10
sS'inst_bytes'
p11
(lp12
sS'boundaries'
p13
(tsS'num_args'
p14
I0
sS'inst_strings'
p15
(lp16
ssS'snprintf'
p17
(dp18
g7
g8
sg9
(lp19
sg11
(lp20
sg13
(tsg14
I3
sg15
g16
ssS'ferror'
p21
(dp22
g7
g8
sg9
(lp23
sg11
(lp24
sg13
(tsg14
I0
sg15
g16
ssS'umount2'
p25
(dp26
g7
g8
sg9
(lp27
sg11
(lp28
sg13
(tsg14
I0
sg15
g16
ssS'__openat_alias'
p29
(dp30
g7
g8
sg9
(lp31
sg11
(lp32
sg13
(tsg14
I0
sg15
g16
ssS'__fprintf_chk'
p33
(dp34
g7
g8
sg9
(lp35
sg11
(lp36
sg13
(tsg14
I0
sg15
g16
ssS'errx'
p37
(dp38
g7
g8
sg9
(lp39
sg11
(lp40
sg13
(tsg14
I0
sg15
g16
ssS'fprintf'
p41
(dp42
g7
g8
sg9
(lp43
sg11
(lp44
sg13
(tsg14
I2
sg15
g16
ssS'close_stdout_atexit'
p45
(dp46
g7
g8
sg9
(lp47
sg11
(lp48
sg13
(tsg14
I0
sg15
g16
ssS'printf'
p49
(dp50
g7
g8
sg9
(lp51
sg11
(lp52
sg13
(tsg14
I1
sg15
g16
ssS'close'
p53
(dp54
g7
g8
sg9
(lp55
sg11
(lp56
sg13
(tsg14
I0
sg15
g16
ssS'fflush'
p57
(dp58
g7
g8
sg9
(lp59
sg11
(lp60
sg13
(tsg14
I0
sg15
g16
ssS'open'
p61
(dp62
g7
g8
sg9
(lp63
sg11
(lp64
sg13
(tsg14
I2
sg15
g16
ssS'fstatfs'
p65
(dp66
g7
g8
sg9
(lp67
sg11
(lp68
sg13
(tsg14
I0
sg15
g16
ssS'chroot'
p69
(dp70
g7
g8
sg9
(lp71
sg11
(lp72
sg13
(tsg14
I0
sg15
g16
ssS'dcgettext'
p73
(dp74
g7
g8
sg9
(lp75
sg11
(lp76
sg13
(tsg14
I0
sg15
g16
ssS'__fxstatat'
p77
(dp78
g7
g8
sg9
(lp79
sg11
(lp80
sg13
(tsg14
I0
sg15
g16
ssS'access'
p81
(dp82
g7
g8
sg9
(lp83
sg11
(lp84
sg13
(tsg14
I0
sg15
g16
ssS'fputs'
p85
(dp86
g7
g8
sg9
(lp87
sg11
(lp88
sg13
(tsg14
I0
sg15
g16
ssS'exit'
p89
(dp90
g7
g8
sg9
(lp91
sg11
(lp92
sg13
(tsg14
I0
sg15
g16
ssS'__fxstat'
p93
(dp94
g7
g8
sg9
(lp95
sg11
(lp96
sg13
(tsg14
I0
sg15
g16
ssS'usage'
p97
(dp98
g7
g8
sg9
(lp99
sg11
(lp100
sg13
(tsg14
I0
sg15
g16
ssS'main'
p101
(dp102
g7
g8
sg9
(lp103
sg11
(lp104
(lp105
I85
aa(lp106
I83
aa(lp107
I137
aI253
aa(lp108
I72
aI141
aI61
aI85
aI9
aI0
aI0
aa(lp109
I72
aI137
aI243
aa(lp110
I72
aI131
aI236
aI8
aa(lp111
I232
aI9
aI11
aI0
aI0
aa(lp112
I72
aI141
aI13
aI98
aI26
aI32
aI0
aa(lp113
I72
aI141
aI21
aI233
aI11
aI0
aI0
aa(lp114
I69
aI49
aI192
aa(lp115
I72
aI137
aI222
aa(lp116
I137
aI239
aa(lp117
I232
aI30
aI254
aI255
aI255
aa(lp118
I131
aI248
aI255
aa(lp119
I15
aI132
aI105
aI1
aI0
aI0
aa(lp120
I131
aI248
aI86
aa(lp121
I15
aI132
aI38
aI1
aI0
aI0
aa(lp122
I131
aI248
aI104
aa(lp123
I15
aI133
aI140
aI1
aI0
aI0
aa(lp124
I72
aI139
aI29
aI52
aI30
aI32
aI0
aa(lp125
I72
aI141
aI53
aI221
aI11
aI0
aI0
aa(lp126
I186
aI5
aI0
aI0
aI0
aa(lp127
I49
aI255
aa(lp128
I232
aI153
aI253
aI255
aI255
aa(lp129
I72
aI137
aI222
aa(lp130
I72
aI137
aI199
aa(lp131
I232
aI46
aI254
aI255
aI255
aa(lp132
I72
aI139
aI45
aI7
aI30
aI32
aI0
aa(lp133
I72
aI141
aI53
aI40
aI13
aI0
aI0
aa(lp134
I186
aI5
aI0
aI0
aI0
aa(lp135
I49
aI255
aa(lp136
I232
aI116
aI253
aI255
aI255
aa(lp137
I72
aI137
aI233
aa(lp138
I72
aI137
aI194
aa(lp139
I72
aI137
aI223
aa(lp140
I190
aI1
aI0
aI0
aI0
aa(lp141
I49
aI192
aa(lp142
I232
aI31
aI255
aI255
aI255
aa(lp143
I72
aI137
aI222
aa(lp144
I191
aI10
aI0
aI0
aI0
aa(lp145
I232
aI34
aI254
aI255
aI255
aa(lp146
I72
aI141
aI53
aI43
aI13
aI0
aI0
aa(lp147
I186
aI5
aI0
aI0
aI0
aa(lp148
I49
aI255
aa(lp149
I232
aI63
aI253
aI255
aI255
aa(lp150
I72
aI137
aI222
aa(lp151
I72
aI137
aI199
aa(lp152
I232
aI212
aI253
aI255
aI255
aa(lp153
I72
aI141
aI53
aI110
aI11
aI0
aI0
aa(lp154
I186
aI5
aI0
aI0
aI0
aa(lp155
I49
aI255
aa(lp156
I232
aI33
aI253
aI255
aI255
aa(lp157
I72
aI137
aI222
aa(lp158
I72
aI137
aI199
aa(lp159
I232
aI182
aI253
aI255
aI255
aa(lp160
I72
aI141
aI53
aI91
aI11
aI0
aI0
aa(lp161
I186
aI5
aI0
aI0
aI0
aa(lp162
I49
aI255
aa(lp163
I232
aI3
aI253
aI255
aI255
aa(lp164
I72
aI141
aI53
aI88
aI11
aI0
aI0
aa(lp165
I186
aI5
aI0
aI0
aI0
aa(lp166
I49
aI255
aa(lp167
I72
aI137
aI195
aa(lp168
I232
aI237
aI252
aI255
aI255
aa(lp169
I76
aI141
aI5
aI84
aI11
aI0
aI0
aa(lp170
I72
aI141
aI21
aI92
aI11
aI0
aI0
aa(lp171
I72
aI141
aI53
aI97
aI11
aI0
aI0
aa(lp172
I72
aI137
aI193
aa(lp173
I73
aI137
aI217
aa(lp174
I191
aI1
aI0
aI0
aI0
aa(lp175
I49
aI192
aa(lp176
I232
aI22
aI254
aI255
aI255
aa(lp177
I72
aI141
aI53
aI89
aI11
aI0
aI0
aa(lp178
I186
aI5
aI0
aI0
aI0
aa(lp179
I49
aI255
aa(lp180
I232
aI179
aI252
aI255
aI255
aa(lp181
I72
aI141
aI21
aI97
aI11
aI0
aI0
aa(lp182
I72
aI137
aI198
aa(lp183
I191
aI1
aI0
aI0
aI0
aa(lp184
I49
aI192
aa(lp185
I232
aI237
aI253
aI255
aI255
aa(lp186
I49
aI255
aa(lp187
I232
aI70
aI254
aI255
aI255
aa(lp188
I72
aI139
aI29
aI15
aI29
aI32
aI0
aa(lp189
I72
aI141
aI53
aI154
aI10
aI0
aI0
aa(lp190
I186
aI5
aI0
aI0
aI0
aa(lp191
I49
aI255
aa(lp192
I232
aI124
aI252
aI255
aI255
aa(lp193
I72
aI141
aI13
aI147
aI10
aI0
aI0
aa(lp194
I72
aI137
aI198
aa(lp195
I191
aI1
aI0
aI0
aI0
aa(lp196
I72
aI137
aI218
aa(lp197
I49
aI192
aa(lp198
I232
aI179
aI253
aI255
aI255
aa(lp199
I49
aI255
aa(lp200
I232
aI12
aI254
aI255
aI255
aa(lp201
I131
aI253
aI2
aa(lp202
I126
aI109
aa(lp203
I72
aI139
aI123
aI8
aa(lp204
I128
aI63
aI0
aa(lp205
I116
aI10
aa(lp206
I72
aI139
aI107
aI16
aa(lp207
I128
aI125
aI0
aI0
aa(lp208
I117
aI104
aa(lp209
I72
aI141
aI53
aI22
aI11
aI0
aI0
aa(lp210
I186
aI5
aI0
aI0
aI0
aa(lp211
I49
aI255
aa(lp212
I232
aI49
aI252
aI255
aI255
aa(lp213
I72
aI137
aI199
aa(lp214
I49
aI192
aa(lp215
I232
aI151
aI252
aI255
aI255
aa(lp216
I72
aI141
aI53
aI64
aI12
aI0
aI0
aa(lp217
I72
aI139
aI29
aI153
aI28
aI32
aI0
aa(lp218
I186
aI5
aI0
aI0
aI0
aa(lp219
I49
aI255
aa(lp220
I232
aI13
aI252
aI255
aI255
aa(lp221
I72
aI139
aI61
aI166
aI28
aI32
aI0
aa(lp222
I72
aI137
aI194
aa(lp223
I72
aI137
aI217
aa(lp224
I190
aI1
aI0
aI0
aI0
aa(lp225
I49
aI192
aa(lp226
I232
aI180
aI253
aI255
aI255
aa(lp227
I191
aI1
aI0
aI0
aI0
aa(lp228
I232
aI154
aI253
aI255
aI255
aa(lp229
I186
aI5
aI0
aI0
aI0
aa(lp230
I72
aI141
aI53
aI162
aI10
aI0
aI0
aa(lp231
I235
aI164
aa(lp232
I232
aI7
aI4
aI0
aI0
aa(lp233
I133
aI192
aa(lp234
I117
aI81
aa(lp235
I190
aI1
aI0
aI0
aI0
aa(lp236
I72
aI137
aI239
aa(lp237
I232
aI54
aI253
aI255
aI255
aa(lp238
I133
aI192
aa(lp239
I117
aI98
aa(lp240
I72
aI141
aI115
aI16
aa(lp241
I72
aI137
aI239
aa(lp242
I232
aI134
aI253
aI255
aI255
aa(lp243
I72
aI141
aI53
aI178
aI10
aI0
aI0
aa(lp244
I49
aI255
aa(lp245
I186
aI5
aI0
aI0
aI0
aa(lp246
I232
aI163
aI251
aI255
aI255
aa(lp247
I72
aI137
aI195
aa(lp248
I232
aI43
aI251
aI255
aI255
aa(lp249
I49
aI255
aa(lp250
I131
aI56
aI2
aa(lp251
I72
aI137
aI234
aa(lp252
I72
aI137
aI222
aa(lp253
I64
aI15
aI148
aI199
aa(lp254
I49
aI192
aa(lp255
I131
aI199
aI126
aa(lp256
I232
aI162
aI252
aI255
aI255
aa(lp257
I72
aI141
aI53
aI94
aI10
aI0
aI0
aa(lp258
I49
aI255
aa(lp259
I186
aI5
aI0
aI0
aI0
aa(lp260
I232
aI111
aI251
aI255
aI255
aa(lp261
I191
aI1
aI0
aI0
aI0
aa(lp262
I72
aI137
aI198
aa(lp263
I49
aI192
aa(lp264
I232
aI192
aI251
aI255
aI255
aa(lp265
I72
aI141
aI53
aI75
aI10
aI0
aI0
aa(lp266
I49
aI255
aa(lp267
I186
aI5
aI0
aI0
aI0
aa(lp268
I232
aI77
aI251
aI255
aI255
aa(lp269
I72
aI137
aI238
aa(lp270
I72
aI137
aI199
aa(lp271
I49
aI192
aa(lp272
I232
aI0
aI251
aI255
aI255
aa(lp273
I233
aI121
aI255
aI255
aI255
aa(lp274
I102
aI46
aI15
aI31
aI132
aI0
aI0
aa(lp275
I0
aI0
aI0
aa(lp276
I144
aasg13
(I4512
I5221
tp277
sg14
I2
sg15
g16
ssS'fstat'
p278
(dp279
g7
g8
sg9
(lp280
sg11
(lp281
sg13
(tsg14
I2
sg15
g16
ssS'dup'
p282
(dp283
g7
g8
sg9
(lp284
sg11
(lp285
sg13
(tsg14
I0
sg15
g16
ssS'flush_standard_stream'
p286
(dp287
g7
g8
sg9
(lp288
sg11
(lp289
sg13
(tsg14
I1
sg15
g16
ssS'stat'
p290
(dp291
g7
g8
sg9
(lp292
sg11
(lp293
sg13
(tsg14
I2
sg15
g16
ssS'openat'
p294
(dp295
g7
g8
sg9
(lp296
sg11
(lp297
sg13
(tsg14
I3
sg15
g16
ssS'__printf_chk'
p298
(dp299
g7
g8
sg9
(lp300
sg11
(lp301
sg13
(tsg14
I0
sg15
g16
ssS'__xstat'
p302
(dp303
g7
g8
sg9
(lp304
sg11
(lp305
sg13
(tsg14
I0
sg15
g16
ssS'warn'
p306
(dp307
g7
g8
sg9
(lp308
sg11
(lp309
sg13
(tsg14
I0
sg15
g16
ssS'closedir'
p310
(dp311
g7
g8
sg9
(lp312
sg11
(lp313
sg13
(tsg14
I0
sg15
g16
ssS'fdopendir'
p314
(dp315
g7
g8
sg9
(lp316
sg11
(lp317
sg13
(tsg14
I0
sg15
g16
ssS'chdir'
p318
(dp319
g7
g8
sg9
(lp320
sg11
(lp321
sg13
(tsg14
I0
sg15
g16
ssS'readdir'
p322
(dp323
g7
g8
sg9
(lp324
sg11
(lp325
sg13
(tsg14
I0
sg15
g16
ssS'getopt_long'
p326
(dp327
g7
g8
sg9
(lp328
sg11
(lp329
sg13
(tsg14
I0
sg15
g16
ssS'_exit'
p330
(dp331
g7
g8
sg9
(lp332
sg11
(lp333
sg13
(tsg14
I0
sg15
g16
ssS'unlinkat'
p334
(dp335
g7
g8
sg9
(lp336
sg11
(lp337
sg13
(tsg14
I0
sg15
g16
ssS'fileno'
p338
(dp339
g7
g8
sg9
(lp340
sg11
(lp341
sg13
(tsg14
I0
sg15
g16
ssS'recursiveRemove'
p342
(dp343
g7
g8
sg9
(lp344
sg11
(lp345
(lp346
I65
aI87
aa(lp347
I65
aI86
aa(lp348
I65
aI85
aa(lp349
I65
aI84
aa(lp350
I85
aa(lp351
I83
aa(lp352
I72
aI129
aI236
aI72
aI1
aI0
aI0
aa(lp353
I100
aI72
aI139
aI4
aI37
aI40
aI0
aa(lp354
I0
aI0
aa(lp355
I72
aI137
aI132
aI36
aI56
aI1
aI0
aI0
aa(lp356
I49
aI192
aa(lp357
I232
aI119
aI251
aI255
aI255
aa(lp358
I72
aI133
aI192
aa(lp359
I15
aI132
aI236
aI1
aI0
aI0
aa(lp360
I72
aI137
aI199
aa(lp361
I72
aI137
aI195
aa(lp362
I232
aI195
aI250
aI255
aI255
aa(lp363
I72
aI141
aI84
aI36
aI16
aa(lp364
I137
aI198
aa(lp365
I191
aI1
aI0
aI0
aI0
aa(lp366
I65
aI137
aI197
aa(lp367
I232
aI15
aI251
aI255
aI255
aa(lp368
I133
aI192
aa(lp369
I15
aI133
aI144
aI1
aI0
aI0
aa(lp370
I232
aI82
aI249
aI255
aI255
aa(lp371
I72
aI137
aI197
aa(lp372
I72
aI141
aI132
aI36
aI160
aI0
aI0
aI0
aa(lp373
I76
aI141
aI37
aI51
aI7
aI0
aI0
aa(lp374
I76
aI141
aI53
aI43
aI7
aI0
aI0
aa(lp375
I72
aI137
aI4
aI36
aa(lp376
I199
aI69
aI0
aI0
aI0
aI0
aI0
aa(lp377
I72
aI137
aI223
aa(lp378
I232
aI166
aI250
aI255
aI255
aa(lp379
I72
aI133
aI192
aa(lp380
I15
aI132
aI173
aI0
aI0
aI0
aa(lp381
I76
aI141
aI120
aI19
aa(lp382
I185
aI2
aI0
aI0
aI0
aa(lp383
I76
aI137
aI231
aa(lp384
I76
aI137
aI254
aa(lp385
I243
aI166
aa(lp386
I15
aI151
aI194
aa(lp387
I128
aI218
aI0
aa(lp388
I132
aI210
aa(lp389
I116
aI205
aa(lp390
I185
aI3
aI0
aI0
aI0
aa(lp391
I76
aI137
aI254
aa(lp392
I76
aI137
aI247
aa(lp393
I243
aI166
aa(lp394
I15
aI151
aI194
aa(lp395
I128
aI218
aI0
aa(lp396
I132
aI210
aa(lp397
I116
aI182
aa(lp398
I246
aI64
aI18
aI251
aa(lp399
I15
aI133
aI177
aI0
aI0
aI0
aa(lp400
I72
aI139
aI12
aI36
aa(lp401
I76
aI137
aI250
aa(lp402
I65
aI184
aI0
aI1
aI0
aI0
aa(lp403
I68
aI137
aI238
aa(lp404
I191
aI1
aI0
aI0
aI0
aa(lp405
I232
aI183
aI249
aI255
aI255
aa(lp406
I133
aI192
aa(lp407
I137
aI194
aa(lp408
I15
aI133
aI205
aI0
aI0
aI0
aa(lp409
I72
aI139
aI68
aI36
aI16
aa(lp410
I72
aI57
aI132
aI36
aI160
aI0
aI0
aI0
aa(lp411
I15
aI133
aI117
aI255
aI255
aI255
aa(lp412
I139
aI132
aI36
aI184
aI0
aI0
aI0
aa(lp413
I37
aI0
aI240
aI0
aI0
aa(lp414
I61
aI0
aI64
aI0
aI0
aa(lp415
I117
aI105
aa(lp416
I49
aI210
aa(lp417
I49
aI192
aa(lp418
I76
aI137
aI254
aa(lp419
I68
aI137
aI239
aa(lp420
I232
aI24
aI249
aI255
aI255
aa(lp421
I133
aI192
aa(lp422
I15
aI137
aI158
aI0
aI0
aI0
aa(lp423
I186
aI0
aI2
aI0
aI0
aa(lp424
I235
aI75
aa(lp425
I102
aI15
aI31
aI132
aI0
aI0
aI0
aa(lp426
I0
aI0
aa(lp427
I139
aI109
aI0
aa(lp428
I133
aI237
aa(lp429
I15
aI133
aI197
aI0
aI0
aI0
aa(lp430
I72
aI137
aI223
aa(lp431
I232
aI141
aI249
aI255
aI255
aa(lp432
I72
aI139
aI156
aI36
aI56
aI1
aI0
aI0
aa(lp433
I100
aI72
aI51
aI28
aI37
aI40
aI0
aa(lp434
I0
aI0
aa(lp435
I137
aI232
aa(lp436
I15
aI133
aI217
aI0
aI0
aI0
aa(lp437
I72
aI129
aI196
aI72
aI1
aI0
aI0
aa(lp438
I91
aa(lp439
I93
aa(lp440
I65
aI92
aa(lp441
I65
aI93
aa(lp442
I65
aI94
aa(lp443
I65
aI95
aa(lp444
I195
aasg13
(I5504
I6090
tp445
sg14
I1
sg15
g16
ssS'err'
p446
(dp447
g7
g8
sg9
(lp448
sg11
(lp449
sg13
(tsg14
I0
sg15
g16
ssS'atexit'
p450
(dp451
g7
g8
sg9
(lp452
sg11
(lp453
(lp454
I72
aI139
aI21
aI65
aI19
aI32
aI0
aa(lp455
I49
aI246
aa(lp456
I233
aI114
aI244
aI255
aI255
aasg13
(tsg14
I0
sg15
g16
ssS'fstatat'
p457
(dp458
g7
g8
sg9
(lp459
sg11
(lp460
sg13
(tsg14
I4
sg15
g16
ssS'mount'
p461
(dp462
g7
g8
sg9
(lp463
sg11
(lp464
sg13
(tsg14
I0
sg15
g16
ssS'__open_alias'
p465
(dp466
g7
g8
sg9
(lp467
sg11
(lp468
sg13
(tsg14
I0
sg15
g16
ssS'__errno_location'
p469
(dp470
g7
g8
sg9
(lp471
sg11
(lp472
sg13
(tsg14
I0
sg15
g16
ssS'dirfd'
p473
(dp474
g7
g8
sg9
(lp475
sg11
(lp476
sg13
(tsg14
I0
sg15
g16
ssS'__stack_chk_fail'
p477
(dp478
g7
g8
sg9
(lp479
sg11
(lp480
sg13
(tsg14
I0
sg15
g16
ssS'__builtin_fputc'
p481
(dp482
g7
g8
sg9
(lp483
sg11
(lp484
sg13
(tsg14
I0
sg15
g16
ssS'close_stdout'
p485
(dp486
g7
g8
sg9
(lp487
sg11
(lp488
(lp489
I85
aa(lp490
I83
aa(lp491
I72
aI131
aI236
aI8
aa(lp492
I72
aI139
aI45
aI27
aI21
aI32
aI0
aa(lp493
I232
aI30
aI244
aI255
aI255
aa(lp494
I199
aI0
aI0
aI0
aI0
aI0
aa(lp495
I72
aI137
aI195
aa(lp496
I72
aI137
aI239
aa(lp497
I232
aI93
aI244
aI255
aI255
aa(lp498
I133
aI192
aa(lp499
I116
aI121
aa(lp500
I139
aI3
aa(lp501
I131
aI248
aI9
aa(lp502
I117
aI50
aa(lp503
I72
aI139
aI45
aI11
aI21
aI32
aI0
aa(lp504
I199
aI3
aI0
aI0
aI0
aI0
aa(lp505
I72
aI137
aI239
aa(lp506
I232
aI61
aI244
aI255
aI255
aa(lp507
I133
aI192
aa(lp508
I15
aI132
aI157
aI0
aI0
aI0
aa(lp509
I131
aI59
aI9
aa(lp510
I117
aI64
aa(lp511
I72
aI131
aI196
aI8
aa(lp512
I91
aa(lp513
I93
aa(lp514
I195
aasg13
(I6912
I7231
tp515
sg14
I0
sg15
g16
ssS'__builtin___snprintf_chk'
p516
(dp517
g7
g8
sg9
(lp518
sg11
(lp519
sg13
(tsg14
I0
sg15
g16
ssS'fork'
p520
(dp521
g7
g8
sg9
(lp522
sg11
(lp523
sg13
(tsg14
I0
sg15
g16
ssS'execv'
p524
(dp525
g7
g8
sg9
(lp526
sg11
(lp527
sg13
(tsg14
I0
sg15
g16
ssS'switchroot'
p528
(dp529
g7
g8
sg9
(lp530
sg11
(lp531
(lp532
I65
aI87
aa(lp533
I65
aI86
aa(lp534
I72
aI137
aI254
aa(lp535
I65
aI85
aa(lp536
I65
aI84
aa(lp537
I73
aI137
aI253
aa(lp538
I85
aa(lp539
I83
aa(lp540
I72
aI141
aI29
aI100
aI5
aI0
aI0
aa(lp541
I191
aI1
aI0
aI0
aI0
aa(lp542
I72
aI129
aI236
aI232
aI17
aI0
aI0
aa(lp543
I100
aI72
aI139
aI4
aI37
aI40
aI0
aa(lp544
I0
aI0
aa(lp545
I72
aI137
aI132
aI36
aI216
aI17
aI0
aI0
aa(lp546
I49
aI192
aa(lp547
I72
aI141
aI5
aI67
aI5
aI0
aI0
aa(lp548
I72
aI141
aI148
aI36
aI176
aI0
aI0
aI0
aa(lp549
I72
aI137
aI28
aI36
aa(lp550
I72
aI199
aI68
aI36
aI32
aI0
aI0
aa(lp551
I0
aI0
aa(lp552
I72
aI137
aI68
aI36
aI8
aa(lp553
I72
aI141
aI5
aI40
aI5
aI0
aI0
aa(lp554
I72
aI137
aI68
aI36
aI16
aa(lp555
I72
aI141
aI5
aI33
aI5
aI0
aI0
aa(lp556
I72
aI137
aI68
aI36
aI24
aa(lp557
I232
aI92
aI248
aI255
aI255
aa(lp558
I133
aI192
aa(lp559
I15
aI133
aI144
aI2
aI0
aI0
aa(lp560
I76
aI141
aI164
aI36
aI208
aI1
aI0
aI0
aa(lp561
I76
aI141
aI188
aI36
aI64
aI1
aI0
aI0
aa(lp562
I76
aI141
aI53
aI253
aI4
aI0
aI0
aa(lp563
I72
aI137
aI229
aa(lp564
I72
aI131
aI236
aI8
aa(lp565
I185
aI0
aI16
aI0
aI0
aa(lp566
I77
aI137
aI233
aa(lp567
I83
aa(lp568
I77
aI137
aI240
aa(lp569
I186
aI1
aI0
aI0
aI0
aa(lp570
I190
aI0
aI16
aI0
aI0
aa(lp571
I76
aI137
aI231
aa(lp572
I49
aI192
aa(lp573
I232
aI150
aI246
aI255
aI255
aa(lp574
I76
aI137
aI250
aa(lp575
I76
aI137
aI230
aa(lp576
I191
aI1
aI0
aI0
aI0
aa(lp577
I232
aI6
aI248
aI255
aI255
aa(lp578
I133
aI192
aa(lp579
I90
aa(lp580
I89
aa(lp581
I117
aI22
aa(lp582
I72
aI139
aI132
aI36
aI176
aI0
aI0
aI0
aa(lp583
I72
aI57
aI132
aI36
aI64
aI1
aI0
aI0
aa(lp584
I15
aI132
aI194
aI0
aI0
aI0
aa(lp585
I190
aI2
aI0
aI0
aI0
aa(lp586
I72
aI137
aI223
aa(lp587
I232
aI205
aI246
aI255
aI255
aa(lp588
I72
aI131
aI197
aI8
aa(lp589
I72
aI139
aI93
aI0
aa(lp590
I72
aI133
aI219
aa(lp591
I117
aI150
aa(lp592
I76
aI137
aI239
aa(lp593
I232
aI248
aI246
aI255
aI255
aa(lp594
I133
aI192
aa(lp595
I15
aI133
aI103
aI1
aI0
aI0
aa(lp596
I72
aI141
aI61
aI148
aI4
aI0
aI0
aa(lp597
I49
aI246
aa(lp598
I49
aI192
aa(lp599
I232
aI16
aI248
aI255
aI255
aa(lp600
I133
aI192
aa(lp601
I137
aI195
aa(lp602
I15
aI136
aI182
aI1
aI0
aI0
aa(lp603
I72
aI141
aI53
aI122
aI4
aI0
aI0
aa(lp604
I69
aI49
aI192
aa(lp605
I49
aI210
aa(lp606
I185
aI0
aI32
aI0
aI0
aa(lp607
I76
aI137
aI239
aa(lp608
I232
aI157
aI246
aI255
aI255
aa(lp609
I133
aI192
aa(lp610
I15
aI136
aI128
aI1
aI0
aI0
aa(lp611
I72
aI141
aI61
aI1
aI4
aI0
aI0
aa(lp612
I232
aI41
aI246
aI255
aI255
aa(lp613
I133
aI192
aa(lp614
I137
aI197
aa(lp615
I15
aI133
aI62
aI1
aI0
aI0
aa(lp616
I232
aI74
aI248
aI255
aI255
aa(lp617
I133
aI192
aa(lp618
I65
aI137
aI196
aa(lp619
I15
aI142
aI169
aI0
aI0
aI0
aa(lp620
I137
aI223
aa(lp621
I232
aI8
aI247
aI255
aI255
aa(lp622
I72
aI139
aI140
aI36
aI216
aI17
aI0
aI0
aa(lp623
I100
aI72
aI51
aI12
aI37
aI40
aI0
aa(lp624
I0
aI0
aa(lp625
I137
aI232
aa(lp626
I15
aI133
aI140
aI1
aI0
aI0
aa(lp627
I72
aI129
aI196
aI232
aI17
aI0
aI0
aa(lp628
I91
aa(lp629
I93
aa(lp630
I65
aI92
aa(lp631
I65
aI93
aa(lp632
I65
aI94
aa(lp633
I65
aI95
aa(lp634
I195
aasg13
(I6096
I6898
tp635
sg14
I1
sg15
g16
sssS'function_calls'
p636
(dp637
sS'binary_filename'
p638
S'switch_root'
p639
sS'structures'
p640
(dp641
sS'extern_functions'
p642
(dp643
sS'arch'
p644
S'amd64'
p645
sS'bin_raw_bytes'
p646
g8
s.