(dp0
S'text_addr'
p1
S'0x1d00'
p2
sS'functions'
p3
(dp4
S'strncasecmp'
p5
(dp6
S'ret_type'
p7
S''
p8
sS'args_type'
p9
(lp10
sS'inst_bytes'
p11
(lp12
sS'boundaries'
p13
(tsS'num_args'
p14
I0
sS'inst_strings'
p15
(lp16
ssS'roll_file'
p17
(dp18
g7
g8
sg9
(lp19
sg11
(lp20
sg13
(tsg14
I3
sg15
g16
ssS'fclose'
p21
(dp22
g7
g8
sg9
(lp23
sg11
(lp24
sg13
(tsg14
I0
sg15
g16
ssS'strtotime'
p25
(dp26
g7
g8
sg9
(lp27
sg11
(lp28
sg13
(tsg14
I1
sg15
g16
ssS'timegm'
p29
(dp30
g7
g8
sg9
(lp31
sg11
(lp32
sg13
(tsg14
I0
sg15
g16
ssS'sleep'
p33
(dp34
g7
g8
sg9
(lp35
sg11
(lp36
sg13
(tsg14
I0
sg15
g16
ssS'close_stdout_atexit'
p37
(dp38
g7
g8
sg9
(lp39
sg11
(lp40
sg13
(tsg14
I0
sg15
g16
ssS'fflush'
p41
(dp42
g7
g8
sg9
(lp43
sg11
(lp44
sg13
(tsg14
I0
sg15
g16
ssS'strtol'
p45
(dp46
g7
g8
sg9
(lp47
sg11
(lp48
sg13
(tsg14
I0
sg15
g16
ssS'fwrite'
p49
(dp50
g7
g8
sg9
(lp51
sg11
(lp52
sg13
(tsg14
I0
sg15
g16
ssS'strptime'
p53
(dp54
g7
g8
sg9
(lp55
sg11
(lp56
sg13
(tsg14
I0
sg15
g16
ssS'fputs'
p57
(dp58
g7
g8
sg9
(lp59
sg11
(lp60
sg13
(tsg14
I0
sg15
g16
ssS'__fxstat'
p61
(dp62
g7
g8
sg9
(lp63
sg11
(lp64
sg13
(tsg14
I0
sg15
g16
ssS'usage'
p65
(dp66
g7
g8
sg9
(lp67
sg11
(lp68
sg13
(tsg14
I0
sg15
g16
ssS'main'
p69
(dp70
g7
g8
sg9
(lp71
sg11
(lp72
(lp73
I65
aI87
aa(lp74
I65
aI86
aa(lp75
I69
aI49
aI255
aa(lp76
I65
aI85
aa(lp77
I65
aI84
aa(lp78
I73
aI137
aI244
aa(lp79
I85
aa(lp80
I83
aa(lp81
I72
aI141
aI53
aI204
aI34
aI0
aI0
aa(lp82
I137
aI253
aa(lp83
I191
aI6
aI0
aI0
aI0
aa(lp84
I72
aI141
aI29
aI63
aI35
aI0
aI0
aa(lp85
I72
aI131
aI236
aI8
aa(lp86
I69
aI49
aI246
aa(lp87
I69
aI49
aI237
aa(lp88
I232
aI252
aI254
aI255
aI255
aa(lp89
I72
aI141
aI53
aI245
aI33
aI0
aI0
aa(lp90
I72
aI141
aI61
aI0
aI34
aI0
aI0
aa(lp91
I232
aI201
aI252
aI255
aI255
aa(lp92
I72
aI141
aI61
aI244
aI33
aI0
aI0
aa(lp93
I232
aI157
aI252
aI255
aI255
aa(lp94
I72
aI141
aI61
aI198
aI13
aI0
aI0
aa(lp95
I232
aI33
aI31
aI0
aI0
aa(lp96
I72
aI141
aI13
aI26
aI59
aI32
aI0
aa(lp97
I72
aI141
aI21
aI169
aI34
aI0
aI0
aa(lp98
I69
aI49
aI192
aa(lp99
I76
aI137
aI230
aa(lp100
I137
aI239
aa(lp101
I232
aI214
aI252
aI255
aI255
aa(lp102
I131
aI248
aI255
aa(lp103
I15
aI132
aI200
aI0
aI0
aI0
aa(lp104
I131
aI232
aI86
aa(lp105
I131
aI248
aI28
aa(lp106
I15
aI135
aI131
aI3
aI0
aI0
aa(lp107
I72
aI99
aI4
aI131
aa(lp108
I72
aI1
aI216
aa(lp109
I255
aI224
aa(lp110
I15
aI31
aI132
aI0
aI0
aI0
aI0
aI0
aa(lp111
I72
aI139
aI61
aI153
aI66
aI32
aI0
aa(lp112
I72
aI141
aI53
aI165
aI34
aI0
aI0
aa(lp113
I232
aI189
aI254
aI255
aI255
aa(lp114
I72
aI133
aI192
aa(lp115
I73
aI137
aI197
aa(lp116
I117
aI164
aa(lp117
I72
aI139
aI29
aI126
aI66
aI32
aI0
aa(lp118
I72
aI141
aI53
aI226
aI32
aI0
aI0
aa(lp119
I186
aI5
aI0
aI0
aI0
aa(lp120
I49
aI255
aa(lp121
I232
aI75
aI252
aI255
aI255
aa(lp122
I72
aI137
aI218
aa(lp123
I72
aI137
aI198
aa(lp124
I191
aI1
aI0
aI0
aI0
aa(lp125
I49
aI192
aa(lp126
I232
aI185
aI253
aI255
aI255
aa(lp127
I102
aI15
aI31
aI132
aI0
aI0
aI0
aa(lp128
I0
aI0
aa(lp129
I65
aI190
aI1
aI0
aI0
aI0
aa(lp130
I233
aI100
aI255
aI255
aI255
aa(lp131
I15
aI31
aI68
aI0
aI0
aa(lp132
I72
aI139
aI29
aI25
aI66
aI32
aI0
aa(lp133
I72
aI141
aI53
aI226
aI33
aI0
aI0
aa(lp134
I186
aI5
aI0
aI0
aI0
aa(lp135
I49
aI255
aa(lp136
I232
aI6
aI252
aI255
aI255
aa(lp137
I72
aI141
aI13
aI219
aI33
aI0
aI0
aa(lp138
I72
aI137
aI198
aa(lp139
I191
aI1
aI0
aI0
aI0
aa(lp140
I72
aI137
aI218
aa(lp141
I49
aI192
aa(lp142
I232
aI13
aI254
aI255
aI255
aa(lp143
I49
aI255
aa(lp144
I232
aI86
aI254
aI255
aI255
aa(lp145
I102
aI15
aI31
aI68
aI0
aI0
aa(lp146
I65
aI191
aI1
aI0
aI0
aI0
aa(lp147
I233
aI20
aI255
aI255
aI255
aa(lp148
I77
aI133
aI237
aa(lp149
I15
aI132
aI63
aI3
aI0
aI0
aa(lp150
I72
aI99
aI5
aI221
aI65
aI32
aI0
aa(lp151
I57
aI232
aa(lp152
I15
aI140
aI236
aI2
aI0
aI0
aa(lp153
I69
aI133
aI246
aa(lp154
I15
aI133
aI51
aI3
aI0
aI0
aa(lp155
I72
aI139
aI29
aI189
aI65
aI32
aI0
aa(lp156
I72
aI141
aI45
aI171
aI32
aI0
aI0
aa(lp157
I69
aI133
aI255
aa(lp158
I186
aI5
aI0
aI0
aI0
aa(lp159
I15
aI132
aI168
aI0
aI0
aI0
aa(lp160
I72
aI141
aI53
aI142
aI33
aI0
aI0
aa(lp161
I49
aI255
aa(lp162
I232
aI138
aI251
aI255
aI255
aa(lp163
I72
aI139
aI61
aI195
aI65
aI32
aI0
aa(lp164
I72
aI137
aI194
aa(lp165
I190
aI1
aI0
aI0
aI0
aa(lp166
I72
aI137
aI233
aa(lp167
I49
aI192
aa(lp168
I232
aI1
aI254
aI255
aI255
aa(lp169
I76
aI137
aI238
aa(lp170
I72
aI137
aI223
aa(lp171
I232
aI198
aI9
aI0
aI0
aa(lp172
I76
aI57
aI45
aI103
aI65
aI32
aI0
aa(lp173
I116
aI73
aa(lp174
I76
aI137
aI239
aa(lp175
I232
aI229
aI250
aI255
aI255
aa(lp176
I76
aI137
aI239
aa(lp177
I73
aI137
aI196
aa(lp178
I232
aI250
aI250
aI255
aI255
aa(lp179
I76
aI137
aI239
aa(lp180
I137
aI197
aa(lp181
I232
aI32
aI251
aI255
aI255
aa(lp182
I133
aI237
aa(lp183
I15
aI132
aI136
aI0
aI0
aI0
aa(lp184
I133
aI192
aa(lp185
I15
aI133
aI137
aI0
aI0
aI0
aa(lp186
I232
aI91
aI250
aI255
aI255
aa(lp187
I131
aI56
aI32
aa(lp188
I116
aI127
aa(lp189
I199
aI0
aI0
aI0
aI0
aI0
aa(lp190
I235
aI119
aa(lp191
I232
aI73
aI250
aI255
aI255
aa(lp192
I131
aI56
aI9
aa(lp193
I117
aI109
aa(lp194
I72
aI133
aI219
aa(lp195
I116
aI17
aa(lp196
I72
aI57
aI29
aI24
aI65
aI32
aI0
aa(lp197
I116
aI8
aa(lp198
I72
aI137
aI223
aa(lp199
I232
aI222
aI250
aI255
aI255
aa(lp200
I90
aa(lp201
I49
aI192
aa(lp202
I91
aa(lp203
I93
aa(lp204
I65
aI92
aa(lp205
I65
aI93
aa(lp206
I65
aI94
aa(lp207
I65
aI95
aa(lp208
I195
aasg13
(I7424
I8641
tp209
sg14
I2
sg15
g16
ssS'fstat'
p210
(dp211
g7
g8
sg9
(lp212
sg11
(lp213
sg13
(tsg14
I2
sg15
g16
ssS'startswith'
p214
(dp215
g7
g8
sg9
(lp216
sg11
(lp217
sg13
(tsg14
I2
sg15
g16
ssS'read'
p218
(dp219
g7
g8
sg9
(lp220
sg11
(lp221
sg13
(tsg14
I3
sg15
g16
ssS'inet_ntop'
p222
(dp223
g7
g8
sg9
(lp224
sg11
(lp225
sg13
(tsg14
I0
sg15
g16
ssS'strtimeval_iso'
p226
(dp227
g7
g8
sg9
(lp228
sg11
(lp229
(lp230
I65
aI86
aa(lp231
I65
aI85
aa(lp232
I73
aI137
aI206
aa(lp233
I65
aI84
aa(lp234
I85
aa(lp235
I65
aI137
aI244
aa(lp236
I83
aa(lp237
I73
aI137
aI213
aa(lp238
I72
aI137
aI251
aa(lp239
I72
aI131
aI236
aI64
aa(lp240
I100
aI72
aI139
aI4
aI37
aI40
aI0
aa(lp241
I0
aI0
aa(lp242
I72
aI137
aI68
aI36
aI56
aa(lp243
I49
aI192
aa(lp244
I72
aI137
aI229
aa(lp245
I131
aI230
aI64
aa(lp246
I72
aI137
aI238
aa(lp247
I116
aI61
aa(lp248
I232
aI24
aI225
aI255
aI255
aa(lp249
I72
aI133
aI192
aa(lp250
I116
aI58
aa(lp251
I72
aI139
aI115
aI8
aa(lp252
I77
aI137
aI240
aa(lp253
I76
aI137
aI233
aa(lp254
I68
aI137
aI226
aa(lp255
I72
aI137
aI239
aa(lp256
I232
aI126
aI253
aI255
aI255
aa(lp257
I72
aI139
aI76
aI36
aI56
aa(lp258
I100
aI72
aI51
aI12
aI37
aI40
aI0
aa(lp259
I0
aI0
aa(lp260
I117
aI63
aa(lp261
I72
aI131
aI196
aI64
aa(lp262
I91
aa(lp263
I93
aa(lp264
I65
aI92
aa(lp265
I65
aI93
aa(lp266
I65
aI94
aa(lp267
I195
aasg13
(I14656
I14822
tp268
sg14
I4
sg15
g16
ssS'fileno'
p269
(dp270
g7
g8
sg9
(lp271
sg11
(lp272
sg13
(tsg14
I0
sg15
g16
ssS'__stack_chk_fail'
p273
(dp274
g7
g8
sg9
(lp275
sg11
(lp276
sg13
(tsg14
I0
sg15
g16
ssS'parse_timestamp'
p277
(dp278
g7
g8
sg9
(lp279
sg11
(lp280
(lp281
I65
aI87
aa(lp282
I65
aI86
aa(lp283
I65
aI85
aa(lp284
I65
aI84
aa(lp285
I85
aa(lp286
I83
aa(lp287
I72
aI129
aI236
aI152
aI0
aI0
aI0
aa(lp288
I100
aI72
aI139
aI4
aI37
aI40
aI0
aa(lp289
I0
aI0
aa(lp290
I72
aI137
aI132
aI36
aI136
aI0
aI0
aI0
aa(lp291
I49
aI192
aa(lp292
I72
aI133
aI255
aa(lp293
I72
aI199
aI68
aI36
aI64
aI0
aI0
aa(lp294
I0
aI0
aa(lp295
I72
aI199
aI68
aI36
aI72
aI0
aI0
aa(lp296
I0
aI0
aa(lp297
I15
aI132
aI214
aI7
aI0
aI0
aa(lp298
I72
aI133
aI246
aa(lp299
I72
aI137
aI245
aa(lp300
I15
aI132
aI171
aI7
aI0
aI0
aa(lp301
I73
aI137
aI254
aa(lp302
I72
aI141
aI92
aI36
aI80
aa(lp303
I49
aI255
aa(lp304
I232
aI102
aI236
aI255
aI255
aa(lp305
I72
aI141
aI124
aI36
aI56
aa(lp306
I72
aI137
aI222
aa(lp307
I72
aI137
aI68
aI36
aI56
aa(lp308
I232
aI84
aI234
aI255
aI255
aa(lp309
I72
aI141
aI61
aI206
aI17
aI0
aI0
aa(lp310
I185
aI4
aI0
aI0
aI0
aa(lp311
I76
aI137
aI246
aa(lp312
I199
aI68
aI36
aI112
aI255
aI255
aI255
aa(lp313
I255
aa(lp314
I243
aI166
aa(lp315
I15
aI151
aI192
aa(lp316
I28
aI0
aa(lp317
I132
aI192
aa(lp318
I116
aI47
aa(lp319
I72
aI141
aI61
aI176
aI17
aI0
aI0
aa(lp320
I185
aI6
aI0
aI0
aI0
aa(lp321
I76
aI137
aI246
aa(lp322
I243
aI166
aa(lp323
I15
aI151
aI192
aa(lp324
I28
aI0
aa(lp325
I132
aI192
aa(lp326
I15
aI133
aI132
aI0
aI0
aI0
aa(lp327
I72
aI199
aI68
aI36
aI80
aI0
aI0
aa(lp328
I0
aI0
aa(lp329
I199
aI68
aI36
aI88
aI0
aI0
aI0
aI0
aa(lp330
I72
aI137
aI223
aa(lp331
I232
aI139
aI236
aI255
aI255
aa(lp332
I72
aI131
aI248
aI255
aa(lp333
I72
aI137
aI68
aI36
aI56
aa(lp334
I15
aI132
aI163
aI4
aI0
aI0
aa(lp335
I72
aI105
aI192
aI64
aI66
aI15
aI0
aa(lp336
I72
aI139
aI76
aI36
aI72
aa(lp337
I72
aI3
aI68
aI36
aI64
aa(lp338
I72
aI137
aI194
aa(lp339
I72
aI41
aI202
aa(lp340
I72
aI57
aI193
aa(lp341
I184
aI0
aI0
aI0
aI0
aa(lp342
I72
aI15
aI66
aI194
aa(lp343
I72
aI137
aI69
aI0
aa(lp344
I49
aI192
aa(lp345
I72
aI139
aI156
aI36
aI136
aI0
aI0
aI0
aa(lp346
I100
aI72
aI51
aI28
aI37
aI40
aI0
aa(lp347
I0
aI0
aa(lp348
I15
aI133
aI221
aI6
aI0
aI0
aa(lp349
I72
aI129
aI196
aI152
aI0
aI0
aI0
aa(lp350
I91
aa(lp351
I93
aa(lp352
I65
aI92
aa(lp353
I65
aI93
aa(lp354
I65
aI94
aa(lp355
I65
aI95
aa(lp356
I195
aasg13
(I11968
I14068
tp357
sg14
I2
sg15
g16
ssS'close_stdout'
p358
(dp359
g7
g8
sg9
(lp360
sg11
(lp361
(lp362
I85
aa(lp363
I83
aa(lp364
I72
aI131
aI236
aI8
aa(lp365
I72
aI139
aI45
aI251
aI52
aI32
aI0
aa(lp366
I232
aI30
aI238
aI255
aI255
aa(lp367
I199
aI0
aI0
aI0
aI0
aI0
aa(lp368
I72
aI137
aI195
aa(lp369
I72
aI137
aI239
aa(lp370
I232
aI141
aI238
aI255
aI255
aa(lp371
I133
aI192
aa(lp372
I116
aI121
aa(lp373
I139
aI3
aa(lp374
I131
aI248
aI9
aa(lp375
I117
aI50
aa(lp376
I72
aI139
aI45
aI11
aI53
aI32
aI0
aa(lp377
I199
aI3
aI0
aI0
aI0
aI0
aa(lp378
I72
aI137
aI239
aa(lp379
I232
aI109
aI238
aI255
aI255
aa(lp380
I133
aI192
aa(lp381
I15
aI132
aI157
aI0
aI0
aI0
aa(lp382
I131
aI59
aI9
aa(lp383
I117
aI64
aa(lp384
I72
aI131
aI196
aI8
aa(lp385
I91
aa(lp386
I93
aa(lp387
I195
aasg13
(I11040
I11359
tp388
sg14
I0
sg15
g16
ssS'errx'
p389
(dp390
g7
g8
sg9
(lp391
sg11
(lp392
sg13
(tsg14
I0
sg15
g16
ssS'strncmp'
p393
(dp394
g7
g8
sg9
(lp395
sg11
(lp396
sg13
(tsg14
I0
sg15
g16
ssS'warnx'
p397
(dp398
g7
g8
sg9
(lp399
sg11
(lp400
sg13
(tsg14
I0
sg15
g16
ssS'dump'
p401
(dp402
g7
g8
sg9
(lp403
sg11
(lp404
(lp405
I65
aI87
aa(lp406
I65
aI86
aa(lp407
I73
aI137
aI247
aa(lp408
I65
aI85
aa(lp409
I65
aI84
aa(lp410
I65
aI137
aI213
aa(lp411
I85
aa(lp412
I83
aa(lp413
I72
aI137
aI253
aa(lp414
I72
aI137
aI203
aa(lp415
I72
aI129
aI236
aI24
aI4
aI0
aI0
aa(lp416
I100
aI72
aI139
aI4
aI37
aI40
aI0
aa(lp417
I0
aI0
aa(lp418
I72
aI137
aI132
aI36
aI8
aI4
aI0
aI0
aa(lp419
I49
aI192
aa(lp420
I133
aI210
aa(lp421
I116
aI17
aa(lp422
I186
aI2
aI0
aI0
aI0
aa(lp423
I72
aI199
aI198
aI0
aI241
aI255
aI255
aa(lp424
I232
aI91
aI246
aI255
aI255
aa(lp425
I76
aI141
aI164
aI36
aI192
aI0
aI0
aI0
aa(lp426
I235
aI11
aa(lp427
I72
aI137
aI222
aa(lp428
I76
aI137
aI231
aa(lp429
I232
aI22
aI254
aI255
aI255
aa(lp430
I72
aI137
aI233
aa(lp431
I186
aI1
aI0
aI0
aI0
aa(lp432
I190
aI128
aI1
aI0
aI0
aa(lp433
I76
aI137
aI231
aa(lp434
I232
aI241
aI243
aI255
aI255
aa(lp435
I72
aI131
aI248
aI1
aa(lp436
I116
aI218
aa(lp437
I69
aI133
aI237
aa(lp438
I117
aI44
aa(lp439
I72
aI139
aI156
aI36
aI8
aI4
aI0
aI0
aa(lp440
I100
aI72
aI51
aI28
aI37
aI40
aI0
aa(lp441
I0
aI0
aa(lp442
I72
aI137
aI232
aa(lp443
I15
aI133
aI30
aI2
aI0
aI0
aa(lp444
I72
aI129
aI196
aI24
aI4
aI0
aI0
aa(lp445
I91
aa(lp446
I93
aa(lp447
I65
aI92
aa(lp448
I65
aI93
aa(lp449
I65
aI94
aa(lp450
I65
aI95
aa(lp451
I195
aasg13
(I9600
I10360
tp452
sg14
I4
sg15
g16
ssS'memset'
p453
(dp454
g7
g8
sg9
(lp455
sg11
(lp456
sg13
(tsg14
I3
sg15
g16
ssS'atexit'
p457
(dp458
g7
g8
sg9
(lp459
sg11
(lp460
(lp461
I72
aI139
aI21
aI129
aI35
aI32
aI0
aa(lp462
I49
aI246
aa(lp463
I233
aI242
aI223
aI255
aI255
aasg13
(tsg14
I0
sg15
g16
ssS'fgets'
p464
(dp465
g7
g8
sg9
(lp466
sg11
(lp467
sg13
(tsg14
I3
sg15
g16
ssS'close'
p468
(dp469
g7
g8
sg9
(lp470
sg11
(lp471
sg13
(tsg14
I0
sg15
g16
ssS'__fread_alias'
p472
(dp473
g7
g8
sg9
(lp474
sg11
(lp475
sg13
(tsg14
I0
sg15
g16
ssS'strchr'
p476
(dp477
g7
g8
sg9
(lp478
sg11
(lp479
sg13
(tsg14
I0
sg15
g16
ssS'time_is_thisyear'
p480
(dp481
g7
g8
sg9
(lp482
sg11
(lp483
sg13
(tsg14
I2
sg15
g16
ssS'exit'
p484
(dp485
g7
g8
sg9
(lp486
sg11
(lp487
sg13
(tsg14
I0
sg15
g16
ssS'__ctype_b_loc'
p488
(dp489
g7
g8
sg9
(lp490
sg11
(lp491
sg13
(tsg14
I0
sg15
g16
ssS'__printf_chk'
p492
(dp493
g7
g8
sg9
(lp494
sg11
(lp495
sg13
(tsg14
I0
sg15
g16
ssS'close_stream'
p496
(dp497
g7
g8
sg9
(lp498
sg11
(lp499
sg13
(tsg14
I1
sg15
g16
ssS'flush_standard_stream'
p500
(dp501
g7
g8
sg9
(lp502
sg11
(lp503
sg13
(tsg14
I1
sg15
g16
ssS'inotify_add_watch'
p504
(dp505
g7
g8
sg9
(lp506
sg11
(lp507
sg13
(tsg14
I0
sg15
g16
ssS'ferror'
p508
(dp509
g7
g8
sg9
(lp510
sg11
(lp511
sg13
(tsg14
I0
sg15
g16
ssS'free'
p512
(dp513
g7
g8
sg9
(lp514
sg11
(lp515
sg13
(tsg14
I0
sg15
g16
ssS'localtime_r'
p516
(dp517
g7
g8
sg9
(lp518
sg11
(lp519
sg13
(tsg14
I0
sg15
g16
ssS'print_utline'
p520
(dp521
g7
g8
sg9
(lp522
sg11
(lp523
(lp524
I65
aI87
aa(lp525
I65
aI86
aa(lp526
I65
aI85
aa(lp527
I65
aI84
aa(lp528
I73
aI137
aI244
aa(lp529
I85
aa(lp530
I83
aa(lp531
I72
aI141
aI183
aI92
aI1
aI0
aI0
aa(lp532
I72
aI137
aI251
aa(lp533
I72
aI129
aI236
aI152
aI0
aI0
aI0
aa(lp534
I139
aI143
aI96
aI1
aI0
aI0
aa(lp535
I100
aI72
aI139
aI4
aI37
aI40
aI0
aa(lp536
I0
aI0
aa(lp537
I72
aI137
aI132
aI36
aI136
aI0
aI0
aI0
aa(lp538
I49
aI192
aa(lp539
I133
aI201
aa(lp540
I117
aI10
aa(lp541
I139
aI151
aI100
aI1
aI0
aI0
aa(lp542
I133
aI210
aa(lp543
I116
aI123
aa(lp544
I72
aI141
aI84
aI36
aI80
aa(lp545
I185
aI46
aI0
aI0
aI0
aa(lp546
I191
aI10
aI0
aI0
aI0
aa(lp547
I232
aI215
aI244
aI255
aI255
aa(lp548
I73
aI137
aI197
aa(lp549
I72
aI99
aI131
aI84
aI1
aI0
aI0
aa(lp550
I72
aI141
aI108
aI36
aI32
aa(lp551
I72
aI141
aI124
aI36
aI16
aa(lp552
I185
aI40
aI0
aI0
aI0
aa(lp553
I190
aI119
aI0
aI0
aI0
aa(lp554
I72
aI137
aI234
aa(lp555
I72
aI137
aI68
aI36
aI16
aa(lp556
I72
aI99
aI131
aI88
aI1
aI0
aI0
aa(lp557
I72
aI137
aI68
aI36
aI24
aa(lp558
I232
aI192
aI20
aI0
aI0
aa(lp559
I133
aI192
aa(lp560
I116
aI92
aa(lp561
I72
aI139
aI132
aI36
aI136
aI0
aI0
aI0
aa(lp562
I100
aI72
aI51
aI4
aI37
aI40
aI0
aa(lp563
I0
aI0
aa(lp564
I15
aI133
aI223
aI0
aI0
aI0
aa(lp565
I72
aI129
aI196
aI152
aI0
aI0
aI0
aa(lp566
I91
aa(lp567
I93
aa(lp568
I65
aI92
aa(lp569
I65
aI93
aa(lp570
I65
aI94
aa(lp571
I65
aI95
aa(lp572
I195
aasg13
(I9200
I9599
tp573
sg14
I2
sg15
g16
ssS'format_iso_time'
p574
(dp575
g7
g8
sg9
(lp576
sg11
(lp577
(lp578
I65
aI86
aa(lp579
I65
aI85
aa(lp580
I73
aI137
aI246
aa(lp581
I65
aI84
aa(lp582
I85
aa(lp583
I137
aI213
aa(lp584
I131
aI226
aI1
aa(lp585
I83
aa(lp586
I73
aI137
aI253
aa(lp587
I73
aI137
aI204
aa(lp588
I76
aI137
aI195
aa(lp589
I15
aI133
aI193
aI1
aI0
aI0
aa(lp590
I137
aI232
aa(lp591
I131
aI224
aI3
aa(lp592
I131
aI248
aI3
aa(lp593
I15
aI132
aI35
aI1
aI0
aI0
aa(lp594
I64
aI246
aI197
aI2
aa(lp595
I15
aI133
aI69
aI1
aI0
aI0
aa(lp596
I64
aI246
aI197
aI8
aa(lp597
I15
aI133
aI134
aI1
aI0
aI0
aa(lp598
I64
aI246
aI197
aI16
aa(lp599
I15
aI133
aI197
aI0
aI0
aI0
aa(lp600
I131
aI229
aI4
aa(lp601
I117
aI16
aa(lp602
I49
aI192
aa(lp603
I91
aa(lp604
I93
aa(lp605
I65
aI92
aa(lp606
I65
aI93
aa(lp607
I65
aI94
aa(lp608
I195
aasg13
(I14096
I14656
tp609
sg14
I5
sg15
g16
ssS'__builtin_fputc'
p610
(dp611
g7
g8
sg9
(lp612
sg11
(lp613
sg13
(tsg14
I0
sg15
g16
ssS'strtime_iso'
p614
(dp615
g7
g8
sg9
(lp616
sg11
(lp617
(lp618
I65
aI86
aa(lp619
I65
aI85
aa(lp620
I73
aI137
aI206
aa(lp621
I65
aI84
aa(lp622
I85
aa(lp623
I137
aI245
aa(lp624
I83
aa(lp625
I73
aI137
aI252
aa(lp626
I73
aI137
aI213
aa(lp627
I72
aI131
aI236
aI64
aa(lp628
I100
aI72
aI139
aI4
aI37
aI40
aI0
aa(lp629
I0
aI0
aa(lp630
I72
aI137
aI68
aI36
aI56
aa(lp631
I49
aI192
aa(lp632
I72
aI137
aI227
aa(lp633
I131
aI230
aI64
aa(lp634
I72
aI137
aI222
aa(lp635
I116
aI62
aa(lp636
I232
aI89
aI224
aI255
aI255
aa(lp637
I72
aI133
aI192
aa(lp638
I116
aI59
aa(lp639
I77
aI137
aI240
aa(lp640
I76
aI137
aI233
aa(lp641
I137
aI234
aa(lp642
I49
aI246
aa(lp643
I72
aI137
aI223
aa(lp644
I232
aI194
aI252
aI255
aI255
aa(lp645
I72
aI139
aI76
aI36
aI56
aa(lp646
I100
aI72
aI51
aI12
aI37
aI40
aI0
aa(lp647
I0
aI0
aa(lp648
I117
aI64
aa(lp649
I72
aI131
aI196
aI64
aa(lp650
I91
aa(lp651
I93
aa(lp652
I65
aI92
aa(lp653
I65
aI93
aa(lp654
I65
aI94
aa(lp655
I195
aasg13
(I14848
I15011
tp656
sg14
I4
sg15
g16
ssS'__builtin___snprintf_chk'
p657
(dp658
g7
g8
sg9
(lp659
sg11
(lp660
sg13
(tsg14
I0
sg15
g16
ssS'get_gmtoff'
p661
(dp662
g7
g8
sg9
(lp663
sg11
(lp664
(lp665
I139
aI87
aI32
aa(lp666
I49
aI192
aa(lp667
I133
aI210
aa(lp668
I120
aI3
aa(lp669
I139
aI71
aI40
aa(lp670
I243
aI195
aa(lp671
I102
aI144
aasg13
(I14080
I14094
tp672
sg14
I1
sg15
g16
ssS'xmalloc'
p673
(dp674
g7
g8
sg9
(lp675
sg11
(lp676
sg13
(tsg14
I1
sg15
g16
ssS'strftime'
p677
(dp678
g7
g8
sg9
(lp679
sg11
(lp680
sg13
(tsg14
I0
sg15
g16
ssS'setlocale'
p681
(dp682
g7
g8
sg9
(lp683
sg11
(lp684
sg13
(tsg14
I0
sg15
g16
ssS'follow_by_inotify'
p685
(dp686
g7
g8
sg9
(lp687
sg11
(lp688
sg13
(tsg14
I3
sg15
g16
ssS'printf'
p689
(dp690
g7
g8
sg9
(lp691
sg11
(lp692
sg13
(tsg14
I1
sg15
g16
ssS'fopen'
p693
(dp694
g7
g8
sg9
(lp695
sg11
(lp696
sg13
(tsg14
I0
sg15
g16
ssS'strncpy'
p697
(dp698
g7
g8
sg9
(lp699
sg11
(lp700
sg13
(tsg14
I3
sg15
g16
ssS'snprintf'
p701
(dp702
g7
g8
sg9
(lp703
sg11
(lp704
sg13
(tsg14
I3
sg15
g16
ssS'mktime'
p705
(dp706
g7
g8
sg9
(lp707
sg11
(lp708
sg13
(tsg14
I0
sg15
g16
ssS'__fgets_alias'
p709
(dp710
g7
g8
sg9
(lp711
sg11
(lp712
sg13
(tsg14
I0
sg15
g16
ssS'dcgettext'
p713
(dp714
g7
g8
sg9
(lp715
sg11
(lp716
sg13
(tsg14
I0
sg15
g16
ssS'dup'
p717
(dp718
g7
g8
sg9
(lp719
sg11
(lp720
sg13
(tsg14
I0
sg15
g16
ssS'parse_sec'
p721
(dp722
g7
g8
sg9
(lp723
sg11
(lp724
(lp725
I65
aI87
aa(lp726
I65
aI86
aa(lp727
I65
aI85
aa(lp728
I65
aI84
aa(lp729
I85
aa(lp730
I83
aa(lp731
I72
aI131
aI236
aI72
aa(lp732
I100
aI72
aI139
aI4
aI37
aI40
aI0
aa(lp733
I0
aI0
aa(lp734
I72
aI137
aI68
aI36
aI56
aa(lp735
I49
aI192
aa(lp736
I72
aI133
aI255
aa(lp737
I72
aI137
aI116
aI36
aI40
aa(lp738
I15
aI132
aI13
aI2
aI0
aI0
aa(lp739
I76
aI141
aI45
aI173
aI44
aI32
aI0
aa(lp740
I72
aI137
aI249
aa(lp741
I49
aI219
aa(lp742
I72
aI199
aI68
aI36
aI32
aI0
aI0
aa(lp743
I0
aI0
aa(lp744
I15
aI31
aI128
aI0
aI0
aI0
aI0
aa(lp745
I72
aI141
aI53
aI65
aI20
aI0
aI0
aa(lp746
I72
aI137
aI207
aa(lp747
I72
aI137
aI76
aI36
aI8
aa(lp748
I232
aI52
aI238
aI255
aI255
aa(lp749
I72
aI139
aI76
aI36
aI8
aa(lp750
I72
aI141
aI44
aI1
aa(lp751
I128
aI125
aI0
aI0
aa(lp752
I15
aI132
aI178
aI1
aI0
aI0
aa(lp753
I76
aI141
aI100
aI36
aI48
aa(lp754
I232
aI119
aI236
aI255
aI255
aa(lp755
I186
aI10
aI0
aI0
aI0
aa(lp756
I73
aI137
aI198
aa(lp757
I199
aI0
aI0
aI0
aI0
aI0
aa(lp758
I76
aI137
aI230
aa(lp759
I72
aI137
aI239
aa(lp760
I232
aI78
aI238
aI255
aI255
aa(lp761
I72
aI137
aI68
aI36
aI16
aa(lp762
I65
aI139
aI6
aa(lp763
I133
aI192
aa(lp764
I15
aI143
aI116
aI1
aI0
aI0
aa(lp765
I72
aI131
aI124
aI36
aI16
aI0
aa(lp766
I15
aI136
aI108
aI1
aI0
aI0
aa(lp767
I72
aI139
aI92
aI36
aI48
aa(lp768
I128
aI59
aI46
aa(lp769
I15
aI132
aI20
aI1
aI0
aI0
aa(lp770
I72
aI57
aI235
aa(lp771
I15
aI132
aI227
aI0
aI0
aI0
aa(lp772
I199
aI68
aI36
aI8
aI0
aI0
aI0
aI0
aa(lp773
I72
aI199
aI68
aI36
aI24
aI0
aI0
aa(lp774
I0
aI0
aa(lp775
I72
aI141
aI53
aI179
aI19
aI0
aI0
aa(lp776
I72
aI137
aI223
aa(lp777
I69
aI49
aI246
aa(lp778
I76
aI141
aI61
aI142
aI19
aI0
aI0
aa(lp779
I232
aI161
aI237
aI255
aI255
aa(lp780
I72
aI1
aI195
aa(lp781
I72
aI137
aI92
aI36
aI48
aa(lp782
I235
aI33
aa(lp783
I15
aI31
aI128
aI0
aI0
aI0
aI0
aa(lp784
I73
aI131
aI198
aI1
aa(lp785
I73
aI131
aI254
aI28
aa(lp786
I15
aI132
aI154
aI0
aI0
aI0
aa(lp787
I76
aI137
aI240
aa(lp788
I72
aI193
aI224
aI4
aa(lp789
I77
aI139
aI124
aI5
aI0
aa(lp790
I77
aI133
aI255
aa(lp791
I69
aI137
aI244
aa(lp792
I116
aI222
aa(lp793
I76
aI137
aI255
aa(lp794
I232
aI166
aI236
aI255
aI255
aa(lp795
I72
aI133
aI219
aa(lp796
I72
aI137
aI197
aa(lp797
I116
aI206
aa(lp798
I72
aI133
aI192
aa(lp799
I116
aI201
aa(lp800
I72
aI137
aI194
aa(lp801
I76
aI137
aI254
aa(lp802
I72
aI137
aI223
aa(lp803
I232
aI203
aI235
aI255
aI255
aa(lp804
I133
aI192
aa(lp805
I117
aI183
aa(lp806
I72
aI137
aI233
aa(lp807
I72
aI1
aI217
aa(lp808
I116
aI175
aa(lp809
I73
aI193
aI228
aI4
aa(lp810
I72
aI139
aI84
aI36
aI24
aa(lp811
I139
aI68
aI36
aI8
aa(lp812
I75
aI139
aI116
aI37
aI8
aa(lp813
I72
aI15
aI175
aI214
aa(lp814
I133
aI192
aa(lp815
I116
aI29
aa(lp816
I15
aI31
aI68
aI0
aI0
aa(lp817
I72
aI184
aI205
aI204
aI204
aI204
aI204
aa(lp818
I204
aI204
aI204
aa(lp819
I72
aI247
aI226
aa(lp820
I72
aI193
aI234
aI3
aa(lp821
I131
aI108
aI36
aI8
aI1
aa(lp822
I117
aI232
aa(lp823
I76
aI139
aI116
aI36
aI16
aa(lp824
I187
aI1
aI0
aI0
aI0
aa(lp825
I76
aI15
aI175
aI246
aa(lp826
I76
aI1
aI242
aa(lp827
I72
aI1
aI84
aI36
aI32
aa(lp828
I233
aI165
aI254
aI255
aI255
aa(lp829
I15
aI31
aI68
aI0
aI0
aa(lp830
I184
aI234
aI255
aI255
aI255
aa(lp831
I72
aI139
aI116
aI36
aI56
aa(lp832
I100
aI72
aI51
aI52
aI37
aI40
aI0
aa(lp833
I0
aI0
aa(lp834
I15
aI133
aI151
aI0
aI0
aI0
aa(lp835
I72
aI131
aI196
aI72
aa(lp836
I91
aa(lp837
I93
aa(lp838
I65
aI92
aa(lp839
I65
aI93
aa(lp840
I65
aI94
aa(lp841
I65
aI95
aa(lp842
I195
aasg13
(I11360
I11965
tp843
sg14
I2
sg15
g16
ssS'inotify_init'
p844
(dp845
g7
g8
sg9
(lp846
sg11
(lp847
sg13
(tsg14
I0
sg15
g16
ssS'strtousec'
p848
(dp849
g7
g8
sg9
(lp850
sg11
(lp851
sg13
(tsg14
I1
sg15
g16
ssS'warn'
p852
(dp853
g7
g8
sg9
(lp854
sg11
(lp855
sg13
(tsg14
I0
sg15
g16
ssS'startswith_no_case'
p856
(dp857
g7
g8
sg9
(lp858
sg11
(lp859
sg13
(tsg14
I2
sg15
g16
ssS'gettimeofday'
p860
(dp861
g7
g8
sg9
(lp862
sg11
(lp863
sg13
(tsg14
I0
sg15
g16
ssS'atoi'
p864
(dp865
g7
g8
sg9
(lp866
sg11
(lp867
sg13
(tsg14
I1
sg15
g16
ssS'__read_alias'
p868
(dp869
g7
g8
sg9
(lp870
sg11
(lp871
sg13
(tsg14
I0
sg15
g16
ssS'err'
p872
(dp873
g7
g8
sg9
(lp874
sg11
(lp875
sg13
(tsg14
I0
sg15
g16
ssS'__fprintf_chk'
p876
(dp877
g7
g8
sg9
(lp878
sg11
(lp879
sg13
(tsg14
I0
sg15
g16
ssS'__errno_location'
p880
(dp881
g7
g8
sg9
(lp882
sg11
(lp883
sg13
(tsg14
I0
sg15
g16
ssS'__builtin_strncpy'
p884
(dp885
g7
g8
sg9
(lp886
sg11
(lp887
sg13
(tsg14
I0
sg15
g16
ssS'strspn'
p888
(dp889
g7
g8
sg9
(lp890
sg11
(lp891
sg13
(tsg14
I0
sg15
g16
ssS'gmtime_r'
p892
(dp893
g7
g8
sg9
(lp894
sg11
(lp895
sg13
(tsg14
I0
sg15
g16
ssS'malloc'
p896
(dp897
g7
g8
sg9
(lp898
sg11
(lp899
sg13
(tsg14
I0
sg15
g16
ssS'sscanf'
p900
(dp901
g7
g8
sg9
(lp902
sg11
(lp903
sg13
(tsg14
I0
sg15
g16
ssS'__assert_fail'
p904
(dp905
g7
g8
sg9
(lp906
sg11
(lp907
sg13
(tsg14
I0
sg15
g16
ssS'strndup'
p908
(dp909
g7
g8
sg9
(lp910
sg11
(lp911
sg13
(tsg14
I0
sg15
g16
ssS'fread'
p912
(dp913
g7
g8
sg9
(lp914
sg11
(lp915
sg13
(tsg14
I4
sg15
g16
ssS'ftello'
p916
(dp917
g7
g8
sg9
(lp918
sg11
(lp919
sg13
(tsg14
I0
sg15
g16
ssS'inet_pton'
p920
(dp921
g7
g8
sg9
(lp922
sg11
(lp923
sg13
(tsg14
I0
sg15
g16
ssS'endswith'
p924
(dp925
g7
g8
sg9
(lp926
sg11
(lp927
sg13
(tsg14
I2
sg15
g16
ssS'__fpending'
p928
(dp929
g7
g8
sg9
(lp930
sg11
(lp931
sg13
(tsg14
I0
sg15
g16
ssS'fprintf'
p932
(dp933
g7
g8
sg9
(lp934
sg11
(lp935
sg13
(tsg14
I2
sg15
g16
ssS'strtoll'
p936
(dp937
g7
g8
sg9
(lp938
sg11
(lp939
sg13
(tsg14
I0
sg15
g16
ssS'bindtextdomain'
p940
(dp941
g7
g8
sg9
(lp942
sg11
(lp943
sg13
(tsg14
I0
sg15
g16
ssS'strlen'
p944
(dp945
g7
g8
sg9
(lp946
sg11
(lp947
sg13
(tsg14
I0
sg15
g16
ssS'fseek'
p948
(dp949
g7
g8
sg9
(lp950
sg11
(lp951
sg13
(tsg14
I0
sg15
g16
ssS'xcleanse'
p952
(dp953
g7
g8
sg9
(lp954
sg11
(lp955
(lp956
I65
aI84
aa(lp957
I85
aa(lp958
I15
aI182
aI47
aa(lp959
I83
aa(lp960
I64
aI132
aI237
aa(lp961
I116
aI73
aa(lp962
I65
aI137
aI244
aa(lp963
I72
aI137
aI251
aa(lp964
I232
aI57
aI249
aI255
aI255
aa(lp965
I65
aI141
aI84
aI36
aI255
aa(lp966
I72
aI141
aI116
aI19
aI1
aa(lp967
I235
aI10
aa(lp968
I15
aI31
aI68
aI0
aI0
aa(lp969
I72
aI57
aI243
aa(lp970
I116
aI40
aa(lp971
I72
aI139
aI8
aa(lp972
I72
aI15
aI190
aI213
aa(lp973
I246
aI68
aI81
aI1
aI64
aa(lp974
I116
aI11
aa(lp975
I131
aI237
aI91
aa(lp976
I129
aI229
aI253
aI0
aI0
aI0
aa(lp977
I117
aI3
aa(lp978
I198
aI3
aI63
aa(lp979
I72
aI131
aI195
aI1
aa(lp980
I15
aI182
aI43
aa(lp981
I64
aI132
aI237
aa(lp982
I117
aI211
aa(lp983
I91
aa(lp984
I93
aa(lp985
I65
aI92
aa(lp986
I195
aasg13
(I9104
I9194
tp987
sg14
I2
sg15
g16
ssS'time'
p988
(dp989
g7
g8
sg9
(lp990
sg11
(lp991
sg13
(tsg14
I0
sg15
g16
ssS'getopt_long'
p992
(dp993
g7
g8
sg9
(lp994
sg11
(lp995
sg13
(tsg14
I0
sg15
g16
ssS'strtime_short'
p996
(dp997
g7
g8
sg9
(lp998
sg11
(lp999
(lp1000
I65
aI87
aa(lp1001
I65
aI86
aa(lp1002
I73
aI137
aI255
aa(lp1003
I65
aI85
aa(lp1004
I65
aI84
aa(lp1005
I65
aI137
aI214
aa(lp1006
I85
aa(lp1007
I83
aa(lp1008
I73
aI137
aI205
aa(lp1009
I72
aI137
aI243
aa(lp1010
I77
aI137
aI196
aa(lp1011
I72
aI129
aI236
aI136
aI0
aI0
aI0
aa(lp1012
I100
aI72
aI139
aI4
aI37
aI40
aI0
aa(lp1013
I0
aI0
aa(lp1014
I72
aI137
aI68
aI36
aI120
aa(lp1015
I49
aI192
aa(lp1016
I72
aI131
aI62
aI0
aa(lp1017
I15
aI132
aI158
aI0
aI0
aI0
aa(lp1018
I72
aI137
aI229
aa(lp1019
I76
aI137
aI255
aa(lp1020
I72
aI137
aI238
aa(lp1021
I232
aI136
aI222
aI255
aI255
aa(lp1022
I72
aI141
aI116
aI36
aI64
aa(lp1023
I72
aI137
aI223
aa(lp1024
I232
aI123
aI222
aI255
aI255
aa(lp1025
I139
aI68
aI36
aI92
aa(lp1026
I57
aI68
aI36
aI28
aa(lp1027
I139
aI68
aI36
aI84
aa(lp1028
I116
aI85
aa(lp1029
I57
aI68
aI36
aI20
aa(lp1030
I117
aI85
aa(lp1031
I65
aI131
aI230
aI2
aa(lp1032
I72
aI137
aI233
aa(lp1033
I116
aI126
aa(lp1034
I72
aI141
aI21
aI167
aI6
aI0
aI0
aa(lp1035
I76
aI137
aI230
aa(lp1036
I76
aI137
aI239
aa(lp1037
I232
aI44
aI225
aI255
aI255
aa(lp1038
I133
aI192
aa(lp1039
I15
aI158
aI192
aa(lp1040
I15
aI182
aI192
aa(lp1041
I247
aI216
aa(lp1042
I72
aI139
aI84
aI36
aI120
aa(lp1043
I100
aI72
aI51
aI20
aI37
aI40
aI0
aa(lp1044
I0
aI0
aa(lp1045
I15
aI133
aI168
aI0
aI0
aI0
aa(lp1046
I72
aI129
aI196
aI136
aI0
aI0
aI0
aa(lp1047
I91
aa(lp1048
I93
aa(lp1049
I65
aI92
aa(lp1050
I65
aI93
aa(lp1051
I65
aI94
aa(lp1052
I65
aI95
aa(lp1053
I195
aasg13
(I15024
I15359
tp1054
sg14
I5
sg15
g16
ssS'_exit'
p1055
(dp1056
g7
g8
sg9
(lp1057
sg11
(lp1058
sg13
(tsg14
I0
sg15
g16
ssS'undump'
p1059
(dp1060
g7
g8
sg9
(lp1061
sg11
(lp1062
(lp1063
I65
aI87
aa(lp1064
I65
aI86
aa(lp1065
I65
aI85
aa(lp1066
I65
aI84
aa(lp1067
I85
aa(lp1068
I83
aa(lp1069
I72
aI129
aI236
aI72
aI2
aI0
aI0
aa(lp1070
I72
aI137
aI124
aI36
aI16
aa(lp1071
I191
aI0
aI4
aI0
aI0
aa(lp1072
I72
aI137
aI116
aI36
aI24
aa(lp1073
I100
aI72
aI139
aI4
aI37
aI40
aI0
aa(lp1074
I0
aI0
aa(lp1075
I72
aI137
aI132
aI36
aI56
aI2
aI0
aI0
aa(lp1076
I49
aI192
aa(lp1077
I232
aI248
aI242
aI255
aI255
aa(lp1078
I72
aI133
aI192
aa(lp1079
I15
aI132
aI51
aI2
aI0
aI0
aa(lp1080
I73
aI137
aI196
aa(lp1081
I198
aI132
aI36
aI252
aI1
aI0
aI0
aI0
aa(lp1082
I72
aI141
aI92
aI36
aI96
aa(lp1083
I76
aI141
aI172
aI36
aI0
aI2
aI0
aI0
aa(lp1084
I76
aI141
aI180
aI36
aI224
aI1
aI0
aI0
aa(lp1085
I72
aI141
aI108
aI36
aI32
aa(lp1086
I233
aI184
aI0
aI0
aI0
aa(lp1087
I15
aI31
aI68
aI0
aI0
aa(lp1088
I191
aI2
aI0
aI0
aI0
aa(lp1089
I232
aI102
aI242
aI255
aI255
aa(lp1090
I15
aI182
aI148
aI36
aI224
aI1
aI0
aI0
aa(lp1091
I102
aI15
aI239
aI192
aa(lp1092
I49
aI192
aa(lp1093
I72
aI199
aI69
aI48
aI0
aI0
aI0
aI0
aa(lp1094
I15
aI41
aI69
aI0
aa(lp1095
I246
aI194
aI223
aa(lp1096
I136
aI84
aI36
aI15
aa(lp1097
I15
aI41
aI69
aI16
aa(lp1098
I15
aI41
aI69
aI32
aa(lp1099
I116
aI51
aa(lp1100
I232
aI182
aI243
aI255
aI255
aa(lp1101
I72
aI15
aI190
aI84
aI36
aI15
aa(lp1102
I72
aI139
aI0
aa(lp1103
I246
aI68
aI80
aI1
aI8
aa(lp1104
I72
aI137
aI234
aa(lp1105
I15
aI132
aI87
aI1
aI0
aI0
aa(lp1106
I72
aI141
aI53
aI176
aI21
aI0
aI0
aa(lp1107
I76
aI137
aI247
aa(lp1108
I232
aI128
aI243
aI255
aI255
aa(lp1109
I72
aI137
aI239
aa(lp1110
I232
aI248
aI242
aI255
aI255
aa(lp1111
I190
aI44
aI0
aI0
aI0
aa(lp1112
I76
aI137
aI247
aa(lp1113
I137
aI132
aI36
aI180
aI1
aI0
aI0
aa(lp1114
I232
aI4
aI241
aI255
aI255
aa(lp1115
I49
aI210
aa(lp1116
I72
aI133
aI192
aa(lp1117
I116
aI18
aa(lp1118
I72
aI141
aI120
aI1
aa(lp1119
I186
aI10
aI0
aI0
aI0
aa(lp1120
I49
aI246
aa(lp1121
I232
aI205
aI241
aI255
aI255
aa(lp1122
I137
aI194
aa(lp1123
I72
aI139
aI76
aI36
aI24
aa(lp1124
I137
aI148
aI36
aI184
aI1
aI0
aI0
aa(lp1125
I190
aI128
aI1
aI0
aI0
aa(lp1126
I186
aI1
aI0
aI0
aI0
aa(lp1127
I72
aI137
aI223
aa(lp1128
I232
aI253
aI242
aI255
aI255
aa(lp1129
I72
aI139
aI84
aI36
aI16
aa(lp1130
I190
aI255
aI3
aI0
aI0
aa(lp1131
I76
aI137
aI231
aa(lp1132
I232
aI123
aI241
aI255
aI255
aa(lp1133
I72
aI133
aI192
aa(lp1134
I15
aI132
aI10
aI1
aI0
aI0
aa(lp1135
I49
aI192
aa(lp1136
I185
aI48
aI0
aI0
aI0
aa(lp1137
I72
aI137
aI223
aa(lp1138
I243
aI72
aI171
aa(lp1139
I76
aI141
aI67
aI40
aa(lp1140
I72
aI141
aI75
aI4
aa(lp1141
I72
aI141
aI53
aI12
aI21
aI0
aI0
aa(lp1142
I72
aI137
aI218
aa(lp1143
I76
aI137
aI231
aa(lp1144
I77
aI141
aI124
aI36
aI19
aa(lp1145
I232
aI22
aI242
aI255
aI255
aa(lp1146
I72
aI141
aI115
aI44
aa(lp1147
I76
aI137
aI255
aa(lp1148
I185
aI1
aI0
aI0
aI0
aa(lp1149
I186
aI32
aI0
aI0
aI0
aa(lp1150
I232
aI224
aI248
aI255
aI255
aa(lp1151
I72
aI152
aa(lp1152
I72
aI141
aI115
aI8
aa(lp1153
I185
aI1
aI0
aI0
aI0
aa(lp1154
I73
aI1
aI199
aa(lp1155
I186
aI32
aI0
aI0
aI0
aa(lp1156
I76
aI137
aI255
aa(lp1157
I232
aI197
aI248
aI255
aI255
aa(lp1158
I72
aI152
aa(lp1159
I72
aI141
aI115
aI76
aa(lp1160
I185
aI1
aI0
aI0
aI0
aa(lp1161
I73
aI1
aI199
aa(lp1162
I186
aI0
aI1
aI0
aI0
aa(lp1163
I76
aI137
aI255
aa(lp1164
I232
aI170
aI248
aI255
aI255
aa(lp1165
I72
aI152
aa(lp1166
I185
aI1
aI0
aI0
aI0
aa(lp1167
I186
aI46
aI0
aI0
aI0
aa(lp1168
I73
aI1
aI199
aa(lp1169
I76
aI137
aI238
aa(lp1170
I76
aI137
aI255
aa(lp1171
I232
aI144
aI248
aI255
aI255
aa(lp1172
I72
aI99
aI248
aa(lp1173
I49
aI201
aa(lp1174
I186
aI28
aI0
aI0
aI0
aa(lp1175
I76
aI1
aI255
aa(lp1176
I76
aI137
aI246
aa(lp1177
I232
aI123
aI248
aI255
aI255
aa(lp1178
I190
aI46
aI0
aI0
aI0
aa(lp1179
I76
aI137
aI239
aa(lp1180
I232
aI254
aI239
aI255
aI255
aa(lp1181
I72
aI133
aI192
aa(lp1182
I72
aI141
aI147
aI92
aI1
aI0
aI0
aa(lp1183
I76
aI137
aI238
aa(lp1184
I15
aI133
aI107
aI254
aI255
aI255
aa(lp1185
I191
aI10
aI0
aI0
aI0
aa(lp1186
I232
aI209
aI240
aI255
aI255
aa(lp1187
I233
aI102
aI254
aI255
aI255
aa(lp1188
I15
aI31
aI64
aI0
aa(lp1189
I72
aI141
aI53
aI107
aI20
aI0
aI0
aa(lp1190
I76
aI137
aI247
aa(lp1191
I232
aI41
aI242
aI255
aI255
aa(lp1192
I128
aI188
aI36
aI250
aI1
aI0
aI0
aa(lp1193
I68
aa(lp1194
I15
aI133
aI155
aI254
aI255
aI255
aa(lp1195
I199
aI68
aI36
aI64
aI1
aI0
aI0
aI0
aa(lp1196
I233
aI142
aI254
aI255
aI255
aa(lp1197
I102
aI15
aI31
aI68
aI0
aI0
aa(lp1198
I72
aI139
aI132
aI36
aI56
aI2
aI0
aI0
aa(lp1199
I100
aI72
aI51
aI4
aI37
aI40
aI0
aa(lp1200
I0
aI0
aa(lp1201
I117
aI49
aa(lp1202
I72
aI129
aI196
aI72
aI2
aI0
aI0
aa(lp1203
I76
aI137
aI231
aa(lp1204
I91
aa(lp1205
I93
aa(lp1206
I65
aI92
aa(lp1207
I65
aI93
aa(lp1208
I65
aI94
aa(lp1209
I65
aI95
aa(lp1210
I233
aI76
aI238
aI255
aI255
aa(lp1211
I72
aI141
aI53
aI209
aI19
aI0
aI0
aa(lp1212
I186
aI0
aI4
aI0
aI0
aa(lp1213
I191
aI1
aI0
aI0
aI0
aa(lp1214
I49
aI192
aa(lp1215
I232
aI148
aI240
aI255
aI255
aa(lp1216
I232
aI47
aI239
aI255
aI255
aa(lp1217
I15
aI31
aI68
aI0
aI0
aa(lp1218
I102
aI46
aI15
aI31
aI132
aI0
aI0
aa(lp1219
I0
aI0
aI0
aasg13
(I10368
I11025
tp1220
sg14
I2
sg15
g16
ssS'time_is_today'
p1221
(dp1222
g7
g8
sg9
(lp1223
sg11
(lp1224
sg13
(tsg14
I2
sg15
g16
ssS'textdomain'
p1225
(dp1226
g7
g8
sg9
(lp1227
sg11
(lp1228
sg13
(tsg14
I0
sg15
g16
ssS'strtm_iso'
p1229
(dp1230
g7
g8
sg9
(lp1231
sg11
(lp1232
(lp1233
I73
aI137
aI200
aa(lp1234
I72
aI137
aI209
aa(lp1235
I137
aI242
aa(lp1236
I49
aI246
aa(lp1237
I233
aI17
aI253
aI255
aI255
aa(lp1238
I144
aasg13
(I14832
I14847
tp1239
sg14
I4
sg15
g16
ssS'gettok'
p1240
(dp1241
g7
g8
sg9
(lp1242
sg11
(lp1243
(lp1244
I65
aI86
aa(lp1245
I65
aI85
aa(lp1246
I73
aI137
aI245
aa(lp1247
I65
aI84
aa(lp1248
I85
aa(lp1249
I190
aI91
aI0
aI0
aI0
aa(lp1250
I83
aa(lp1251
I72
aI137
aI251
aa(lp1252
I65
aI137
aI212
aa(lp1253
I65
aI137
aI206
aa(lp1254
I232
aI114
aI247
aI255
aI255
aa(lp1255
I72
aI41
aI216
aa(lp1256
I133
aI192
aa(lp1257
I120
aI92
aa(lp1258
I72
aI137
aI197
aa(lp1259
I141
aI64
aI1
aa(lp1260
I190
aI93
aI0
aI0
aI0
aa(lp1261
I72
aI152
aa(lp1262
I72
aI1
aI195
aa(lp1263
I72
aI137
aI223
aa(lp1264
I232
aI83
aI247
aI255
aI255
aa(lp1265
I72
aI41
aI216
aa(lp1266
I133
aI192
aa(lp1267
I120
aI61
aa(lp1268
I72
aI99
aI208
aa(lp1269
I1
aI197
aa(lp1270
I69
aI133
aI246
aa(lp1271
I198
aI4
aI19
aI0
aa(lp1272
I116
aI21
aa(lp1273
I190
aI32
aI0
aI0
aI0
aa(lp1274
I72
aI137
aI223
aa(lp1275
I232
aI49
aI247
aI255
aI255
aa(lp1276
I72
aI133
aI192
aa(lp1277
I116
aI3
aa(lp1278
I198
aI0
aI0
aa(lp1279
I73
aI99
aI212
aa(lp1280
I72
aI137
aI222
aa(lp1281
I76
aI137
aI239
aa(lp1282
I232
aI11
aI246
aI255
aI255
aa(lp1283
I91
aa(lp1284
I141
aI69
aI2
aa(lp1285
I93
aa(lp1286
I65
aI92
aa(lp1287
I65
aI93
aa(lp1288
I65
aI94
aa(lp1289
I195
aasg13
(I8928
I9091
tp1290
sg14
I4
sg15
g16
sssS'function_calls'
p1291
(dp1292
sS'binary_filename'
p1293
S'utmpdump'
p1294
sS'structures'
p1295
(dp1296
sS'extern_functions'
p1297
(dp1298
sS'arch'
p1299
S'amd64'
p1300
sS'bin_raw_bytes'
p1301
g8
s.