(dp0
S'text_addr'
p1
S'0x401130'
p2
sS'functions'
p3
(dp4
S'flush_standard_stream'
p5
(dp6
S'ret_type'
p7
S''
p8
sS'args_type'
p9
(lp10
sS'inst_bytes'
p11
(lp12
sS'boundaries'
p13
(tsS'num_args'
p14
I1
sS'inst_strings'
p15
(lp16
ssS'stat'
p17
(dp18
g7
g8
sg9
(lp19
sg11
(lp20
sg13
(tsg14
I2
sg15
g16
ssS'recursiveRemove'
p21
(dp22
g7
g8
sg9
(lp23
sg11
(lp24
(lp25
I85
aa(lp26
I65
aI87
aa(lp27
I65
aI86
aa(lp28
I65
aI85
aa(lp29
I65
aI84
aa(lp30
I83
aa(lp31
I72
aI129
aI236
aI40
aI1
aI0
aI0
aa(lp32
I232
aI58
aI248
aI255
aI255
aa(lp33
I73
aI137
aI197
aa(lp34
I77
aI133
aI237
aa(lp35
I116
aI48
aa(lp36
I76
aI137
aI239
aa(lp37
I232
aI138
aI247
aI255
aI255
aa(lp38
I65
aI137
aI198
aa(lp39
I72
aI141
aI148
aI36
aI152
aI0
aI0
aI0
aa(lp40
I191
aI1
aI0
aI0
aI0
aa(lp41
I68
aI137
aI246
aa(lp42
I232
aI226
aI247
aI255
aI255
aa(lp43
I133
aI192
aa(lp44
I116
aI47
aa(lp45
I49
aI255
aa(lp46
I190
aI52
aI30
aI64
aI0
aa(lp47
I233
aI109
aI1
aI0
aI0
aa(lp48
I49
aI255
aa(lp49
I190
aI27
aI30
aI64
aI0
aa(lp50
I186
aI5
aI0
aI0
aI0
aa(lp51
I232
aI81
aI246
aI255
aI255
aa(lp52
I72
aI137
aI193
aa(lp53
I49
aI192
aa(lp54
I72
aI137
aI207
aa(lp55
I232
aI4
aI246
aI255
aI255
aa(lp56
I233
aI105
aI1
aI0
aI0
aa(lp57
I232
aI202
aI245
aI255
aI255
aa(lp58
I73
aI137
aI196
aa(lp59
I65
aI199
aI4
aI36
aI0
aI0
aI0
aI0
aa(lp60
I76
aI137
aI239
aa(lp61
I232
aI103
aI247
aI255
aI255
aa(lp62
I72
aI137
aI195
aa(lp63
I72
aI133
aI219
aa(lp64
I15
aI132
aI24
aI1
aI0
aI0
aa(lp65
I76
aI141
aI124
aI36
aI8
aa(lp66
I235
aI100
aa(lp67
I72
aI139
aI68
aI36
aI8
aa(lp68
I72
aI59
aI132
aI36
aI152
aI0
aI0
aI0
aa(lp69
I15
aI133
aI226
aI0
aI0
aI0
aa(lp70
I139
aI68
aI36
aI32
aa(lp71
I185
aI0
aI240
aI0
aI0
aa(lp72
I33
aI200
aa(lp73
I49
aI219
aa(lp74
I61
aI0
aI64
aI0
aI0
aa(lp75
I15
aI133
aI149
aI0
aI0
aI0
aa(lp76
I49
aI210
aa(lp77
I49
aI192
aa(lp78
I68
aI137
aI247
aa(lp79
I72
aI137
aI238
aa(lp80
I232
aI250
aI245
aI255
aI255
aa(lp81
I65
aI137
aI199
aa(lp82
I187
aI1
aI0
aI0
aI0
aa(lp83
I69
aI133
aI255
aa(lp84
I120
aI16
aa(lp85
I68
aI137
aI255
aa(lp86
I232
aI21
aI255
aI255
aI255
aa(lp87
I68
aI137
aI255
aa(lp88
I232
aI125
aI246
aI255
aI255
aa(lp89
I76
aI141
aI124
aI36
aI8
aa(lp90
I235
aI98
aa(lp91
I102
aI15
aI31
aI68
aI0
aI0
aa(lp92
I72
aI141
aI107
aI19
aa(lp93
I190
aI90
aI30
aI64
aI0
aa(lp94
I72
aI137
aI239
aa(lp95
I232
aI143
aI246
aI255
aI255
aa(lp96
I133
aI192
aa(lp97
I116
aI124
aa(lp98
I190
aI89
aI30
aI64
aI0
aa(lp99
I72
aI137
aI239
aa(lp100
I232
aI126
aI246
aI255
aI255
aa(lp101
I133
aI192
aa(lp102
I116
aI107
aa(lp103
I15
aI182
aI67
aI18
aa(lp104
I12
aI4
aa(lp105
I60
aI4
aa(lp106
I117
aI42
aa(lp107
I191
aI1
aI0
aI0
aI0
aa(lp108
I65
aI184
aI0
aI1
aI0
aI0
aa(lp109
I68
aI137
aI246
aa(lp110
I72
aI137
aI234
aa(lp111
I76
aI137
aI249
aa(lp112
I232
aI231
aI245
aI255
aI255
aa(lp113
I133
aI192
aa(lp114
I15
aI132
aI75
aI255
aI255
aI255
aa(lp115
I49
aI255
aa(lp116
I190
aI65
aI29
aI64
aI0
aa(lp117
I235
aI29
aa(lp118
I49
aI219
aa(lp119
I193
aI227
aI9
aa(lp120
I68
aI137
aI247
aa(lp121
I72
aI137
aI238
aa(lp122
I137
aI218
aa(lp123
I232
aI20
aI245
aI255
aI255
aa(lp124
I133
aI192
aa(lp125
I116
aI33
aa(lp126
I49
aI255
aa(lp127
I190
aI92
aI30
aI64
aI0
aa(lp128
I186
aI5
aI0
aI0
aI0
aa(lp129
I232
aI47
aI245
aI255
aI255
aa(lp130
I72
aI137
aI193
aa(lp131
I49
aI192
aa(lp132
I72
aI137
aI207
aa(lp133
I72
aI137
aI238
aa(lp134
I232
aI223
aI244
aI255
aI255
aa(lp135
I65
aI199
aI4
aI36
aI0
aI0
aI0
aI0
aa(lp136
I76
aI137
aI239
aa(lp137
I232
aI79
aI246
aI255
aI255
aa(lp138
I72
aI137
aI195
aa(lp139
I72
aI133
aI219
aa(lp140
I15
aI133
aI83
aI255
aI255
aI255
aa(lp141
I65
aI131
aI60
aI36
aI0
aa(lp142
I116
aI30
aa(lp143
I49
aI255
aa(lp144
I190
aI64
aI30
aI64
aI0
aa(lp145
I186
aI5
aI0
aI0
aI0
aa(lp146
I232
aI235
aI244
aI255
aI255
aa(lp147
I72
aI137
aI193
aa(lp148
I49
aI192
aa(lp149
I72
aI137
aI207
aa(lp150
I232
aI158
aI244
aI255
aI255
aa(lp151
I76
aI137
aI239
aa(lp152
I232
aI166
aI245
aI255
aI255
aa(lp153
I72
aI129
aI196
aI40
aI1
aI0
aI0
aa(lp154
I91
aa(lp155
I65
aI92
aa(lp156
I65
aI93
aa(lp157
I65
aI94
aa(lp158
I65
aI95
aa(lp159
I93
aa(lp160
I195
aasg13
(I4200576
I4201068
tp161
sg14
I1
sg15
g16
ssS'fstatat'
p162
(dp163
g7
g8
sg9
(lp164
sg11
(lp165
sg13
(tsg14
I4
sg15
g16
ssS'close_stdout'
p166
(dp167
g7
g8
sg9
(lp168
sg11
(lp169
(lp170
I65
aI86
aa(lp171
I83
aa(lp172
I80
aa(lp173
I72
aI139
aI29
aI253
aI25
aI32
aI0
aa(lp174
I232
aI80
aI247
aI255
aI255
aa(lp175
I73
aI137
aI198
aa(lp176
I65
aI199
aI6
aI0
aI0
aI0
aI0
aa(lp177
I72
aI137
aI223
aa(lp178
I232
aI142
aI247
aI255
aI255
aa(lp179
I133
aI192
aa(lp180
I15
aI133
aI163
aI0
aI0
aI0
aa(lp181
I72
aI137
aI223
aa(lp182
I232
aI254
aI248
aI255
aI255
aa(lp183
I133
aI192
aa(lp184
I116
aI69
aa(lp185
I65
aI139
aI30
aa(lp186
I131
aI251
aI9
aa(lp187
I116
aI9
aa(lp188
I131
aI251
aI32
aa(lp189
I15
aI133
aI156
aI0
aI0
aI0
aa(lp190
I72
aI139
aI29
aI210
aI25
aI32
aI0
aa(lp191
I65
aI199
aI6
aI0
aI0
aI0
aI0
aa(lp192
I72
aI137
aI223
aa(lp193
I232
aI83
aI247
aI255
aI255
aa(lp194
I133
aI192
aa(lp195
I117
aI98
aa(lp196
I72
aI137
aI223
aa(lp197
I232
aI199
aI248
aI255
aI255
aa(lp198
I133
aI192
aa(lp199
I116
aI50
aa(lp200
I65
aI131
aI62
aI9
aa(lp201
I117
aI80
aa(lp202
I72
aI131
aI196
aI8
aa(lp203
I91
aa(lp204
I65
aI94
aa(lp205
I195
aasg13
(I4200288
I4200573
tp206
sg14
I0
sg15
g16
ssS'close_stdout_atexit'
p207
(dp208
g7
g8
sg9
(lp209
sg11
(lp210
sg13
(tsg14
I0
sg15
g16
ssS'usage'
p211
(dp212
g7
g8
sg9
(lp213
sg11
(lp214
sg13
(tsg14
I0
sg15
g16
ssS'main'
p215
(dp216
g7
g8
sg9
(lp217
sg11
(lp218
(lp219
I85
aa(lp220
I65
aI87
aa(lp221
I65
aI86
aa(lp222
I65
aI85
aa(lp223
I65
aI84
aa(lp224
I83
aa(lp225
I72
aI129
aI236
aI104
aI17
aI0
aI0
aa(lp226
I73
aI137
aI247
aa(lp227
I137
aI251
aa(lp228
I191
aI96
aI23
aI64
aI0
aa(lp229
I232
aI176
aI8
aI0
aI0
aa(lp230
I186
aI128
aI27
aI64
aI0
aa(lp231
I185
aI32
aI27
aI64
aI0
aa(lp232
I69
aI49
aI192
aa(lp233
I137
aI223
aa(lp234
I76
aI137
aI254
aa(lp235
I232
aI25
aI253
aI255
aI255
aa(lp236
I131
aI248
aI255
aa(lp237
I15
aI133
aI92
aI3
aI0
aI0
aa(lp238
I131
aI251
aI2
aa(lp239
I15
aI142
aI146
aI3
aI0
aI0
aa(lp240
I77
aI139
aI103
aI8
aa(lp241
I65
aI128
aI60
aI36
aI0
aa(lp242
I15
aI132
aI59
aI3
aI0
aI0
aa(lp243
I73
aI139
aI71
aI16
aa(lp244
I128
aI56
aI0
aa(lp245
I15
aI132
aI46
aI3
aI0
aI0
aa(lp246
I72
aI137
aI68
aI36
aI8
aa(lp247
I72
aI199
aI68
aI36
aI48
aI0
aI0
aa(lp248
I0
aI0
aa(lp249
I184
aI49
aI29
aI64
aI0
aa(lp250
I102
aI72
aI15
aI110
aI192
aa(lp251
I184
aI44
aI29
aI64
aI0
aa(lp252
I102
aI72
aI15
aI110
aI200
aa(lp253
I102
aI15
aI108
aI200
aa(lp254
I102
aI15
aI127
aI76
aI36
aI16
aa(lp255
I184
aI60
aI29
aI64
aI0
aa(lp256
I102
aI72
aI15
aI110
aI192
aa(lp257
I184
aI55
aI29
aI64
aI0
aa(lp258
I102
aI72
aI15
aI110
aI200
aa(lp259
I102
aI15
aI108
aI200
aa(lp260
I102
aI15
aI127
aI76
aI36
aI32
aa(lp261
I72
aI141
aI148
aI36
aI208
aI0
aI0
aI0
aa(lp262
I191
aI1
aI0
aI0
aI0
aa(lp263
I76
aI137
aI230
aa(lp264
I232
aI124
aI253
aI255
aI255
aa(lp265
I133
aI192
aa(lp266
I15
aI133
aI102
aI3
aI0
aI0
aa(lp267
I73
aI131
aI199
aI16
aa(lp268
I65
aI184
aI44
aI29
aI64
aI0
aa(lp269
I76
aI141
aI116
aI36
aI16
aa(lp270
I72
aI141
aI156
aI36
aI96
aI1
aI0
aI0
aa(lp271
I76
aI141
aI108
aI36
aI64
aa(lp272
I15
aI31
aI132
aI0
aI0
aI0
aI0
aI0
aa(lp273
I190
aI0
aI16
aI0
aI0
aa(lp274
I186
aI83
aI29
aI64
aI0
aa(lp275
I49
aI192
aa(lp276
I72
aI137
aI223
aa(lp277
I76
aI137
aI225
aa(lp278
I232
aI153
aI252
aI255
aI255
aa(lp279
I191
aI1
aI0
aI0
aI0
aa(lp280
I72
aI137
aI222
aa(lp281
I76
aI137
aI234
aa(lp282
I232
aI41
aI253
aI255
aI255
aa(lp283
I133
aI192
aa(lp284
I15
aI133
aI129
aI0
aI0
aI0
aa(lp285
I72
aI139
aI68
aI36
aI64
aa(lp286
I72
aI59
aI132
aI36
aI208
aI0
aI0
aI0
aa(lp287
I117
aI114
aa(lp288
I73
aI139
aI62
aa(lp289
I49
aI210
aa(lp290
I185
aI0
aI32
aI0
aI0
aa(lp291
I69
aI49
aI192
aa(lp292
I72
aI137
aI222
aa(lp293
I232
aI221
aI251
aI255
aI255
aa(lp294
I133
aI192
aa(lp295
I121
aI102
aa(lp296
I49
aI255
aa(lp297
I190
aI88
aI29
aI64
aI0
aa(lp298
I186
aI5
aI0
aI0
aI0
aa(lp299
I232
aI184
aI251
aI255
aI255
aa(lp300
I72
aI137
aI193
aa(lp301
I73
aI139
aI46
aa(lp302
I49
aI192
aa(lp303
I72
aI137
aI207
aa(lp304
I72
aI137
aI238
aa(lp305
I72
aI137
aI218
aa(lp306
I232
aI98
aI251
aI255
aI255
aa(lp307
I49
aI255
aa(lp308
I190
aI120
aI29
aI64
aI0
aa(lp309
I186
aI5
aI0
aI0
aI0
aa(lp310
I232
aI145
aI251
aI255
aI255
aa(lp311
I72
aI137
aI193
aa(lp312
I49
aI192
aa(lp313
I72
aI137
aI207
aa(lp314
I72
aI137
aI238
aa(lp315
I232
aI241
aI251
aI255
aI255
aa(lp316
I190
aI1
aI0
aI0
aI0
aa(lp317
I72
aI137
aI239
aa(lp318
I235
aI15
aa(lp319
I15
aI31
aI128
aI0
aI0
aI0
aI0
aa(lp320
I73
aI139
aI62
aa(lp321
I190
aI2
aI0
aI0
aI0
aa(lp322
I232
aI83
aI251
aI255
aI255
aa(lp323
I77
aI139
aI70
aI8
aa(lp324
I73
aI131
aI198
aI8
aa(lp325
I77
aI133
aI192
aa(lp326
I15
aI133
aI50
aI255
aI255
aI255
aa(lp327
I76
aI137
aI231
aa(lp328
I232
aI122
aI251
aI255
aI255
aa(lp329
I133
aI192
aa(lp330
I117
aI52
aa(lp331
I191
aI219
aI29
aI64
aI0
aa(lp332
I49
aI246
aa(lp333
I49
aI192
aa(lp334
I232
aI184
aI252
aI255
aI255
aa(lp335
I137
aI195
aa(lp336
I133
aI219
aa(lp337
I121
aI100
aa(lp338
I49
aI255
aa(lp339
I190
aI175
aI29
aI64
aI0
aa(lp340
I186
aI5
aI0
aI0
aI0
aa(lp341
I232
aI33
aI251
aI255
aI255
aa(lp342
I72
aI137
aI193
aa(lp343
I190
aI219
aI29
aI64
aI0
aa(lp344
I49
aI192
aa(lp345
I72
aI137
aI207
aa(lp346
I235
aI28
aa(lp347
I49
aI255
aa(lp348
I190
aI142
aI29
aI64
aI0
aa(lp349
I186
aI5
aI0
aI0
aI0
aa(lp350
I232
aI1
aI251
aI255
aI255
aa(lp351
I72
aI137
aI193
aa(lp352
I49
aI192
aa(lp353
I72
aI137
aI207
aa(lp354
I76
aI137
aI230
aa(lp355
I232
aI177
aI250
aI255
aI255
aa(lp356
I49
aI255
aa(lp357
I190
aI240
aI27
aI64
aI0
aa(lp358
I186
aI5
aI0
aI0
aI0
aa(lp359
I232
aI224
aI250
aI255
aI255
aa(lp360
I72
aI137
aI193
aa(lp361
I191
aI1
aI0
aI0
aI0
aa(lp362
I49
aI192
aa(lp363
I72
aI137
aI206
aa(lp364
I232
aI30
aI251
aI255
aI255
aa(lp365
I190
aI219
aI29
aI64
aI0
aa(lp366
I49
aI210
aa(lp367
I185
aI0
aI32
aI0
aI0
aa(lp368
I69
aI49
aI192
aa(lp369
I76
aI137
aI231
aa(lp370
I232
aI199
aI250
aI255
aI255
aa(lp371
I133
aI192
aa(lp372
I121
aI16
aa(lp373
I137
aI223
aa(lp374
I232
aI108
aI251
aI255
aI255
aa(lp375
I49
aI255
aa(lp376
I190
aI190
aI29
aI64
aI0
aa(lp377
I235
aI152
aa(lp378
I191
aI90
aI30
aI64
aI0
aa(lp379
I232
aI73
aI250
aI255
aI255
aa(lp380
I133
aI192
aa(lp381
I117
aI78
aa(lp382
I232
aI128
aI252
aI255
aI255
aa(lp383
I137
aI197
aa(lp384
I133
aI237
aa(lp385
I76
aI139
aI116
aI36
aI8
aa(lp386
I15
aI143
aI141
aI0
aI0
aI0
aa(lp387
I72
aI141
aI180
aI36
aI96
aI1
aI0
aI0
aa(lp388
I137
aI223
aa(lp389
I232
aI34
aI252
aI255
aI255
aa(lp390
I133
aI192
aa(lp391
I117
aI81
aa(lp392
I72
aI139
aI132
aI36
aI96
aI1
aI0
aI0
aa(lp393
I185
aI246
aI88
aI132
aI133
aa(lp394
I72
aI57
aI200
aa(lp395
I116
aI8
aa(lp396
I72
aI61
aI148
aI25
aI2
aI1
aa(lp397
I117
aI55
aa(lp398
I137
aI223
aa(lp399
I232
aI157
aI3
aI0
aI0
aa(lp400
I133
aI237
aa(lp401
I117
aI85
aa(lp402
I235
aI76
aa(lp403
I137
aI223
aa(lp404
I232
aI0
aI251
aI255
aI255
aa(lp405
I49
aI255
aa(lp406
I190
aI221
aI29
aI64
aI0
aa(lp407
I186
aI5
aI0
aI0
aI0
aa(lp408
I232
aI47
aI250
aI255
aI255
aa(lp409
I72
aI137
aI193
aa(lp410
I49
aI192
aa(lp411
I72
aI137
aI207
aa(lp412
I232
aI226
aI249
aI255
aI255
aa(lp413
I233
aI44
aI255
aI255
aI255
aa(lp414
I49
aI255
aa(lp415
I190
aI243
aI29
aI64
aI0
aa(lp416
I186
aI5
aI0
aI0
aI0
aa(lp417
I232
aI12
aI250
aI255
aI255
aa(lp418
I72
aI137
aI193
aa(lp419
I49
aI192
aa(lp420
I72
aI137
aI207
aa(lp421
I232
aI191
aI249
aI255
aI255
aa(lp422
I133
aI237
aa(lp423
I117
aI7
aa(lp424
I49
aI255
aa(lp425
I232
aI196
aI251
aI255
aI255
aa(lp426
I137
aI223
aa(lp427
I232
aI173
aI250
aI255
aI255
aa(lp428
I190
aI1
aI0
aI0
aI0
aa(lp429
I76
aI137
aI247
aa(lp430
I232
aI112
aI251
aI255
aI255
aa(lp431
I133
aI192
aa(lp432
I116
aI33
aa(lp433
I49
aI255
aa(lp434
I190
aI255
aI27
aI64
aI0
aa(lp435
I186
aI5
aI0
aI0
aI0
aa(lp436
I232
aI203
aI249
aI255
aI255
aa(lp437
I72
aI137
aI193
aa(lp438
I49
aI192
aa(lp439
I72
aI137
aI207
aa(lp440
I76
aI137
aI246
aa(lp441
I232
aI123
aI249
aI255
aI255
aa(lp442
I76
aI137
aI247
aa(lp443
I76
aI137
aI254
aa(lp444
I232
aI144
aI251
aI255
aI255
aa(lp445
I232
aI59
aI249
aI255
aI255
aa(lp446
I49
aI219
aa(lp447
I131
aI56
aI2
aa(lp448
I15
aI148
aI195
aa(lp449
I131
aI203
aI126
aa(lp450
I49
aI255
aa(lp451
I190
aI16
aI28
aI64
aI0
aa(lp452
I186
aI5
aI0
aI0
aI0
aa(lp453
I232
aI143
aI249
aI255
aI255
aa(lp454
I72
aI137
aI193
aa(lp455
I49
aI192
aa(lp456
I137
aI223
aa(lp457
I72
aI137
aI206
aa(lp458
I76
aI137
aI242
aa(lp459
I232
aI205
aI250
aI255
aI255
aa(lp460
I49
aI255
aa(lp461
I190
aI230
aI27
aI64
aI0
aa(lp462
I235
aI70
aa(lp463
I131
aI248
aI104
aa(lp464
I15
aI132
aI153
aI0
aI0
aI0
aa(lp465
I131
aI248
aI86
aa(lp466
I117
aI79
aa(lp467
I49
aI255
aa(lp468
I190
aI132
aI27
aI64
aI0
aa(lp469
I186
aI5
aI0
aI0
aI0
aa(lp470
I232
aI85
aI249
aI255
aI255
aa(lp471
I72
aI137
aI193
aa(lp472
I72
aI139
aI53
aI123
aI27
aI32
aI0
aa(lp473
I186
aI144
aI27
aI64
aI0
aa(lp474
I49
aI192
aa(lp475
I72
aI137
aI207
aa(lp476
I232
aI156
aI249
aI255
aI255
aa(lp477
I49
aI255
aa(lp478
I232
aI5
aI251
aI255
aI255
aa(lp479
I49
aI255
aa(lp480
I190
aI209
aI27
aI64
aI0
aa(lp481
I186
aI5
aI0
aI0
aI0
aa(lp482
I232
aI36
aI249
aI255
aI255
aa(lp483
I72
aI137
aI193
aa(lp484
I49
aI192
aa(lp485
I72
aI137
aI207
aa(lp486
I232
aI135
aI249
aI255
aI255
aa(lp487
I72
aI139
aI29
aI96
aI27
aI32
aI0
aa(lp488
I49
aI255
aa(lp489
I190
aI170
aI27
aI64
aI0
aa(lp490
I186
aI5
aI0
aI0
aI0
aa(lp491
I232
aI255
aI248
aI255
aI255
aa(lp492
I72
aI137
aI193
aa(lp493
I72
aI139
aI21
aI37
aI27
aI32
aI0
aa(lp494
I49
aI192
aa(lp495
I72
aI137
aI223
aa(lp496
I72
aI137
aI206
aa(lp497
I232
aI248
aI249
aI255
aI255
aa(lp498
I191
aI1
aI0
aI0
aI0
aa(lp499
I232
aI174
aI250
aI255
aI255
aa(lp500
I49
aI255
aa(lp501
I190
aI65
aI29
aI64
aI0
aa(lp502
I233
aI199
aI253
aI255
aI255
aa(lp503
I72
aI139
aI29
aI3
aI27
aI32
aI0
aa(lp504
I49
aI255
aa(lp505
I190
aI49
aI28
aI64
aI0
aa(lp506
I186
aI5
aI0
aI0
aI0
aa(lp507
I232
aI186
aI248
aI255
aI255
aa(lp508
I72
aI137
aI199
aa(lp509
I72
aI137
aI222
aa(lp510
I232
aI95
aI249
aI255
aI255
aa(lp511
I49
aI255
aa(lp512
I190
aI58
aI28
aI64
aI0
aa(lp513
I186
aI5
aI0
aI0
aI0
aa(lp514
I232
aI158
aI248
aI255
aI255
aa(lp515
I72
aI137
aI193
aa(lp516
I72
aI139
aI21
aI196
aI26
aI32
aI0
aa(lp517
I49
aI192
aa(lp518
I72
aI137
aI223
aa(lp519
I72
aI137
aI206
aa(lp520
I232
aI151
aI249
aI255
aI255
aa(lp521
I191
aI10
aI0
aI0
aI0
aa(lp522
I72
aI137
aI222
aa(lp523
I232
aI90
aI249
aI255
aI255
aa(lp524
I49
aI255
aa(lp525
I190
aI108
aI28
aI64
aI0
aa(lp526
I186
aI5
aI0
aI0
aI0
aa(lp527
I232
aI105
aI248
aI255
aI255
aa(lp528
I72
aI137
aI199
aa(lp529
I72
aI137
aI222
aa(lp530
I232
aI14
aI249
aI255
aI255
aa(lp531
I49
aI255
aa(lp532
I190
aI169
aI28
aI64
aI0
aa(lp533
I186
aI5
aI0
aI0
aI0
aa(lp534
I232
aI77
aI248
aI255
aI255
aa(lp535
I72
aI137
aI199
aa(lp536
I72
aI137
aI222
aa(lp537
I232
aI242
aI248
aI255
aI255
aa(lp538
I49
aI255
aa(lp539
I190
aI209
aI28
aI64
aI0
aa(lp540
I186
aI5
aI0
aI0
aI0
aa(lp541
I232
aI49
aI248
aI255
aI255
aa(lp542
I72
aI137
aI195
aa(lp543
I49
aI255
aa(lp544
I190
aI242
aI28
aI64
aI0
aa(lp545
I186
aI5
aI0
aI0
aI0
aa(lp546
I232
aI29
aI248
aI255
aI255
aa(lp547
I72
aI137
aI197
aa(lp548
I191
aI180
aI28
aI64
aI0
aa(lp549
I190
aI197
aI28
aI64
aI0
aa(lp550
I185
aI227
aI28
aI64
aI0
aa(lp551
I49
aI192
aa(lp552
I72
aI137
aI218
aa(lp553
I73
aI137
aI232
aa(lp554
I232
aI94
aI248
aI255
aI255
aa(lp555
I49
aI255
aa(lp556
I190
aI2
aI29
aI64
aI0
aa(lp557
I186
aI5
aI0
aI0
aI0
aa(lp558
I232
aI237
aI247
aI255
aI255
aa(lp559
I72
aI137
aI193
aa(lp560
I190
aI29
aI29
aI64
aI0
aa(lp561
I49
aI192
aa(lp562
I72
aI137
aI207
aa(lp563
I232
aI59
aI248
aI255
aI255
aa(lp564
I49
aI255
aa(lp565
I232
aI164
aI249
aI255
aI255
aa(lp566
I15
aI31
aI64
aI0
aasg13
(I4198944
I4200284
tp567
sg14
I2
sg15
g16
ssS'fstat'
p568
(dp569
g7
g8
sg9
(lp570
sg11
(lp571
sg13
(tsg14
I2
sg15
g16
ssS'switchroot'
p572
(dp573
g7
g8
sg9
(lp574
sg11
(lp575
sg13
(tsg14
I1
sg15
g16
sssS'function_calls'
p576
(dp577
sS'binary_filename'
p578
S'switch_root'
p579
sS'structures'
p580
(dp581
sS'extern_functions'
p582
(dp583
sS'arch'
p584
S'amd64'
p585
sS'bin_raw_bytes'
p586
g8
s.